Archive member included because of file (symbol)

d:/altera/13.0sp1/nios2eds/bin/gnu/h-i686-mingw32/bin/../lib/gcc/nios2-elf/4.1.2\libgcc.a(_fixunsdfsi.o)
                              obj/default/dm9000a.o (__fixunsdfsi)
d:/altera/13.0sp1/nios2eds/bin/gnu/h-i686-mingw32/bin/../lib/gcc/nios2-elf/4.1.2\libgcc.a(_addsub_df.o)
                              d:/altera/13.0sp1/nios2eds/bin/gnu/h-i686-mingw32/bin/../lib/gcc/nios2-elf/4.1.2\libgcc.a(_fixunsdfsi.o) (__subdf3)
d:/altera/13.0sp1/nios2eds/bin/gnu/h-i686-mingw32/bin/../lib/gcc/nios2-elf/4.1.2\libgcc.a(_mul_df.o)
                              obj/default/dm9000a.o (__muldf3)
d:/altera/13.0sp1/nios2eds/bin/gnu/h-i686-mingw32/bin/../lib/gcc/nios2-elf/4.1.2\libgcc.a(_ge_df.o)
                              d:/altera/13.0sp1/nios2eds/bin/gnu/h-i686-mingw32/bin/../lib/gcc/nios2-elf/4.1.2\libgcc.a(_fixunsdfsi.o) (__gedf2)
d:/altera/13.0sp1/nios2eds/bin/gnu/h-i686-mingw32/bin/../lib/gcc/nios2-elf/4.1.2\libgcc.a(_df_to_si.o)
                              d:/altera/13.0sp1/nios2eds/bin/gnu/h-i686-mingw32/bin/../lib/gcc/nios2-elf/4.1.2\libgcc.a(_fixunsdfsi.o) (__fixdfsi)
d:/altera/13.0sp1/nios2eds/bin/gnu/h-i686-mingw32/bin/../lib/gcc/nios2-elf/4.1.2\libgcc.a(_thenan_df.o)
                              d:/altera/13.0sp1/nios2eds/bin/gnu/h-i686-mingw32/bin/../lib/gcc/nios2-elf/4.1.2\libgcc.a(_addsub_df.o) (__thenan_df)
d:/altera/13.0sp1/nios2eds/bin/gnu/h-i686-mingw32/bin/../lib/gcc/nios2-elf/4.1.2\libgcc.a(_usi_to_df.o)
                              obj/default/dm9000a.o (__floatunsidf)
d:/altera/13.0sp1/nios2eds/bin/gnu/h-i686-mingw32/bin/../lib/gcc/nios2-elf/4.1.2\libgcc.a(_muldi3.o)
                              d:/altera/13.0sp1/nios2eds/bin/gnu/h-i686-mingw32/bin/../lib/gcc/nios2-elf/4.1.2\libgcc.a(_mul_df.o) (__muldi3)
d:/altera/13.0sp1/nios2eds/bin/gnu/h-i686-mingw32/bin/../lib/gcc/nios2-elf/4.1.2\libgcc.a(_clzsi2.o)
                              d:/altera/13.0sp1/nios2eds/bin/gnu/h-i686-mingw32/bin/../lib/gcc/nios2-elf/4.1.2\libgcc.a(_usi_to_df.o) (__clzsi2)
d:/altera/13.0sp1/nios2eds/bin/gnu/h-i686-mingw32/bin/../lib/gcc/nios2-elf/4.1.2\libgcc.a(_pack_df.o)
                              d:/altera/13.0sp1/nios2eds/bin/gnu/h-i686-mingw32/bin/../lib/gcc/nios2-elf/4.1.2\libgcc.a(_addsub_df.o) (__pack_d)
d:/altera/13.0sp1/nios2eds/bin/gnu/h-i686-mingw32/bin/../lib/gcc/nios2-elf/4.1.2\libgcc.a(_unpack_df.o)
                              d:/altera/13.0sp1/nios2eds/bin/gnu/h-i686-mingw32/bin/../lib/gcc/nios2-elf/4.1.2\libgcc.a(_addsub_df.o) (__unpack_d)
d:/altera/13.0sp1/nios2eds/bin/gnu/h-i686-mingw32/bin/../lib/gcc/nios2-elf/4.1.2\libgcc.a(_fpcmp_parts_df.o)
                              d:/altera/13.0sp1/nios2eds/bin/gnu/h-i686-mingw32/bin/../lib/gcc/nios2-elf/4.1.2\libgcc.a(_ge_df.o) (__fpcmp_parts_d)
d:/altera/13.0sp1/nios2eds/bin/gnu/h-i686-mingw32/bin/../lib/gcc/nios2-elf/4.1.2\libgcc.a(_clz.o)
                              d:/altera/13.0sp1/nios2eds/bin/gnu/h-i686-mingw32/bin/../lib/gcc/nios2-elf/4.1.2\libgcc.a(_clzsi2.o) (__clz_tab)
d:/altera/13.0sp1/nios2eds/bin/gnu/h-i686-mingw32/bin/../lib/gcc/nios2-elf/4.1.2/../../../../nios2-elf/lib\libc.a(lib_a-atoi.o)
                              obj/default/iniche_init.o (atoi)
d:/altera/13.0sp1/nios2eds/bin/gnu/h-i686-mingw32/bin/../lib/gcc/nios2-elf/4.1.2/../../../../nios2-elf/lib\libc.a(lib_a-ctype_.o)
                              obj/default/network_utilities.o (__ctype_ptr)
d:/altera/13.0sp1/nios2eds/bin/gnu/h-i686-mingw32/bin/../lib/gcc/nios2-elf/4.1.2/../../../../nios2-elf/lib\libc.a(lib_a-errno.o)
                              obj/default/iniche_init.o (__errno)
d:/altera/13.0sp1/nios2eds/bin/gnu/h-i686-mingw32/bin/../lib/gcc/nios2-elf/4.1.2/../../../../nios2-elf/lib\libc.a(lib_a-exit.o)
                              obj/default/iniche_init.o (exit)
d:/altera/13.0sp1/nios2eds/bin/gnu/h-i686-mingw32/bin/../lib/gcc/nios2-elf/4.1.2/../../../../nios2-elf/lib\libc.a(lib_a-fprintf.o)
                              obj/default/alt_error_handler.o (fprintf)
d:/altera/13.0sp1/nios2eds/bin/gnu/h-i686-mingw32/bin/../lib/gcc/nios2-elf/4.1.2/../../../../nios2-elf/lib\libc.a(lib_a-fwrite.o)
                              obj/default/alt_error_handler.o (fwrite)
d:/altera/13.0sp1/nios2eds/bin/gnu/h-i686-mingw32/bin/../lib/gcc/nios2-elf/4.1.2/../../../../nios2-elf/lib\libc.a(lib_a-getc.o)
                              obj/default/network_utilities.o (getc)
d:/altera/13.0sp1/nios2eds/bin/gnu/h-i686-mingw32/bin/../lib/gcc/nios2-elf/4.1.2/../../../../nios2-elf/lib\libc.a(lib_a-impure.o)
                              obj/default/alt_error_handler.o (_impure_ptr)
d:/altera/13.0sp1/nios2eds/bin/gnu/h-i686-mingw32/bin/../lib/gcc/nios2-elf/4.1.2/../../../../nios2-elf/lib\libc.a(lib_a-memcpy.o)
                              obj/default/simple_socket_server.o (memcpy)
d:/altera/13.0sp1/nios2eds/bin/gnu/h-i686-mingw32/bin/../lib/gcc/nios2-elf/4.1.2/../../../../nios2-elf/lib\libc.a(lib_a-memmove.o)
                              obj/default/simple_socket_server.o (memmove)
d:/altera/13.0sp1/nios2eds/bin/gnu/h-i686-mingw32/bin/../lib/gcc/nios2-elf/4.1.2/../../../../nios2-elf/lib\libc.a(lib_a-memset.o)
                              obj/default/iniche_init.o (memset)
d:/altera/13.0sp1/nios2eds/bin/gnu/h-i686-mingw32/bin/../lib/gcc/nios2-elf/4.1.2/../../../../nios2-elf/lib\libc.a(lib_a-perror.o)
                              obj/default/alt_error_handler.o (perror)
d:/altera/13.0sp1/nios2eds/bin/gnu/h-i686-mingw32/bin/../lib/gcc/nios2-elf/4.1.2/../../../../nios2-elf/lib\libc.a(lib_a-printf.o)
                              obj/default/SSS_DE2_115.o (printf)
d:/altera/13.0sp1/nios2eds/bin/gnu/h-i686-mingw32/bin/../lib/gcc/nios2-elf/4.1.2/../../../../nios2-elf/lib\libc.a(lib_a-putc.o)
                              obj/default/network_utilities.o (putc)
d:/altera/13.0sp1/nios2eds/bin/gnu/h-i686-mingw32/bin/../lib/gcc/nios2-elf/4.1.2/../../../../nios2-elf/lib\libc.a(lib_a-putchar.o)
                              obj/default/network_utilities.o (putchar)
d:/altera/13.0sp1/nios2eds/bin/gnu/h-i686-mingw32/bin/../lib/gcc/nios2-elf/4.1.2/../../../../nios2-elf/lib\libc.a(lib_a-puts.o)
                              obj/default/SSS_DE2_115.o (puts)
d:/altera/13.0sp1/nios2eds/bin/gnu/h-i686-mingw32/bin/../lib/gcc/nios2-elf/4.1.2/../../../../nios2-elf/lib\libc.a(lib_a-rget.o)
                              d:/altera/13.0sp1/nios2eds/bin/gnu/h-i686-mingw32/bin/../lib/gcc/nios2-elf/4.1.2/../../../../nios2-elf/lib\libc.a(lib_a-getc.o) (__srget_r)
d:/altera/13.0sp1/nios2eds/bin/gnu/h-i686-mingw32/bin/../lib/gcc/nios2-elf/4.1.2/../../../../nios2-elf/lib\libc.a(lib_a-snprintf.o)
                              obj/default/iniche_init.o (snprintf)
d:/altera/13.0sp1/nios2eds/bin/gnu/h-i686-mingw32/bin/../lib/gcc/nios2-elf/4.1.2/../../../../nios2-elf/lib\libc.a(lib_a-sprintf.o)
                              obj/default/iniche_init.o (sprintf)
d:/altera/13.0sp1/nios2eds/bin/gnu/h-i686-mingw32/bin/../lib/gcc/nios2-elf/4.1.2/../../../../nios2-elf/lib\libc.a(lib_a-strchr.o)
                              obj/default/simple_socket_server.o (strchr)
d:/altera/13.0sp1/nios2eds/bin/gnu/h-i686-mingw32/bin/../lib/gcc/nios2-elf/4.1.2/../../../../nios2-elf/lib\libc.a(lib_a-strcmp.o)
                              obj/default/iniche_init.o (strcmp)
d:/altera/13.0sp1/nios2eds/bin/gnu/h-i686-mingw32/bin/../lib/gcc/nios2-elf/4.1.2/../../../../nios2-elf/lib\libc.a(lib_a-strerror.o)
                              obj/default/iniche_init.o (strerror)
d:/altera/13.0sp1/nios2eds/bin/gnu/h-i686-mingw32/bin/../lib/gcc/nios2-elf/4.1.2/../../../../nios2-elf/lib\libc.a(lib_a-strlen.o)
                              obj/default/LCD.o (strlen)
d:/altera/13.0sp1/nios2eds/bin/gnu/h-i686-mingw32/bin/../lib/gcc/nios2-elf/4.1.2/../../../../nios2-elf/lib\libc.a(lib_a-strtok.o)
                              obj/default/iniche_init.o (strtok)
d:/altera/13.0sp1/nios2eds/bin/gnu/h-i686-mingw32/bin/../lib/gcc/nios2-elf/4.1.2/../../../../nios2-elf/lib\libc.a(lib_a-strtok_r.o)
                              d:/altera/13.0sp1/nios2eds/bin/gnu/h-i686-mingw32/bin/../lib/gcc/nios2-elf/4.1.2/../../../../nios2-elf/lib\libc.a(lib_a-strtok.o) (__strtok_r)
d:/altera/13.0sp1/nios2eds/bin/gnu/h-i686-mingw32/bin/../lib/gcc/nios2-elf/4.1.2/../../../../nios2-elf/lib\libc.a(lib_a-strtol.o)
                              d:/altera/13.0sp1/nios2eds/bin/gnu/h-i686-mingw32/bin/../lib/gcc/nios2-elf/4.1.2/../../../../nios2-elf/lib\libc.a(lib_a-atoi.o) (_strtol_r)
d:/altera/13.0sp1/nios2eds/bin/gnu/h-i686-mingw32/bin/../lib/gcc/nios2-elf/4.1.2/../../../../nios2-elf/lib\libc.a(lib_a-u_strerr.o)
                              d:/altera/13.0sp1/nios2eds/bin/gnu/h-i686-mingw32/bin/../lib/gcc/nios2-elf/4.1.2/../../../../nios2-elf/lib\libc.a(lib_a-strerror.o) (_user_strerror)
d:/altera/13.0sp1/nios2eds/bin/gnu/h-i686-mingw32/bin/../lib/gcc/nios2-elf/4.1.2/../../../../nios2-elf/lib\libc.a(lib_a-vfprintf.o)
                              d:/altera/13.0sp1/nios2eds/bin/gnu/h-i686-mingw32/bin/../lib/gcc/nios2-elf/4.1.2/../../../../nios2-elf/lib\libc.a(lib_a-printf.o) (___vfprintf_internal_r)
d:/altera/13.0sp1/nios2eds/bin/gnu/h-i686-mingw32/bin/../lib/gcc/nios2-elf/4.1.2/../../../../nios2-elf/lib\libc.a(lib_a-wbuf.o)
                              d:/altera/13.0sp1/nios2eds/bin/gnu/h-i686-mingw32/bin/../lib/gcc/nios2-elf/4.1.2/../../../../nios2-elf/lib\libc.a(lib_a-putc.o) (__swbuf_r)
d:/altera/13.0sp1/nios2eds/bin/gnu/h-i686-mingw32/bin/../lib/gcc/nios2-elf/4.1.2/../../../../nios2-elf/lib\libc.a(lib_a-wsetup.o)
                              d:/altera/13.0sp1/nios2eds/bin/gnu/h-i686-mingw32/bin/../lib/gcc/nios2-elf/4.1.2/../../../../nios2-elf/lib\libc.a(lib_a-vfprintf.o) (__swsetup_r)
d:/altera/13.0sp1/nios2eds/bin/gnu/h-i686-mingw32/bin/../lib/gcc/nios2-elf/4.1.2/../../../../nios2-elf/lib\libc.a(lib_a-__call_atexit.o)
                              d:/altera/13.0sp1/nios2eds/bin/gnu/h-i686-mingw32/bin/../lib/gcc/nios2-elf/4.1.2/../../../../nios2-elf/lib\libc.a(lib_a-exit.o) (__call_exitprocs)
d:/altera/13.0sp1/nios2eds/bin/gnu/h-i686-mingw32/bin/../lib/gcc/nios2-elf/4.1.2/../../../../nios2-elf/lib\libc.a(lib_a-dtoa.o)
                              d:/altera/13.0sp1/nios2eds/bin/gnu/h-i686-mingw32/bin/../lib/gcc/nios2-elf/4.1.2/../../../../nios2-elf/lib\libc.a(lib_a-vfprintf.o) (_dtoa_r)
d:/altera/13.0sp1/nios2eds/bin/gnu/h-i686-mingw32/bin/../lib/gcc/nios2-elf/4.1.2/../../../../nios2-elf/lib\libc.a(lib_a-fflush.o)
                              d:/altera/13.0sp1/nios2eds/bin/gnu/h-i686-mingw32/bin/../lib/gcc/nios2-elf/4.1.2/../../../../nios2-elf/lib\libc.a(lib_a-vfprintf.o) (_fflush_r)
d:/altera/13.0sp1/nios2eds/bin/gnu/h-i686-mingw32/bin/../lib/gcc/nios2-elf/4.1.2/../../../../nios2-elf/lib\libc.a(lib_a-findfp.o)
                              d:/altera/13.0sp1/nios2eds/bin/gnu/h-i686-mingw32/bin/../lib/gcc/nios2-elf/4.1.2/../../../../nios2-elf/lib\libc.a(lib_a-fwrite.o) (__sinit)
d:/altera/13.0sp1/nios2eds/bin/gnu/h-i686-mingw32/bin/../lib/gcc/nios2-elf/4.1.2/../../../../nios2-elf/lib\libc.a(lib_a-fputc.o)
                              d:/altera/13.0sp1/nios2eds/bin/gnu/h-i686-mingw32/bin/../lib/gcc/nios2-elf/4.1.2/../../../../nios2-elf/lib\libc.a(lib_a-perror.o) (fputc)
d:/altera/13.0sp1/nios2eds/bin/gnu/h-i686-mingw32/bin/../lib/gcc/nios2-elf/4.1.2/../../../../nios2-elf/lib\libc.a(lib_a-fputs.o)
                              d:/altera/13.0sp1/nios2eds/bin/gnu/h-i686-mingw32/bin/../lib/gcc/nios2-elf/4.1.2/../../../../nios2-elf/lib\libc.a(lib_a-perror.o) (fputs)
d:/altera/13.0sp1/nios2eds/bin/gnu/h-i686-mingw32/bin/../lib/gcc/nios2-elf/4.1.2/../../../../nios2-elf/lib\libc.a(lib_a-freer.o)
                              d:/altera/13.0sp1/nios2eds/bin/gnu/h-i686-mingw32/bin/../lib/gcc/nios2-elf/4.1.2/../../../../nios2-elf/lib\libc.a(lib_a-wsetup.o) (_free_r)
d:/altera/13.0sp1/nios2eds/bin/gnu/h-i686-mingw32/bin/../lib/gcc/nios2-elf/4.1.2/../../../../nios2-elf/lib\libc.a(lib_a-fvwrite.o)
                              d:/altera/13.0sp1/nios2eds/bin/gnu/h-i686-mingw32/bin/../lib/gcc/nios2-elf/4.1.2/../../../../nios2-elf/lib\libc.a(lib_a-fwrite.o) (__sfvwrite_r)
d:/altera/13.0sp1/nios2eds/bin/gnu/h-i686-mingw32/bin/../lib/gcc/nios2-elf/4.1.2/../../../../nios2-elf/lib\libc.a(lib_a-fwalk.o)
                              d:/altera/13.0sp1/nios2eds/bin/gnu/h-i686-mingw32/bin/../lib/gcc/nios2-elf/4.1.2/../../../../nios2-elf/lib\libc.a(lib_a-fflush.o) (_fwalk_reent)
d:/altera/13.0sp1/nios2eds/bin/gnu/h-i686-mingw32/bin/../lib/gcc/nios2-elf/4.1.2/../../../../nios2-elf/lib\libc.a(lib_a-locale.o)
                              d:/altera/13.0sp1/nios2eds/bin/gnu/h-i686-mingw32/bin/../lib/gcc/nios2-elf/4.1.2/../../../../nios2-elf/lib\libc.a(lib_a-vfprintf.o) (_localeconv_r)
d:/altera/13.0sp1/nios2eds/bin/gnu/h-i686-mingw32/bin/../lib/gcc/nios2-elf/4.1.2/../../../../nios2-elf/lib\libc.a(lib_a-makebuf.o)
                              d:/altera/13.0sp1/nios2eds/bin/gnu/h-i686-mingw32/bin/../lib/gcc/nios2-elf/4.1.2/../../../../nios2-elf/lib\libc.a(lib_a-wsetup.o) (__smakebuf_r)
d:/altera/13.0sp1/nios2eds/bin/gnu/h-i686-mingw32/bin/../lib/gcc/nios2-elf/4.1.2/../../../../nios2-elf/lib\libc.a(lib_a-mallocr.o)
                              d:/altera/13.0sp1/nios2eds/bin/gnu/h-i686-mingw32/bin/../lib/gcc/nios2-elf/4.1.2/../../../../nios2-elf/lib\libc.a(lib_a-findfp.o) (_malloc_r)
d:/altera/13.0sp1/nios2eds/bin/gnu/h-i686-mingw32/bin/../lib/gcc/nios2-elf/4.1.2/../../../../nios2-elf/lib\libc.a(lib_a-memchr.o)
                              d:/altera/13.0sp1/nios2eds/bin/gnu/h-i686-mingw32/bin/../lib/gcc/nios2-elf/4.1.2/../../../../nios2-elf/lib\libc.a(lib_a-vfprintf.o) (memchr)
d:/altera/13.0sp1/nios2eds/bin/gnu/h-i686-mingw32/bin/../lib/gcc/nios2-elf/4.1.2/../../../../nios2-elf/lib\libc.a(lib_a-mprec.o)
                              d:/altera/13.0sp1/nios2eds/bin/gnu/h-i686-mingw32/bin/../lib/gcc/nios2-elf/4.1.2/../../../../nios2-elf/lib\libc.a(lib_a-dtoa.o) (_Bfree)
d:/altera/13.0sp1/nios2eds/bin/gnu/h-i686-mingw32/bin/../lib/gcc/nios2-elf/4.1.2/../../../../nios2-elf/lib\libc.a(lib_a-reallocr.o)
                              d:/altera/13.0sp1/nios2eds/bin/gnu/h-i686-mingw32/bin/../lib/gcc/nios2-elf/4.1.2/../../../../nios2-elf/lib\libc.a(lib_a-fvwrite.o) (_realloc_r)
d:/altera/13.0sp1/nios2eds/bin/gnu/h-i686-mingw32/bin/../lib/gcc/nios2-elf/4.1.2/../../../../nios2-elf/lib\libc.a(lib_a-refill.o)
                              d:/altera/13.0sp1/nios2eds/bin/gnu/h-i686-mingw32/bin/../lib/gcc/nios2-elf/4.1.2/../../../../nios2-elf/lib\libc.a(lib_a-rget.o) (__srefill_r)
d:/altera/13.0sp1/nios2eds/bin/gnu/h-i686-mingw32/bin/../lib/gcc/nios2-elf/4.1.2/../../../../nios2-elf/lib\libc.a(lib_a-s_isinfd.o)
                              d:/altera/13.0sp1/nios2eds/bin/gnu/h-i686-mingw32/bin/../lib/gcc/nios2-elf/4.1.2/../../../../nios2-elf/lib\libc.a(lib_a-vfprintf.o) (__isinfd)
d:/altera/13.0sp1/nios2eds/bin/gnu/h-i686-mingw32/bin/../lib/gcc/nios2-elf/4.1.2/../../../../nios2-elf/lib\libc.a(lib_a-s_isnand.o)
                              d:/altera/13.0sp1/nios2eds/bin/gnu/h-i686-mingw32/bin/../lib/gcc/nios2-elf/4.1.2/../../../../nios2-elf/lib\libc.a(lib_a-vfprintf.o) (__isnand)
d:/altera/13.0sp1/nios2eds/bin/gnu/h-i686-mingw32/bin/../lib/gcc/nios2-elf/4.1.2/../../../../nios2-elf/lib\libc.a(lib_a-sbrkr.o)
                              d:/altera/13.0sp1/nios2eds/bin/gnu/h-i686-mingw32/bin/../lib/gcc/nios2-elf/4.1.2/../../../../nios2-elf/lib\libc.a(lib_a-freer.o) (_sbrk_r)
d:/altera/13.0sp1/nios2eds/bin/gnu/h-i686-mingw32/bin/../lib/gcc/nios2-elf/4.1.2/../../../../nios2-elf/lib\libc.a(lib_a-stdio.o)
                              d:/altera/13.0sp1/nios2eds/bin/gnu/h-i686-mingw32/bin/../lib/gcc/nios2-elf/4.1.2/../../../../nios2-elf/lib\libc.a(lib_a-findfp.o) (__sclose)
d:/altera/13.0sp1/nios2eds/bin/gnu/h-i686-mingw32/bin/../lib/gcc/nios2-elf/4.1.2/../../../../nios2-elf/lib\libc.a(lib_a-writer.o)
                              d:/altera/13.0sp1/nios2eds/bin/gnu/h-i686-mingw32/bin/../lib/gcc/nios2-elf/4.1.2/../../../../nios2-elf/lib\libc.a(lib_a-stdio.o) (_write_r)
d:/altera/13.0sp1/nios2eds/bin/gnu/h-i686-mingw32/bin/../lib/gcc/nios2-elf/4.1.2/../../../../nios2-elf/lib\libc.a(lib_a-callocr.o)
                              d:/altera/13.0sp1/nios2eds/bin/gnu/h-i686-mingw32/bin/../lib/gcc/nios2-elf/4.1.2/../../../../nios2-elf/lib\libc.a(lib_a-mprec.o) (_calloc_r)
d:/altera/13.0sp1/nios2eds/bin/gnu/h-i686-mingw32/bin/../lib/gcc/nios2-elf/4.1.2/../../../../nios2-elf/lib\libc.a(lib_a-closer.o)
                              d:/altera/13.0sp1/nios2eds/bin/gnu/h-i686-mingw32/bin/../lib/gcc/nios2-elf/4.1.2/../../../../nios2-elf/lib\libc.a(lib_a-stdio.o) (_close_r)
d:/altera/13.0sp1/nios2eds/bin/gnu/h-i686-mingw32/bin/../lib/gcc/nios2-elf/4.1.2/../../../../nios2-elf/lib\libc.a(lib_a-fclose.o)
                              d:/altera/13.0sp1/nios2eds/bin/gnu/h-i686-mingw32/bin/../lib/gcc/nios2-elf/4.1.2/../../../../nios2-elf/lib\libc.a(lib_a-findfp.o) (fclose)
d:/altera/13.0sp1/nios2eds/bin/gnu/h-i686-mingw32/bin/../lib/gcc/nios2-elf/4.1.2/../../../../nios2-elf/lib\libc.a(lib_a-fstatr.o)
                              d:/altera/13.0sp1/nios2eds/bin/gnu/h-i686-mingw32/bin/../lib/gcc/nios2-elf/4.1.2/../../../../nios2-elf/lib\libc.a(lib_a-makebuf.o) (_fstat_r)
d:/altera/13.0sp1/nios2eds/bin/gnu/h-i686-mingw32/bin/../lib/gcc/nios2-elf/4.1.2/../../../../nios2-elf/lib\libc.a(lib_a-int_errno.o)
                              d:/altera/13.0sp1/nios2eds/bin/gnu/h-i686-mingw32/bin/../lib/gcc/nios2-elf/4.1.2/../../../../nios2-elf/lib\libc.a(lib_a-sbrkr.o) (errno)
d:/altera/13.0sp1/nios2eds/bin/gnu/h-i686-mingw32/bin/../lib/gcc/nios2-elf/4.1.2/../../../../nios2-elf/lib\libc.a(lib_a-isattyr.o)
                              d:/altera/13.0sp1/nios2eds/bin/gnu/h-i686-mingw32/bin/../lib/gcc/nios2-elf/4.1.2/../../../../nios2-elf/lib\libc.a(lib_a-makebuf.o) (_isatty_r)
d:/altera/13.0sp1/nios2eds/bin/gnu/h-i686-mingw32/bin/../lib/gcc/nios2-elf/4.1.2/../../../../nios2-elf/lib\libc.a(lib_a-lseekr.o)
                              d:/altera/13.0sp1/nios2eds/bin/gnu/h-i686-mingw32/bin/../lib/gcc/nios2-elf/4.1.2/../../../../nios2-elf/lib\libc.a(lib_a-stdio.o) (_lseek_r)
d:/altera/13.0sp1/nios2eds/bin/gnu/h-i686-mingw32/bin/../lib/gcc/nios2-elf/4.1.2/../../../../nios2-elf/lib\libc.a(lib_a-readr.o)
                              d:/altera/13.0sp1/nios2eds/bin/gnu/h-i686-mingw32/bin/../lib/gcc/nios2-elf/4.1.2/../../../../nios2-elf/lib\libc.a(lib_a-stdio.o) (_read_r)
d:/altera/13.0sp1/nios2eds/bin/gnu/h-i686-mingw32/bin/../lib/gcc/nios2-elf/4.1.2\libgcc.a(_udivdi3.o)
                              d:/altera/13.0sp1/nios2eds/bin/gnu/h-i686-mingw32/bin/../lib/gcc/nios2-elf/4.1.2/../../../../nios2-elf/lib\libc.a(lib_a-vfprintf.o) (__udivdi3)
d:/altera/13.0sp1/nios2eds/bin/gnu/h-i686-mingw32/bin/../lib/gcc/nios2-elf/4.1.2\libgcc.a(_umoddi3.o)
                              d:/altera/13.0sp1/nios2eds/bin/gnu/h-i686-mingw32/bin/../lib/gcc/nios2-elf/4.1.2/../../../../nios2-elf/lib\libc.a(lib_a-vfprintf.o) (__umoddi3)
d:/altera/13.0sp1/nios2eds/bin/gnu/h-i686-mingw32/bin/../lib/gcc/nios2-elf/4.1.2\libgcc.a(_div_df.o)
                              d:/altera/13.0sp1/nios2eds/bin/gnu/h-i686-mingw32/bin/../lib/gcc/nios2-elf/4.1.2/../../../../nios2-elf/lib\libc.a(lib_a-dtoa.o) (__divdf3)
d:/altera/13.0sp1/nios2eds/bin/gnu/h-i686-mingw32/bin/../lib/gcc/nios2-elf/4.1.2\libgcc.a(_eq_df.o)
                              d:/altera/13.0sp1/nios2eds/bin/gnu/h-i686-mingw32/bin/../lib/gcc/nios2-elf/4.1.2/../../../../nios2-elf/lib\libc.a(lib_a-vfprintf.o) (__eqdf2)
d:/altera/13.0sp1/nios2eds/bin/gnu/h-i686-mingw32/bin/../lib/gcc/nios2-elf/4.1.2\libgcc.a(_ne_df.o)
                              d:/altera/13.0sp1/nios2eds/bin/gnu/h-i686-mingw32/bin/../lib/gcc/nios2-elf/4.1.2/../../../../nios2-elf/lib\libc.a(lib_a-vfprintf.o) (__nedf2)
d:/altera/13.0sp1/nios2eds/bin/gnu/h-i686-mingw32/bin/../lib/gcc/nios2-elf/4.1.2\libgcc.a(_gt_df.o)
                              d:/altera/13.0sp1/nios2eds/bin/gnu/h-i686-mingw32/bin/../lib/gcc/nios2-elf/4.1.2/../../../../nios2-elf/lib\libc.a(lib_a-dtoa.o) (__gtdf2)
d:/altera/13.0sp1/nios2eds/bin/gnu/h-i686-mingw32/bin/../lib/gcc/nios2-elf/4.1.2\libgcc.a(_lt_df.o)
                              d:/altera/13.0sp1/nios2eds/bin/gnu/h-i686-mingw32/bin/../lib/gcc/nios2-elf/4.1.2/../../../../nios2-elf/lib\libc.a(lib_a-vfprintf.o) (__ltdf2)
d:/altera/13.0sp1/nios2eds/bin/gnu/h-i686-mingw32/bin/../lib/gcc/nios2-elf/4.1.2\libgcc.a(_si_to_df.o)
                              d:/altera/13.0sp1/nios2eds/bin/gnu/h-i686-mingw32/bin/../lib/gcc/nios2-elf/4.1.2/../../../../nios2-elf/lib\libc.a(lib_a-dtoa.o) (__floatsidf)
d:/altera/13.0sp1/nios2eds/bin/gnu/h-i686-mingw32/bin/../lib/gcc/nios2-elf/4.1.2\libgcc.a(lib2-divmod.o)
                              d:/altera/13.0sp1/nios2eds/bin/gnu/h-i686-mingw32/bin/../lib/gcc/nios2-elf/4.1.2/../../../../nios2-elf/lib\libc.a(lib_a-vfprintf.o) (__divsi3)
../projeto_final_bsp/\libucosii_bsp.a(alt_exit.o)
                              d:/altera/13.0sp1/nios2eds/bin/gnu/h-i686-mingw32/bin/../lib/gcc/nios2-elf/4.1.2/../../../../nios2-elf/lib\libc.a(lib_a-exit.o) (_exit)
../projeto_final_bsp/\libucosii_bsp.a(alt_flash_dev.o)
                              obj/default/SSS_DE2_115.o (alt_flash_open_dev)
../projeto_final_bsp/\libucosii_bsp.a(alt_fstat.o)
                              d:/altera/13.0sp1/nios2eds/bin/gnu/h-i686-mingw32/bin/../lib/gcc/nios2-elf/4.1.2/../../../../nios2-elf/lib\libc.a(lib_a-fstatr.o) (fstat)
../projeto_final_bsp/\libucosii_bsp.a(alt_irq_register.o)
                              obj/default/dm9000a.o (alt_irq_register)
../projeto_final_bsp/\libucosii_bsp.a(alt_irq_vars.o)
                              ../projeto_final_bsp/\libucosii_bsp.a(alt_irq_register.o) (alt_irq_active)
../projeto_final_bsp/\libucosii_bsp.a(alt_isatty.o)
                              d:/altera/13.0sp1/nios2eds/bin/gnu/h-i686-mingw32/bin/../lib/gcc/nios2-elf/4.1.2/../../../../nios2-elf/lib\libc.a(lib_a-isattyr.o) (isatty)
../projeto_final_bsp/\libucosii_bsp.a(alt_lseek.o)
                              d:/altera/13.0sp1/nios2eds/bin/gnu/h-i686-mingw32/bin/../lib/gcc/nios2-elf/4.1.2/../../../../nios2-elf/lib\libc.a(lib_a-lseekr.o) (lseek)
../projeto_final_bsp/\libucosii_bsp.a(alt_main.o)
                              ../projeto_final_bsp//obj/HAL/src/crt0.o (alt_main)
../projeto_final_bsp/\libucosii_bsp.a(alt_sbrk.o)
                              d:/altera/13.0sp1/nios2eds/bin/gnu/h-i686-mingw32/bin/../lib/gcc/nios2-elf/4.1.2/../../../../nios2-elf/lib\libc.a(lib_a-sbrkr.o) (sbrk)
../projeto_final_bsp/\libucosii_bsp.a(alt_usleep.o)
                              obj/default/LCD.o (usleep)
../projeto_final_bsp/\libucosii_bsp.a(alt_env_lock.o)
                              ../projeto_final_bsp/\libucosii_bsp.a(alt_main.o) (alt_envsem)
../projeto_final_bsp/\libucosii_bsp.a(alt_malloc_lock.o)
                              d:/altera/13.0sp1/nios2eds/bin/gnu/h-i686-mingw32/bin/../lib/gcc/nios2-elf/4.1.2/../../../../nios2-elf/lib\libc.a(lib_a-freer.o) (__malloc_lock)
../projeto_final_bsp/\libucosii_bsp.a(os_core.o)
                              ../projeto_final_bsp/\libucosii_bsp.a(alt_main.o) (OSInit)
../projeto_final_bsp/\libucosii_bsp.a(os_dbg.o)
                              ../projeto_final_bsp/\libucosii_bsp.a(os_core.o) (OSDebugInit)
../projeto_final_bsp/\libucosii_bsp.a(os_flag.o)
                              obj/default/simple_socket_server.o (OSFlagCreate)
../projeto_final_bsp/\libucosii_bsp.a(os_mem.o)
                              ../projeto_final_bsp/\libucosii_bsp.a(os_core.o) (OS_MemInit)
../projeto_final_bsp/\libucosii_bsp.a(os_q.o)
                              obj/default/simple_socket_server.o (OSQCreate)
../projeto_final_bsp/\libucosii_bsp.a(os_sem.o)
                              obj/default/simple_socket_server.o (OSSemCreate)
../projeto_final_bsp/\libucosii_bsp.a(os_task.o)
                              obj/default/iniche_init.o (OSTaskCreateExt)
../projeto_final_bsp/\libucosii_bsp.a(os_time.o)
                              obj/default/iniche_init.o (OSTimeDly)
../projeto_final_bsp/\libucosii_bsp.a(alt_sys_init.o)
                              ../projeto_final_bsp/\libucosii_bsp.a(alt_main.o) (alt_irq_init)
../projeto_final_bsp/\libucosii_bsp.a(altera_avalon_cfi_flash.o)
                              ../projeto_final_bsp/\libucosii_bsp.a(alt_sys_init.o) (alt_flash_cfi_init)
../projeto_final_bsp/\libucosii_bsp.a(altera_avalon_cfi_flash_table.o)
                              ../projeto_final_bsp/\libucosii_bsp.a(altera_avalon_cfi_flash.o) (alt_set_flash_width_func)
../projeto_final_bsp/\libucosii_bsp.a(altera_avalon_epcs_flash_controller.o)
                              ../projeto_final_bsp/\libucosii_bsp.a(alt_sys_init.o) (alt_epcs_flash_init)
../projeto_final_bsp/\libucosii_bsp.a(altera_avalon_jtag_uart_fd.o)
                              ../projeto_final_bsp/\libucosii_bsp.a(alt_sys_init.o) (altera_avalon_jtag_uart_read_fd)
../projeto_final_bsp/\libucosii_bsp.a(altera_avalon_jtag_uart_init.o)
                              ../projeto_final_bsp/\libucosii_bsp.a(alt_sys_init.o) (altera_avalon_jtag_uart_init)
../projeto_final_bsp/\libucosii_bsp.a(altera_avalon_jtag_uart_ioctl.o)
                              ../projeto_final_bsp/\libucosii_bsp.a(altera_avalon_jtag_uart_fd.o) (altera_avalon_jtag_uart_ioctl)
../projeto_final_bsp/\libucosii_bsp.a(altera_avalon_jtag_uart_read.o)
                              ../projeto_final_bsp/\libucosii_bsp.a(altera_avalon_jtag_uart_fd.o) (altera_avalon_jtag_uart_read)
../projeto_final_bsp/\libucosii_bsp.a(altera_avalon_jtag_uart_write.o)
                              ../projeto_final_bsp/\libucosii_bsp.a(altera_avalon_jtag_uart_fd.o) (altera_avalon_jtag_uart_write)
../projeto_final_bsp/\libucosii_bsp.a(altera_avalon_lcd_16207.o)
                              ../projeto_final_bsp/\libucosii_bsp.a(alt_sys_init.o) (altera_avalon_lcd_16207_init)
../projeto_final_bsp/\libucosii_bsp.a(altera_avalon_lcd_16207_fd.o)
                              ../projeto_final_bsp/\libucosii_bsp.a(alt_sys_init.o) (altera_avalon_lcd_16207_write_fd)
../projeto_final_bsp/\libucosii_bsp.a(altera_avalon_timer_sc.o)
                              ../projeto_final_bsp/\libucosii_bsp.a(alt_sys_init.o) (alt_avalon_timer_sc_init)
../projeto_final_bsp/\libucosii_bsp.a(altera_avalon_uart_fd.o)
                              ../projeto_final_bsp/\libucosii_bsp.a(alt_sys_init.o) (altera_avalon_uart_read_fd)
../projeto_final_bsp/\libucosii_bsp.a(altera_avalon_uart_init.o)
                              ../projeto_final_bsp/\libucosii_bsp.a(alt_sys_init.o) (altera_avalon_uart_init)
../projeto_final_bsp/\libucosii_bsp.a(altera_avalon_uart_read.o)
                              ../projeto_final_bsp/\libucosii_bsp.a(altera_avalon_uart_fd.o) (altera_avalon_uart_read)
../projeto_final_bsp/\libucosii_bsp.a(altera_avalon_uart_write.o)
                              ../projeto_final_bsp/\libucosii_bsp.a(altera_avalon_uart_fd.o) (altera_avalon_uart_write)
../projeto_final_bsp/\libucosii_bsp.a(epcs_commands.o)
                              ../projeto_final_bsp/\libucosii_bsp.a(altera_avalon_epcs_flash_controller.o) (epcs_sector_erase)
../projeto_final_bsp/\libucosii_bsp.a(alt_iniche_close.o)
                              obj/default/iniche_init.o (close)
../projeto_final_bsp/\libucosii_bsp.a(alt_iniche_dev.o)
                              obj/default/iniche_init.o (alt_iniche_dev_list)
../projeto_final_bsp/\libucosii_bsp.a(alt_iniche_read.o)
                              d:/altera/13.0sp1/nios2eds/bin/gnu/h-i686-mingw32/bin/../lib/gcc/nios2-elf/4.1.2/../../../../nios2-elf/lib\libc.a(lib_a-readr.o) (read)
../projeto_final_bsp/\libucosii_bsp.a(alt_iniche_write.o)
                              d:/altera/13.0sp1/nios2eds/bin/gnu/h-i686-mingw32/bin/../lib/gcc/nios2-elf/4.1.2/../../../../nios2-elf/lib\libc.a(lib_a-writer.o) (write)
../projeto_final_bsp/\libucosii_bsp.a(ipnet.o)
                              obj/default/dm9000a.o (rcvdq)
../projeto_final_bsp/\libucosii_bsp.a(ipstart.o)
                              ../projeto_final_bsp/\libucosii_bsp.a(ipnet.o) (ifNumber)
../projeto_final_bsp/\libucosii_bsp.a(igmp_cmn.o)
                              ../projeto_final_bsp/\libucosii_bsp.a(ipstart.o) (igmp_init)
../projeto_final_bsp/\libucosii_bsp.a(bsdsock.o)
                              obj/default/simple_socket_server.o (bsd_accept)
../projeto_final_bsp/\libucosii_bsp.a(cksum.o)
                              ../projeto_final_bsp/\libucosii_bsp.a(igmp_cmn.o) (cksum)
../projeto_final_bsp/\libucosii_bsp.a(in_utils.o)
                              obj/default/iniche_init.o (ns_printf)
../projeto_final_bsp/\libucosii_bsp.a(netmain.o)
                              obj/default/iniche_init.o (iniche_net_ready)
../projeto_final_bsp/\libucosii_bsp.a(parseip.o)
                              obj/default/iniche_init.o (inet_addr)
../projeto_final_bsp/\libucosii_bsp.a(tk_crnos.o)
                              obj/default/iniche_init.o (tk_yield)
../projeto_final_bsp/\libucosii_bsp.a(dhcpclnt.o)
                              ../projeto_final_bsp/\libucosii_bsp.a(netmain.o) (dhc_second)
../projeto_final_bsp/\libucosii_bsp.a(dhcputil.o)
                              ../projeto_final_bsp/\libucosii_bsp.a(dhcpclnt.o) (find_opt)
../projeto_final_bsp/\libucosii_bsp.a(pktalloc.o)
                              ../projeto_final_bsp/\libucosii_bsp.a(ipnet.o) (pk_init)
../projeto_final_bsp/\libucosii_bsp.a(q.o)
                              ../projeto_final_bsp/\libucosii_bsp.a(ipnet.o) (getq)
../projeto_final_bsp/\libucosii_bsp.a(udp_open.o)
                              ../projeto_final_bsp/\libucosii_bsp.a(dhcpclnt.o) (udp_open)
../projeto_final_bsp/\libucosii_bsp.a(asm_cksum.o)
                              ../projeto_final_bsp/\libucosii_bsp.a(cksum.o) (asm_cksum)
../projeto_final_bsp/\libucosii_bsp.a(brdutils.o)
                              ../projeto_final_bsp/\libucosii_bsp.a(ipnet.o) (dtrap)
../projeto_final_bsp/\libucosii_bsp.a(osportco.o)
                              ../projeto_final_bsp/\libucosii_bsp.a(tk_crnos.o) (tcp_sleep_count)
../projeto_final_bsp/\libucosii_bsp.a(targnios.o)
                              obj/default/iniche_init.o (alt_iniche_init)
../projeto_final_bsp/\libucosii_bsp.a(nptcp.o)
                              ../projeto_final_bsp/\libucosii_bsp.a(bsdsock.o) (soq)
../projeto_final_bsp/\libucosii_bsp.a(rawsock.o)
                              ../projeto_final_bsp/\libucosii_bsp.a(nptcp.o) (rawip_usrreq)
../projeto_final_bsp/\libucosii_bsp.a(sockcall.o)
                              obj/default/iniche_init.o (t_socket)
../projeto_final_bsp/\libucosii_bsp.a(socket.o)
                              ../projeto_final_bsp/\libucosii_bsp.a(sockcall.o) (socreate)
../projeto_final_bsp/\libucosii_bsp.a(socket2.o)
                              ../projeto_final_bsp/\libucosii_bsp.a(sockcall.o) (soqremque)
../projeto_final_bsp/\libucosii_bsp.a(soselect.o)
                              ../projeto_final_bsp/\libucosii_bsp.a(bsdsock.o) (t_select)
../projeto_final_bsp/\libucosii_bsp.a(tcp_in.o)
                              ../projeto_final_bsp/\libucosii_bsp.a(nptcp.o) (tcp_input)
../projeto_final_bsp/\libucosii_bsp.a(tcp_out.o)
                              ../projeto_final_bsp/\libucosii_bsp.a(tcp_in.o) (tcp_output)
../projeto_final_bsp/\libucosii_bsp.a(tcp_subr.o)
                              ../projeto_final_bsp/\libucosii_bsp.a(nptcp.o) (tcp_init)
../projeto_final_bsp/\libucosii_bsp.a(tcp_timr.o)
                              ../projeto_final_bsp/\libucosii_bsp.a(tcp_in.o) (tcp_keepidle)
../projeto_final_bsp/\libucosii_bsp.a(tcp_usr.o)
                              ../projeto_final_bsp/\libucosii_bsp.a(nptcp.o) (tcp_usrreq)
../projeto_final_bsp/\libucosii_bsp.a(tcpport.o)
                              ../projeto_final_bsp/\libucosii_bsp.a(ipstart.o) (tcpinit)
../projeto_final_bsp/\libucosii_bsp.a(udpsock.o)
                              ../projeto_final_bsp/\libucosii_bsp.a(nptcp.o) (udp_usrreq)
../projeto_final_bsp/\libucosii_bsp.a(alt_alarm_start.o)
                              ../projeto_final_bsp/\libucosii_bsp.a(altera_avalon_jtag_uart_init.o) (alt_alarm_start)
../projeto_final_bsp/\libucosii_bsp.a(alt_busy_sleep.o)
                              ../projeto_final_bsp/\libucosii_bsp.a(alt_usleep.o) (alt_busy_sleep)
../projeto_final_bsp/\libucosii_bsp.a(alt_close.o)
                              ../projeto_final_bsp/\libucosii_bsp.a(alt_iniche_close.o) (alt_close)
../projeto_final_bsp/\libucosii_bsp.a(alt_dcache_flush.o)
                              ../projeto_final_bsp/\libucosii_bsp.a(altera_avalon_cfi_flash.o) (alt_dcache_flush)
../projeto_final_bsp/\libucosii_bsp.a(alt_dev.o)
                              ../projeto_final_bsp/\libucosii_bsp.a(alt_sys_init.o) (alt_dev_list)
../projeto_final_bsp/\libucosii_bsp.a(alt_dev_llist_insert.o)
                              ../projeto_final_bsp/\libucosii_bsp.a(alt_sys_init.o) (alt_dev_llist_insert)
../projeto_final_bsp/\libucosii_bsp.a(alt_do_ctors.o)
                              ../projeto_final_bsp/\libucosii_bsp.a(alt_main.o) (_do_ctors)
../projeto_final_bsp/\libucosii_bsp.a(alt_do_dtors.o)
                              ../projeto_final_bsp/\libucosii_bsp.a(alt_main.o) (_do_dtors)
../projeto_final_bsp/\libucosii_bsp.a(alt_errno.o)
                              ../projeto_final_bsp/\libucosii_bsp.a(alt_fstat.o) (alt_errno)
../projeto_final_bsp/\libucosii_bsp.a(alt_find_dev.o)
                              ../projeto_final_bsp/\libucosii_bsp.a(alt_flash_dev.o) (alt_find_dev)
../projeto_final_bsp/\libucosii_bsp.a(alt_iic.o)
                              ../projeto_final_bsp/\libucosii_bsp.a(altera_avalon_jtag_uart_init.o) (alt_ic_isr_register)
../projeto_final_bsp/\libucosii_bsp.a(alt_iic_isr_register.o)
                              ../projeto_final_bsp/\libucosii_bsp.a(alt_iic.o) (alt_iic_isr_register)
../projeto_final_bsp/\libucosii_bsp.a(alt_io_redirect.o)
                              ../projeto_final_bsp/\libucosii_bsp.a(alt_main.o) (alt_io_redirect)
../projeto_final_bsp/\libucosii_bsp.a(alt_irq_entry.o)
                              ../projeto_final_bsp/\libucosii_bsp.a(alt_irq_register.o) (alt_irq_entry)
../projeto_final_bsp/\libucosii_bsp.a(alt_irq_handler.o)
                              ../projeto_final_bsp/\libucosii_bsp.a(alt_irq_register.o) (alt_irq_handler)
../projeto_final_bsp/\libucosii_bsp.a(alt_open.o)
                              ../projeto_final_bsp/\libucosii_bsp.a(alt_io_redirect.o) (open)
../projeto_final_bsp/\libucosii_bsp.a(alt_read.o)
                              ../projeto_final_bsp/\libucosii_bsp.a(alt_iniche_read.o) (alt_read)
../projeto_final_bsp/\libucosii_bsp.a(alt_release_fd.o)
                              ../projeto_final_bsp/\libucosii_bsp.a(alt_close.o) (alt_release_fd)
../projeto_final_bsp/\libucosii_bsp.a(alt_remap_cached.o)
                              ../projeto_final_bsp/\libucosii_bsp.a(targnios.o) (alt_remap_cached)
../projeto_final_bsp/\libucosii_bsp.a(alt_remap_uncached.o)
                              ../projeto_final_bsp/\libucosii_bsp.a(targnios.o) (alt_remap_uncached)
../projeto_final_bsp/\libucosii_bsp.a(alt_tick.o)
                              ../projeto_final_bsp/\libucosii_bsp.a(alt_usleep.o) (_alt_tick_rate)
../projeto_final_bsp/\libucosii_bsp.a(alt_write.o)
                              ../projeto_final_bsp/\libucosii_bsp.a(alt_iniche_write.o) (alt_write)
../projeto_final_bsp/\libucosii_bsp.a(altera_nios2_qsys_irq.o)
                              ../projeto_final_bsp/\libucosii_bsp.a(alt_sys_init.o) (altera_nios2_qsys_irq_init)
../projeto_final_bsp/\libucosii_bsp.a(os_cpu_a.o)
                              ../projeto_final_bsp/\libucosii_bsp.a(os_core.o) (OSIntCtxSw)
../projeto_final_bsp/\libucosii_bsp.a(os_cpu_c.o)
                              ../projeto_final_bsp/\libucosii_bsp.a(os_task.o) (OSTaskStkInit)
../projeto_final_bsp/\libucosii_bsp.a(altera_avalon_cfi_flash_amd.o)
                              ../projeto_final_bsp/\libucosii_bsp.a(altera_avalon_cfi_flash_table.o) (alt_program_amd)
../projeto_final_bsp/\libucosii_bsp.a(altera_avalon_cfi_flash_intel.o)
                              ../projeto_final_bsp/\libucosii_bsp.a(altera_avalon_cfi_flash_table.o) (alt_program_intel)
../projeto_final_bsp/\libucosii_bsp.a(altera_avalon_spi.o)
                              ../projeto_final_bsp/\libucosii_bsp.a(epcs_commands.o) (alt_avalon_spi_command)
../projeto_final_bsp/\libucosii_bsp.a(allports.o)
                              ../projeto_final_bsp/\libucosii_bsp.a(dhcpclnt.o) (name)
../projeto_final_bsp/\libucosii_bsp.a(timeouts.o)
                              ../projeto_final_bsp/\libucosii_bsp.a(netmain.o) (inet_timer)
../projeto_final_bsp/\libucosii_bsp.a(tk_misc.o)
                              ../projeto_final_bsp/\libucosii_bsp.a(netmain.o) (create_apptasks)
../projeto_final_bsp/\libucosii_bsp.a(alt_iniche_fcntl.o)
                              ../projeto_final_bsp/\libucosii_bsp.a(brdutils.o) (fcntl)
../projeto_final_bsp/\libucosii_bsp.a(et_arp.o)
                              ../projeto_final_bsp/\libucosii_bsp.a(ipstart.o) (etainit)
../projeto_final_bsp/\libucosii_bsp.a(iface.o)
                              ../projeto_final_bsp/\libucosii_bsp.a(ipnet.o) (netlist)
../projeto_final_bsp/\libucosii_bsp.a(ip.o)
                              ../projeto_final_bsp/\libucosii_bsp.a(ipstart.o) (ip_init)
../projeto_final_bsp/\libucosii_bsp.a(ip_reasm.o)
                              ../projeto_final_bsp/\libucosii_bsp.a(timeouts.o) (ire_cticks)
../projeto_final_bsp/\libucosii_bsp.a(ipdemux.o)
                              ../projeto_final_bsp/\libucosii_bsp.a(ipnet.o) (ip_rcv)
../projeto_final_bsp/\libucosii_bsp.a(ipmc.o)
                              ../projeto_final_bsp/\libucosii_bsp.a(ipstart.o) (in_addmulti)
../projeto_final_bsp/\libucosii_bsp.a(ipport.o)
                              ../projeto_final_bsp/\libucosii_bsp.a(targnios.o) (port_prep)
../projeto_final_bsp/\libucosii_bsp.a(ipraw.o)
                              ../projeto_final_bsp/\libucosii_bsp.a(rawsock.o) (ipraw_eps)
../projeto_final_bsp/\libucosii_bsp.a(iproute.o)
                              ../projeto_final_bsp/\libucosii_bsp.a(ip.o) (cachedRoute)
../projeto_final_bsp/\libucosii_bsp.a(udp.o)
                              ../projeto_final_bsp/\libucosii_bsp.a(ipdemux.o) (udpdemux)
../projeto_final_bsp/\libucosii_bsp.a(igmp.o)
                              ../projeto_final_bsp/\libucosii_bsp.a(igmp_cmn.o) (igmpv1_input)
../projeto_final_bsp/\libucosii_bsp.a(igmp2.o)
                              ../projeto_final_bsp/\libucosii_bsp.a(igmp_cmn.o) (igmpv2_input)
../projeto_final_bsp/\libucosii_bsp.a(ipopt.o)
                              ../projeto_final_bsp/\libucosii_bsp.a(socket.o) (ip_setmoptions)
../projeto_final_bsp/\libucosii_bsp.a(dhcsetup.o)
                              ../projeto_final_bsp/\libucosii_bsp.a(allports.o) (dhc_setup)
../projeto_final_bsp/\libucosii_bsp.a(memdev.o)
                              ../projeto_final_bsp/\libucosii_bsp.a(allports.o) (init_memdev)
../projeto_final_bsp/\libucosii_bsp.a(tcpcksum.o)
                              ../projeto_final_bsp/\libucosii_bsp.a(nptcp.o) (tcp_cksum)
../projeto_final_bsp/\libucosii_bsp.a(in_pcb.o)
                              ../projeto_final_bsp/\libucosii_bsp.a(tcp_usr.o) (in_pcballoc)
../projeto_final_bsp/\libucosii_bsp.a(vfsfiles.o)
                              ../projeto_final_bsp/\libucosii_bsp.a(memdev.o) (vfsystems)
../projeto_final_bsp/\libucosii_bsp.a(vfsport.o)
                              ../projeto_final_bsp/\libucosii_bsp.a(allports.o) (prep_vfs)
../projeto_final_bsp/\libucosii_bsp.a(alt_exception_entry.o)
                              ../projeto_final_bsp/\libucosii_bsp.a(alt_irq_entry.o) (alt_exception)
../projeto_final_bsp/\libucosii_bsp.a(alt_fcntl.o)
                              ../projeto_final_bsp/\libucosii_bsp.a(alt_iniche_fcntl.o) (alt_fcntl)
../projeto_final_bsp/\libucosii_bsp.a(alt_find_file.o)
                              ../projeto_final_bsp/\libucosii_bsp.a(alt_open.o) (alt_find_file)
../projeto_final_bsp/\libucosii_bsp.a(alt_get_fd.o)
                              ../projeto_final_bsp/\libucosii_bsp.a(alt_open.o) (alt_get_fd)
../projeto_final_bsp/\libucosii_bsp.a(icmp.o)
                              ../projeto_final_bsp/\libucosii_bsp.a(ipdemux.o) (icmprcv)
d:/altera/13.0sp1/nios2eds/bin/gnu/h-i686-mingw32/bin/../lib/gcc/nios2-elf/4.1.2/../../../../nios2-elf/lib\libc.a(lib_a-atexit.o)
                              ../projeto_final_bsp/\libucosii_bsp.a(alt_main.o) (atexit)
d:/altera/13.0sp1/nios2eds/bin/gnu/h-i686-mingw32/bin/../lib/gcc/nios2-elf/4.1.2/../../../../nios2-elf/lib\libc.a(lib_a-calloc.o)
                              ../projeto_final_bsp/\libucosii_bsp.a(targnios.o) (calloc)
d:/altera/13.0sp1/nios2eds/bin/gnu/h-i686-mingw32/bin/../lib/gcc/nios2-elf/4.1.2/../../../../nios2-elf/lib\libc.a(lib_a-malloc.o)
                              ../projeto_final_bsp/\libucosii_bsp.a(targnios.o) (free)
d:/altera/13.0sp1/nios2eds/bin/gnu/h-i686-mingw32/bin/../lib/gcc/nios2-elf/4.1.2/../../../../nios2-elf/lib\libc.a(lib_a-memcmp.o)
                              ../projeto_final_bsp/\libucosii_bsp.a(altera_avalon_cfi_flash.o) (memcmp)
d:/altera/13.0sp1/nios2eds/bin/gnu/h-i686-mingw32/bin/../lib/gcc/nios2-elf/4.1.2/../../../../nios2-elf/lib\libc.a(lib_a-strcpy.o)
                              ../projeto_final_bsp/\libucosii_bsp.a(parseip.o) (strcpy)
d:/altera/13.0sp1/nios2eds/bin/gnu/h-i686-mingw32/bin/../lib/gcc/nios2-elf/4.1.2/../../../../nios2-elf/lib\libc.a(lib_a-strncmp.o)
                              ../projeto_final_bsp/\libucosii_bsp.a(vfsfiles.o) (strncmp)
d:/altera/13.0sp1/nios2eds/bin/gnu/h-i686-mingw32/bin/../lib/gcc/nios2-elf/4.1.2/../../../../nios2-elf/lib\libc.a(lib_a-strncpy.o)
                              ../projeto_final_bsp/\libucosii_bsp.a(dhcpclnt.o) (strncpy)
d:/altera/13.0sp1/nios2eds/bin/gnu/h-i686-mingw32/bin/../lib/gcc/nios2-elf/4.1.2/../../../../nios2-elf/lib\libc.a(lib_a-vprintf.o)
                              ../projeto_final_bsp/\libucosii_bsp.a(in_utils.o) (vprintf)
d:/altera/13.0sp1/nios2eds/bin/gnu/h-i686-mingw32/bin/../lib/gcc/nios2-elf/4.1.2/../../../../nios2-elf/lib\libc.a(lib_a-vsprintf.o)
                              ../projeto_final_bsp/\libucosii_bsp.a(in_utils.o) (vsprintf)
d:/altera/13.0sp1/nios2eds/bin/gnu/h-i686-mingw32/bin/../lib/gcc/nios2-elf/4.1.2/../../../../nios2-elf/lib\libc.a(lib_a-__atexit.o)
                              d:/altera/13.0sp1/nios2eds/bin/gnu/h-i686-mingw32/bin/../lib/gcc/nios2-elf/4.1.2/../../../../nios2-elf/lib\libc.a(lib_a-atexit.o) (__register_exitproc)

Allocating common symbols
Common symbol       size              file

soq                 0x14              ../projeto_final_bsp/\libucosii_bsp.a(nptcp.o)
alt_irq             0x100             ../projeto_final_bsp/\libucosii_bsp.a(alt_irq_handler.o)
tcp_optionbuf       0x4               ../projeto_final_bsp/\libucosii_bsp.a(tcp_out.o)
last_flash_sector_offset
                    0x4               obj/default/SSS_DE2_115.o
rt_mib              0x4               ../projeto_final_bsp/\libucosii_bsp.a(ip.o)
so_evtmap_create    0x4               ../projeto_final_bsp/\libucosii_bsp.a(ipport.o)
SSSLEDCommandQ      0x4               obj/default/simple_socket_server.o
OSLockNesting       0x1               ../projeto_final_bsp/\libucosii_bsp.a(os_core.o)
tcb                 0x2c              ../projeto_final_bsp/\libucosii_bsp.a(tcp_subr.o)
OSRunning           0x1               ../projeto_final_bsp/\libucosii_bsp.a(os_core.o)
dhc_states          0xf0              ../projeto_final_bsp/\libucosii_bsp.a(dhcpclnt.o)
tcpstat             0xe0              ../projeto_final_bsp/\libucosii_bsp.a(tcp_subr.o)
OSIdleCtr           0x4               ../projeto_final_bsp/\libucosii_bsp.a(os_core.o)
SSSLEDLightshowSem  0x4               obj/default/simple_socket_server.o
udp_mib             0x10              ../projeto_final_bsp/\libucosii_bsp.a(udp.o)
to_netmain          0x1               ../projeto_final_bsp/\libucosii_bsp.a(netmain.o)
OSPrioHighRdy       0x1               ../projeto_final_bsp/\libucosii_bsp.a(os_core.o)
errno               0x4               d:/altera/13.0sp1/nios2eds/bin/gnu/h-i686-mingw32/bin/../lib/gcc/nios2-elf/4.1.2/../../../../nios2-elf/lib\libc.a(lib_a-int_errno.o)
lilfreeq            0x14              ../projeto_final_bsp/\libucosii_bsp.a(pktalloc.o)
icmp_mib            0x68              ../projeto_final_bsp/\libucosii_bsp.a(icmp.o)
resid_semaphore     0x40              ../projeto_final_bsp/\libucosii_bsp.a(targnios.o)
alt_heapsem         0x4               ../projeto_final_bsp/\libucosii_bsp.a(alt_malloc_lock.o)
OSFlagTbl           0x370             ../projeto_final_bsp/\libucosii_bsp.a(os_core.o)
mbstat              0x8               ../projeto_final_bsp/\libucosii_bsp.a(nptcp.o)
netq_intmask        0x4               ../projeto_final_bsp/\libucosii_bsp.a(osportco.o)
select_wait         0x2               ../projeto_final_bsp/\libucosii_bsp.a(nptcp.o)
tcpmib              0x3c              ../projeto_final_bsp/\libucosii_bsp.a(nptcp.o)
OSPrioCur           0x1               ../projeto_final_bsp/\libucosii_bsp.a(os_core.o)
mheap_sem_ptr       0x4               ../projeto_final_bsp/\libucosii_bsp.a(targnios.o)
netlist             0x14              ../projeto_final_bsp/\libucosii_bsp.a(iface.o)
mbufq               0x14              ../projeto_final_bsp/\libucosii_bsp.a(nptcp.o)
OSTCBList           0x4               ../projeto_final_bsp/\libucosii_bsp.a(os_core.o)
alt_fd_list_lock    0x4               ../projeto_final_bsp/\libucosii_bsp.a(alt_dev.o)
OSMemTbl            0xc30             ../projeto_final_bsp/\libucosii_bsp.a(os_core.o)
OSTickStepState     0x1               ../projeto_final_bsp/\libucosii_bsp.a(os_core.o)
OSTaskStatStk       0x800             ../projeto_final_bsp/\libucosii_bsp.a(os_core.o)
OSCtxSwCtr          0x4               ../projeto_final_bsp/\libucosii_bsp.a(os_core.o)
igmpstats           0x64              ../projeto_final_bsp/\libucosii_bsp.a(igmp_cmn.o)
ire_stats           0x18              ../projeto_final_bsp/\libucosii_bsp.a(ip_reasm.o)
old_mode            0x4               ../projeto_final_bsp/\libucosii_bsp.a(osportco.o)
vfs_dir_stale       0x4               ../projeto_final_bsp/\libucosii_bsp.a(vfsfiles.o)
cticks_factor       0x4               ../projeto_final_bsp/\libucosii_bsp.a(brdutils.o)
g_dm9ka             0x44              obj/default/dm9000a.o
OSIdleCtrMax        0x4               ../projeto_final_bsp/\libucosii_bsp.a(os_core.o)
memestats           0x10              ../projeto_final_bsp/\libucosii_bsp.a(pktalloc.o)
intimers            0x64              ../projeto_final_bsp/\libucosii_bsp.a(timeouts.o)
OSTCBFreeList       0x4               ../projeto_final_bsp/\libucosii_bsp.a(os_core.o)
global_TCPwakeup_setIndx
                    0x4               ../projeto_final_bsp/\libucosii_bsp.a(osportco.o)
SSSInitialTaskStk   0x2000            obj/default/iniche_init.o
rcvdq               0x14              ../projeto_final_bsp/\libucosii_bsp.a(ipnet.o)
global_tcb_ext      0xfc              ../projeto_final_bsp/\libucosii_bsp.a(osportco.o)
netstatic           0x300             ../projeto_final_bsp/\libucosii_bsp.a(ipstart.o)
tcp_maxidle         0x4               ../projeto_final_bsp/\libucosii_bsp.a(tcp_timr.o)
LED7SegLightshowTaskStk
                    0x2000            obj/default/simple_socket_server.o
OSCPUUsage          0x1               ../projeto_final_bsp/\libucosii_bsp.a(os_core.o)
nets                0x10              ../projeto_final_bsp/\libucosii_bsp.a(ipstart.o)
pktlog              0xf0              ../projeto_final_bsp/\libucosii_bsp.a(pktalloc.o)
OSTaskCtr           0x1               ../projeto_final_bsp/\libucosii_bsp.a(os_core.o)
SSSLEDEventFlag     0x4               obj/default/simple_socket_server.o
OSMemFreeList       0x4               ../projeto_final_bsp/\libucosii_bsp.a(os_core.o)
vfs_open_files      0x4               ../projeto_final_bsp/\libucosii_bsp.a(vfsfiles.o)
cticks              0x4               ../projeto_final_bsp/\libucosii_bsp.a(osportco.o)
to_nettick          0x1               ../projeto_final_bsp/\libucosii_bsp.a(netmain.o)
last_flash_sector   0x4               obj/default/SSS_DE2_115.o
OSQTbl              0x1e0             ../projeto_final_bsp/\libucosii_bsp.a(os_core.o)
OSTCBHighRdy        0x4               ../projeto_final_bsp/\libucosii_bsp.a(os_core.o)
OSQFreeList         0x4               ../projeto_final_bsp/\libucosii_bsp.a(os_core.o)
OSRdyGrp            0x1               ../projeto_final_bsp/\libucosii_bsp.a(os_core.o)
ip_mib              0x50              ../projeto_final_bsp/\libucosii_bsp.a(ip.o)
SSSLEDCommandQTbl   0x78              obj/default/simple_socket_server.o
OS_TPS              0x4               ../projeto_final_bsp/\libucosii_bsp.a(brdutils.o)
_atexit0            0x190             d:/altera/13.0sp1/nios2eds/bin/gnu/h-i686-mingw32/bin/../lib/gcc/nios2-elf/4.1.2/../../../../nios2-elf/lib\libc.a(lib_a-atexit.o)
OSRdyTbl            0x3               ../projeto_final_bsp/\libucosii_bsp.a(os_core.o)
igmp_all_hosts_group
                    0x4               ../projeto_final_bsp/\libucosii_bsp.a(igmp_cmn.o)
eth_prt_buf         0x12              ../projeto_final_bsp/\libucosii_bsp.a(in_utils.o)
app_semaphore       0x18              ../projeto_final_bsp/\libucosii_bsp.a(targnios.o)
LEDManagementTaskStk
                    0x2000            obj/default/simple_socket_server.o
rcvdq_sem_ptr       0x4               ../projeto_final_bsp/\libucosii_bsp.a(targnios.o)
OSEventFreeList     0x4               ../projeto_final_bsp/\libucosii_bsp.a(os_core.o)
mfreeq              0x14              ../projeto_final_bsp/\libucosii_bsp.a(nptcp.o)
to_ssstask          0x1               obj/default/iniche_init.o
global_TCPwakeup_set
                    0xf0              ../projeto_final_bsp/\libucosii_bsp.a(osportco.o)
bigfreeq            0x14              ../projeto_final_bsp/\libucosii_bsp.a(pktalloc.o)
so_evtmap_delete    0x4               ../projeto_final_bsp/\libucosii_bsp.a(ipport.o)
tcp_saveti          0x28              ../projeto_final_bsp/\libucosii_bsp.a(tcp_in.o)
OSIntNesting        0x1               ../projeto_final_bsp/\libucosii_bsp.a(os_core.o)
so_evtmap           0x1               ../projeto_final_bsp/\libucosii_bsp.a(ipport.o)
OSTCBCur            0x4               ../projeto_final_bsp/\libucosii_bsp.a(os_core.o)
arp_table           0x100             ../projeto_final_bsp/\libucosii_bsp.a(et_arp.o)
tcp_iss             0x4               ../projeto_final_bsp/\libucosii_bsp.a(tcp_timr.o)
vfs_total_rw_space  0x4               ../projeto_final_bsp/\libucosii_bsp.a(vfsfiles.o)
OSTime              0x4               ../projeto_final_bsp/\libucosii_bsp.a(os_core.o)
OSTaskIdleStk       0x800             ../projeto_final_bsp/\libucosii_bsp.a(os_core.o)
OSEventTbl          0xb40             ../projeto_final_bsp/\libucosii_bsp.a(os_core.o)
vfs_total_dyna_files
                    0x4               ../projeto_final_bsp/\libucosii_bsp.a(vfsfiles.o)
OSTCBTbl            0x510             ../projeto_final_bsp/\libucosii_bsp.a(os_core.o)
ipreturn            0x12              ../projeto_final_bsp/\libucosii_bsp.a(in_utils.o)
OSFlagFreeList      0x4               ../projeto_final_bsp/\libucosii_bsp.a(os_core.o)
dropline            0x4               ../projeto_final_bsp/\libucosii_bsp.a(tcp_in.o)
OSStatRdy           0x1               ../projeto_final_bsp/\libucosii_bsp.a(os_core.o)
OSTCBPrioTbl        0x54              ../projeto_final_bsp/\libucosii_bsp.a(os_core.o)
igmp_all_rtrs_group
                    0x4               ../projeto_final_bsp/\libucosii_bsp.a(igmp_cmn.o)
alt_envsem          0x4               ../projeto_final_bsp/\libucosii_bsp.a(alt_env_lock.o)
OSIdleCtrRun        0x4               ../projeto_final_bsp/\libucosii_bsp.a(os_core.o)

Memory Configuration

Name             Origin             Length             Attributes
sdram_0_BEFORE_EXCEPTION 0x00800000         0x00000020
sdram_0          0x00800020         0x007fffe0
reset            0x01400000         0x00000020
cfi_flash_0      0x01400020         0x003fffe0
sram_0           0x01a00000         0x00080000
epcs_controller  0x01a81800         0x00000800
*default*        0x00000000         0xffffffff

Linker script and memory map

LOAD ../projeto_final_bsp//obj/HAL/src/crt0.o
LOAD obj/default/LCD.o
LOAD obj/default/SSS_DE2_115.o
LOAD obj/default/alt_error_handler.o
LOAD obj/default/dm9000a.o
LOAD obj/default/iniche_init.o
LOAD obj/default/led.o
LOAD obj/default/network_utilities.o
LOAD obj/default/simple_socket_server.o
LOAD obj/default/tse_my_system.o
LOAD d:/altera/13.0sp1/nios2eds/bin/gnu/h-i686-mingw32/bin/../lib/gcc/nios2-elf/4.1.2/../../../../nios2-elf/lib\libstdc++.a
LOAD d:/altera/13.0sp1/nios2eds/bin/gnu/h-i686-mingw32/bin/../lib/gcc/nios2-elf/4.1.2/../../../../nios2-elf/lib\libm.a
LOAD d:/altera/13.0sp1/nios2eds/bin/gnu/h-i686-mingw32/bin/../lib/gcc/nios2-elf/4.1.2\libgcc.a
START GROUP
LOAD d:/altera/13.0sp1/nios2eds/bin/gnu/h-i686-mingw32/bin/../lib/gcc/nios2-elf/4.1.2/../../../../nios2-elf/lib\libc.a
LOAD d:/altera/13.0sp1/nios2eds/bin/gnu/h-i686-mingw32/bin/../lib/gcc/nios2-elf/4.1.2\libgcc.a
LOAD ../projeto_final_bsp/\libucosii_bsp.a
END GROUP
LOAD d:/altera/13.0sp1/nios2eds/bin/gnu/h-i686-mingw32/bin/../lib/gcc/nios2-elf/4.1.2\libgcc.a
                0x00800000                __alt_mem_sdram_0 = 0x800000
                0x01400000                __alt_mem_cfi_flash_0 = 0x1400000
                0x01a00000                __alt_mem_sram_0 = 0x1a00000
                0x01a81800                __alt_mem_epcs_controller = 0x1a81800

.entry          0x01400000        0x0
 *(.entry)
 .entry         0x01400000        0x0 ../projeto_final_bsp//obj/HAL/src/crt0.o
                0x01400000                __reset

.exceptions     0x00800020      0x19c
                0x00800020                PROVIDE (__ram_exceptions_start, ABSOLUTE (.))
                0x00800020                . = ALIGN (0x20)
 *(.irq)
 *(.exceptions.entry.label)
 .exceptions.entry.label
                0x00800020        0x0 ../projeto_final_bsp/\libucosii_bsp.a(alt_irq_entry.o)
                0x00800020                alt_irq_entry
 .exceptions.entry.label
                0x00800020        0x0 ../projeto_final_bsp/\libucosii_bsp.a(alt_exception_entry.o)
                0x00800020                alt_exception
 *(.exceptions.entry.user)
 *(.exceptions.entry)
 .exceptions.entry
                0x00800020       0x54 ../projeto_final_bsp/\libucosii_bsp.a(alt_exception_entry.o)
 *(.exceptions.irqtest.user)
 *(.exceptions.irqtest)
 .exceptions.irqtest
                0x00800074       0x10 ../projeto_final_bsp/\libucosii_bsp.a(alt_irq_entry.o)
 *(.exceptions.irqhandler.user)
 *(.exceptions.irqhandler)
 .exceptions.irqhandler
                0x00800084        0x4 ../projeto_final_bsp/\libucosii_bsp.a(alt_irq_entry.o)
 *(.exceptions.irqreturn.user)
 *(.exceptions.irqreturn)
 .exceptions.irqreturn
                0x00800088        0x4 ../projeto_final_bsp/\libucosii_bsp.a(alt_irq_entry.o)
 *(.exceptions.notirq.label)
 .exceptions.notirq.label
                0x0080008c        0x0 ../projeto_final_bsp/\libucosii_bsp.a(alt_irq_entry.o)
 *(.exceptions.notirq.user)
 *(.exceptions.notirq)
 .exceptions.notirq
                0x0080008c        0x8 ../projeto_final_bsp/\libucosii_bsp.a(alt_exception_entry.o)
 *(.exceptions.soft.user)
 *(.exceptions.soft)
 *(.exceptions.unknown.user)
 *(.exceptions.unknown)
 .exceptions.unknown
                0x00800094        0x4 ../projeto_final_bsp/\libucosii_bsp.a(alt_exception_entry.o)
 *(.exceptions.exit.label)
 .exceptions.exit.label
                0x00800098        0x0 ../projeto_final_bsp/\libucosii_bsp.a(alt_irq_entry.o)
 .exceptions.exit.label
                0x00800098        0x0 ../projeto_final_bsp/\libucosii_bsp.a(alt_exception_entry.o)
 *(.exceptions.exit.user)
 *(.exceptions.exit)
 .exceptions.exit
                0x00800098       0x54 ../projeto_final_bsp/\libucosii_bsp.a(alt_exception_entry.o)
 *(.exceptions)
 .exceptions    0x008000ec       0xd0 ../projeto_final_bsp/\libucosii_bsp.a(alt_irq_handler.o)
                0x008000ec                alt_irq_handler
                0x008001bc                PROVIDE (__ram_exceptions_end, ABSOLUTE (.))
                0x00800020                PROVIDE (__flash_exceptions_start, LOADADDR (.exceptions))

.text           0x008001bc    0x4728c
                0x008001bc                PROVIDE (stext, ABSOLUTE (.))
 *(.interp)
 *(.hash)
 *(.dynsym)
 *(.dynstr)
 *(.gnu.version)
 *(.gnu.version_d)
 *(.gnu.version_r)
 *(.rel.init)
 *(.rela.init)
 *(.rel.text .rel.text.* .rel.gnu.linkonce.t.*)
 *(.rela.text .rela.text.* .rela.gnu.linkonce.t.*)
 *(.rel.fini)
 *(.rela.fini)
 *(.rel.rodata .rel.rodata.* .rel.gnu.linkonce.r.*)
 *(.rela.rodata .rela.rodata.* .rela.gnu.linkonce.r.*)
 *(.rel.data .rel.data.* .rel.gnu.linkonce.d.*)
 *(.rela.data .rela.data.* .rela.gnu.linkonce.d.*)
 *(.rel.tdata .rel.tdata.* .rel.gnu.linkonce.td.*)
 *(.rela.tdata .rela.tdata.* .rela.gnu.linkonce.td.*)
 *(.rel.tbss .rel.tbss.* .rel.gnu.linkonce.tb.*)
 *(.rela.tbss .rela.tbss.* .rela.gnu.linkonce.tb.*)
 *(.rel.ctors)
 *(.rela.ctors)
 *(.rel.dtors)
 *(.rela.dtors)
 *(.rel.got)
 *(.rela.got)
 *(.rel.sdata .rel.sdata.* .rel.gnu.linkonce.s.*)
 *(.rela.sdata .rela.sdata.* .rela.gnu.linkonce.s.*)
 *(.rel.sbss .rel.sbss.* .rel.gnu.linkonce.sb.*)
 *(.rela.sbss .rela.sbss.* .rela.gnu.linkonce.sb.*)
 *(.rel.sdata2 .rel.sdata2.* .rel.gnu.linkonce.s2.*)
 *(.rela.sdata2 .rela.sdata2.* .rela.gnu.linkonce.s2.*)
 *(.rel.sbss2 .rel.sbss2.* .rel.gnu.linkonce.sb2.*)
 *(.rela.sbss2 .rela.sbss2.* .rela.gnu.linkonce.sb2.*)
 *(.rel.bss .rel.bss.* .rel.gnu.linkonce.b.*)
 *(.rela.bss .rela.bss.* .rela.gnu.linkonce.b.*)
 *(.rel.plt)
 *(.rela.plt)
 *(.rel.dyn)
 *(.init)
 *(.plt)
 *(.text .stub .text.* .gnu.linkonce.t.*)
 .text          0x008001bc       0x48 ../projeto_final_bsp//obj/HAL/src/crt0.o
                0x008001bc                _start
 .text          0x00800204      0x31c obj/default/LCD.o
                0x00800204                LCD_Init
                0x008002a0                LCD_Show_Text
                0x00800328                LCD_Line2
                0x00800364                LCD_Line1
                0x008003a0                LCD_Clear
                0x008003dc                LCD_Test
 .text          0x00800520      0x2ec obj/default/SSS_DE2_115.o
                0x00800520                get_DE2_115_mac_addr
                0x008006c8                FindLastFlashSectorOffset
 .text          0x0080080c      0xba8 obj/default/alt_error_handler.o
                0x0080080c                alt_uCOSIIErrorHandler
                0x00800e30                alt_NetworkErrorHandler
                0x008010c8                alt_SSSErrorHandler
 .text          0x008013b4      0xe48 obj/default/dm9000a.o
                0x008013b4                dm9000a_iow
                0x00801408                dm9000a_ior
                0x00801454                phy_write
                0x008014f0                dm9000a_reset
                0x008016b4                TransmitPacket
                0x008017d0                prep_dm9000a
                0x008019ec                dm9000a_init
                0x00801e3c                dm9Ka_isr_wrap
                0x00801e7c                dm9ka_init
                0x00801f74                dm9ka_close
                0x00802084                dm9ka_stats
                0x008020e0                dm9ka_pkt_send
 .text          0x008021fc      0xe20 obj/default/iniche_init.o
                0x008021fc                u_mctest_init
                0x0080222c                u_mctest_run
                0x008028e4                SSSInitialTask
                0x00802f20                main
 .text          0x0080301c      0x324 obj/default/led.o
                0x0080301c                led_bit_toggle
                0x008030e8                LED7SegLightshowTask
                0x0080315c                LEDManagementTask
 .text          0x00803340      0x73c obj/default/network_utilities.o
                0x00803340                get_mac_addr
                0x00803398                get_ip_addr
                0x00803404                get_serial_number
                0x008035e0                generate_and_store_mac_addr
                0x008037ac                generate_mac_addr
                0x008038e8                get_board_mac_addr
 .text          0x00803a7c      0x9f8 obj/default/simple_socket_server.o
                0x00803a7c                SSSCreateOSDataStructs
                0x00803b24                SSSCreateTasks
                0x00803be8                sss_reset_connection
                0x00803c58                sss_send_menu
                0x00803de8                sss_handle_accept
                0x00803ea8                sss_exec_command
                0x0080401c                sss_handle_receive
                0x00804208                SSSSimpleSocketServerTask
 .text          0x00804474        0x0 obj/default/tse_my_system.o
 .text          0x00804474       0xa4 d:/altera/13.0sp1/nios2eds/bin/gnu/h-i686-mingw32/bin/../lib/gcc/nios2-elf/4.1.2\libgcc.a(_fixunsdfsi.o)
                0x00804474                __fixunsdfsi
 .text          0x00804518      0x504 d:/altera/13.0sp1/nios2eds/bin/gnu/h-i686-mingw32/bin/../lib/gcc/nios2-elf/4.1.2\libgcc.a(_addsub_df.o)
                0x00804928                __subdf3
                0x008049a8                __adddf3
 .text          0x00804a1c      0x3c4 d:/altera/13.0sp1/nios2eds/bin/gnu/h-i686-mingw32/bin/../lib/gcc/nios2-elf/4.1.2\libgcc.a(_mul_df.o)
                0x00804a1c                __muldf3
 .text          0x00804de0       0x88 d:/altera/13.0sp1/nios2eds/bin/gnu/h-i686-mingw32/bin/../lib/gcc/nios2-elf/4.1.2\libgcc.a(_ge_df.o)
                0x00804de0                __gedf2
 .text          0x00804e68       0xd8 d:/altera/13.0sp1/nios2eds/bin/gnu/h-i686-mingw32/bin/../lib/gcc/nios2-elf/4.1.2\libgcc.a(_df_to_si.o)
                0x00804e68                __fixdfsi
 .text          0x00804f40        0x0 d:/altera/13.0sp1/nios2eds/bin/gnu/h-i686-mingw32/bin/../lib/gcc/nios2-elf/4.1.2\libgcc.a(_thenan_df.o)
 .text          0x00804f40      0x194 d:/altera/13.0sp1/nios2eds/bin/gnu/h-i686-mingw32/bin/../lib/gcc/nios2-elf/4.1.2\libgcc.a(_usi_to_df.o)
                0x00804f40                __floatunsidf
 .text          0x008050d4       0x98 d:/altera/13.0sp1/nios2eds/bin/gnu/h-i686-mingw32/bin/../lib/gcc/nios2-elf/4.1.2\libgcc.a(_muldi3.o)
                0x008050d4                __muldi3
 .text          0x0080516c       0x80 d:/altera/13.0sp1/nios2eds/bin/gnu/h-i686-mingw32/bin/../lib/gcc/nios2-elf/4.1.2\libgcc.a(_clzsi2.o)
                0x0080516c                __clzsi2
 .text          0x008051ec      0x314 d:/altera/13.0sp1/nios2eds/bin/gnu/h-i686-mingw32/bin/../lib/gcc/nios2-elf/4.1.2\libgcc.a(_pack_df.o)
                0x008051ec                __pack_d
 .text          0x00805500      0x138 d:/altera/13.0sp1/nios2eds/bin/gnu/h-i686-mingw32/bin/../lib/gcc/nios2-elf/4.1.2\libgcc.a(_unpack_df.o)
                0x00805500                __unpack_d
 .text          0x00805638       0xc8 d:/altera/13.0sp1/nios2eds/bin/gnu/h-i686-mingw32/bin/../lib/gcc/nios2-elf/4.1.2\libgcc.a(_fpcmp_parts_df.o)
                0x00805638                __fpcmp_parts_d
 .text          0x00805700        0x0 d:/altera/13.0sp1/nios2eds/bin/gnu/h-i686-mingw32/bin/../lib/gcc/nios2-elf/4.1.2\libgcc.a(_clz.o)
 .text          0x00805700       0x18 d:/altera/13.0sp1/nios2eds/bin/gnu/h-i686-mingw32/bin/../lib/gcc/nios2-elf/4.1.2/../../../../nios2-elf/lib\libc.a(lib_a-atoi.o)
                0x00805700                _atoi_r
                0x0080570c                atoi
 .text          0x00805718        0x0 d:/altera/13.0sp1/nios2eds/bin/gnu/h-i686-mingw32/bin/../lib/gcc/nios2-elf/4.1.2/../../../../nios2-elf/lib\libc.a(lib_a-ctype_.o)
 .text          0x00805718       0x10 d:/altera/13.0sp1/nios2eds/bin/gnu/h-i686-mingw32/bin/../lib/gcc/nios2-elf/4.1.2/../../../../nios2-elf/lib\libc.a(lib_a-errno.o)
                0x00805718                __errno
 .text          0x00805728       0x38 d:/altera/13.0sp1/nios2eds/bin/gnu/h-i686-mingw32/bin/../lib/gcc/nios2-elf/4.1.2/../../../../nios2-elf/lib\libc.a(lib_a-exit.o)
                0x00805728                exit
 .text          0x00805760       0x60 d:/altera/13.0sp1/nios2eds/bin/gnu/h-i686-mingw32/bin/../lib/gcc/nios2-elf/4.1.2/../../../../nios2-elf/lib\libc.a(lib_a-fprintf.o)
                0x00805760                fprintf
                0x0080578c                _fprintf_r
 .text          0x008057c0       0xdc d:/altera/13.0sp1/nios2eds/bin/gnu/h-i686-mingw32/bin/../lib/gcc/nios2-elf/4.1.2/../../../../nios2-elf/lib\libc.a(lib_a-fwrite.o)
                0x008057c0                _fwrite_r
                0x0080585c                fwrite
 .text          0x0080589c      0x128 d:/altera/13.0sp1/nios2eds/bin/gnu/h-i686-mingw32/bin/../lib/gcc/nios2-elf/4.1.2/../../../../nios2-elf/lib\libc.a(lib_a-getc.o)
                0x0080589c                getc
                0x00805934                _getc_r
 .text          0x008059c4        0x0 d:/altera/13.0sp1/nios2eds/bin/gnu/h-i686-mingw32/bin/../lib/gcc/nios2-elf/4.1.2/../../../../nios2-elf/lib\libc.a(lib_a-impure.o)
 .text          0x008059c4       0xa0 d:/altera/13.0sp1/nios2eds/bin/gnu/h-i686-mingw32/bin/../lib/gcc/nios2-elf/4.1.2/../../../../nios2-elf/lib\libc.a(lib_a-memcpy.o)
                0x008059c4                memcpy
 .text          0x00805a64       0xe0 d:/altera/13.0sp1/nios2eds/bin/gnu/h-i686-mingw32/bin/../lib/gcc/nios2-elf/4.1.2/../../../../nios2-elf/lib\libc.a(lib_a-memmove.o)
                0x00805a64                memmove
 .text          0x00805b44       0x98 d:/altera/13.0sp1/nios2eds/bin/gnu/h-i686-mingw32/bin/../lib/gcc/nios2-elf/4.1.2/../../../../nios2-elf/lib\libc.a(lib_a-memset.o)
                0x00805b44                memset
 .text          0x00805bdc       0x80 d:/altera/13.0sp1/nios2eds/bin/gnu/h-i686-mingw32/bin/../lib/gcc/nios2-elf/4.1.2/../../../../nios2-elf/lib\libc.a(lib_a-perror.o)
                0x00805bdc                _perror_r
                0x00805c48                perror
 .text          0x00805c5c       0x78 d:/altera/13.0sp1/nios2eds/bin/gnu/h-i686-mingw32/bin/../lib/gcc/nios2-elf/4.1.2/../../../../nios2-elf/lib\libc.a(lib_a-printf.o)
                0x00805c5c                printf
                0x00805ca0                _printf_r
 .text          0x00805cd4      0x1ec d:/altera/13.0sp1/nios2eds/bin/gnu/h-i686-mingw32/bin/../lib/gcc/nios2-elf/4.1.2/../../../../nios2-elf/lib\libc.a(lib_a-putc.o)
                0x00805cd4                putc
                0x00805dd8                _putc_r
 .text          0x00805ec0       0x24 d:/altera/13.0sp1/nios2eds/bin/gnu/h-i686-mingw32/bin/../lib/gcc/nios2-elf/4.1.2/../../../../nios2-elf/lib\libc.a(lib_a-putchar.o)
                0x00805ec0                putchar
                0x00805edc                _putchar_r
 .text          0x00805ee4       0xb4 d:/altera/13.0sp1/nios2eds/bin/gnu/h-i686-mingw32/bin/../lib/gcc/nios2-elf/4.1.2/../../../../nios2-elf/lib\libc.a(lib_a-puts.o)
                0x00805ee4                _puts_r
                0x00805f84                puts
 .text          0x00805f98       0x60 d:/altera/13.0sp1/nios2eds/bin/gnu/h-i686-mingw32/bin/../lib/gcc/nios2-elf/4.1.2/../../../../nios2-elf/lib\libc.a(lib_a-rget.o)
                0x00805f98                __srget_r
                0x00805fe4                __srget
 .text          0x00805ff8      0x170 d:/altera/13.0sp1/nios2eds/bin/gnu/h-i686-mingw32/bin/../lib/gcc/nios2-elf/4.1.2/../../../../nios2-elf/lib\libc.a(lib_a-snprintf.o)
                0x00805ff8                snprintf
                0x008060b4                _snprintf_r
 .text          0x00806168       0xd4 d:/altera/13.0sp1/nios2eds/bin/gnu/h-i686-mingw32/bin/../lib/gcc/nios2-elf/4.1.2/../../../../nios2-elf/lib\libc.a(lib_a-sprintf.o)
                0x00806168                sprintf
                0x008061dc                _sprintf_r
 .text          0x0080623c       0xe0 d:/altera/13.0sp1/nios2eds/bin/gnu/h-i686-mingw32/bin/../lib/gcc/nios2-elf/4.1.2/../../../../nios2-elf/lib\libc.a(lib_a-strchr.o)
                0x0080623c                strchr
 .text          0x0080631c       0xbc d:/altera/13.0sp1/nios2eds/bin/gnu/h-i686-mingw32/bin/../lib/gcc/nios2-elf/4.1.2/../../../../nios2-elf/lib\libc.a(lib_a-strcmp.o)
                0x0080631c                strcmp
 .text          0x008063d8      0x674 d:/altera/13.0sp1/nios2eds/bin/gnu/h-i686-mingw32/bin/../lib/gcc/nios2-elf/4.1.2/../../../../nios2-elf/lib\libc.a(lib_a-strerror.o)
                0x008063d8                strerror
 .text          0x00806a4c       0x74 d:/altera/13.0sp1/nios2eds/bin/gnu/h-i686-mingw32/bin/../lib/gcc/nios2-elf/4.1.2/../../../../nios2-elf/lib\libc.a(lib_a-strlen.o)
                0x00806a4c                strlen
 .text          0x00806ac0       0x18 d:/altera/13.0sp1/nios2eds/bin/gnu/h-i686-mingw32/bin/../lib/gcc/nios2-elf/4.1.2/../../../../nios2-elf/lib\libc.a(lib_a-strtok.o)
                0x00806ac0                strtok
 .text          0x00806ad8       0xac d:/altera/13.0sp1/nios2eds/bin/gnu/h-i686-mingw32/bin/../lib/gcc/nios2-elf/4.1.2/../../../../nios2-elf/lib\libc.a(lib_a-strtok_r.o)
                0x00806ad8                __strtok_r
                0x00806b7c                strtok_r
 .text          0x00806b84      0x268 d:/altera/13.0sp1/nios2eds/bin/gnu/h-i686-mingw32/bin/../lib/gcc/nios2-elf/4.1.2/../../../../nios2-elf/lib\libc.a(lib_a-strtol.o)
                0x00806b84                _strtol_r
                0x00806dc8                strtol
 .text          0x00806dec        0x8 d:/altera/13.0sp1/nios2eds/bin/gnu/h-i686-mingw32/bin/../lib/gcc/nios2-elf/4.1.2/../../../../nios2-elf/lib\libc.a(lib_a-u_strerr.o)
                0x00806dec                _user_strerror
 .text          0x00806df4     0x1f28 d:/altera/13.0sp1/nios2eds/bin/gnu/h-i686-mingw32/bin/../lib/gcc/nios2-elf/4.1.2/../../../../nios2-elf/lib\libc.a(lib_a-vfprintf.o)
                0x00806e4c                ___vfprintf_internal_r
                0x00808cf8                __vfprintf_internal
 .text          0x00808d1c      0x14c d:/altera/13.0sp1/nios2eds/bin/gnu/h-i686-mingw32/bin/../lib/gcc/nios2-elf/4.1.2/../../../../nios2-elf/lib\libc.a(lib_a-wbuf.o)
                0x00808d1c                __swbuf_r
                0x00808e4c                __swbuf
 .text          0x00808e68      0x13c d:/altera/13.0sp1/nios2eds/bin/gnu/h-i686-mingw32/bin/../lib/gcc/nios2-elf/4.1.2/../../../../nios2-elf/lib\libc.a(lib_a-wsetup.o)
                0x00808e68                __swsetup_r
 .text          0x00808fa4      0x1b4 d:/altera/13.0sp1/nios2eds/bin/gnu/h-i686-mingw32/bin/../lib/gcc/nios2-elf/4.1.2/../../../../nios2-elf/lib\libc.a(lib_a-__call_atexit.o)
                0x00808fa8                __call_exitprocs
 .text          0x00809158     0x17cc d:/altera/13.0sp1/nios2eds/bin/gnu/h-i686-mingw32/bin/../lib/gcc/nios2-elf/4.1.2/../../../../nios2-elf/lib\libc.a(lib_a-dtoa.o)
                0x00809370                _dtoa_r
 .text          0x0080a924      0x230 d:/altera/13.0sp1/nios2eds/bin/gnu/h-i686-mingw32/bin/../lib/gcc/nios2-elf/4.1.2/../../../../nios2-elf/lib\libc.a(lib_a-fflush.o)
                0x0080a924                _fflush_r
                0x0080ab20                fflush
 .text          0x0080ab54      0x2c0 d:/altera/13.0sp1/nios2eds/bin/gnu/h-i686-mingw32/bin/../lib/gcc/nios2-elf/4.1.2/../../../../nios2-elf/lib\libc.a(lib_a-findfp.o)
                0x0080abac                __sfp_lock_acquire
                0x0080abb0                __sfp_lock_release
                0x0080abb4                __sinit_lock_acquire
                0x0080abb8                __sinit_lock_release
                0x0080abbc                __sinit
                0x0080ac70                __fp_unlock_all
                0x0080ac88                __fp_lock_all
                0x0080aca0                _cleanup_r
                0x0080acac                _cleanup
                0x0080acbc                __sfmoreglue
                0x0080ad24                __sfp
 .text          0x0080ae14       0xbc d:/altera/13.0sp1/nios2eds/bin/gnu/h-i686-mingw32/bin/../lib/gcc/nios2-elf/4.1.2/../../../../nios2-elf/lib\libc.a(lib_a-fputc.o)
                0x0080ae14                fputc
                0x0080ae78                _fputc_r
 .text          0x0080aed0       0x90 d:/altera/13.0sp1/nios2eds/bin/gnu/h-i686-mingw32/bin/../lib/gcc/nios2-elf/4.1.2/../../../../nios2-elf/lib\libc.a(lib_a-fputs.o)
                0x0080aed0                _fputs_r
                0x0080af44                fputs
 .text          0x0080af60      0x440 d:/altera/13.0sp1/nios2eds/bin/gnu/h-i686-mingw32/bin/../lib/gcc/nios2-elf/4.1.2/../../../../nios2-elf/lib\libc.a(lib_a-freer.o)
                0x0080af60                _malloc_trim_r
                0x0080b08c                _free_r
 .text          0x0080b3a0      0x49c d:/altera/13.0sp1/nios2eds/bin/gnu/h-i686-mingw32/bin/../lib/gcc/nios2-elf/4.1.2/../../../../nios2-elf/lib\libc.a(lib_a-fvwrite.o)
                0x0080b3a0                __sfvwrite_r
 .text          0x0080b83c      0x180 d:/altera/13.0sp1/nios2eds/bin/gnu/h-i686-mingw32/bin/../lib/gcc/nios2-elf/4.1.2/../../../../nios2-elf/lib\libc.a(lib_a-fwalk.o)
                0x0080b83c                _fwalk_reent
                0x0080b904                _fwalk
 .text          0x0080b9bc       0xc4 d:/altera/13.0sp1/nios2eds/bin/gnu/h-i686-mingw32/bin/../lib/gcc/nios2-elf/4.1.2/../../../../nios2-elf/lib\libc.a(lib_a-locale.o)
                0x0080b9bc                __locale_charset
                0x0080b9c4                _localeconv_r
                0x0080b9d0                localeconv
                0x0080b9e0                _setlocale_r
                0x0080ba64                setlocale
 .text          0x0080ba80      0x194 d:/altera/13.0sp1/nios2eds/bin/gnu/h-i686-mingw32/bin/../lib/gcc/nios2-elf/4.1.2/../../../../nios2-elf/lib\libc.a(lib_a-makebuf.o)
                0x0080ba80                __smakebuf_r
 .text          0x0080bc14      0x740 d:/altera/13.0sp1/nios2eds/bin/gnu/h-i686-mingw32/bin/../lib/gcc/nios2-elf/4.1.2/../../../../nios2-elf/lib\libc.a(lib_a-mallocr.o)
                0x0080bc14                _malloc_r
 .text          0x0080c354       0xe4 d:/altera/13.0sp1/nios2eds/bin/gnu/h-i686-mingw32/bin/../lib/gcc/nios2-elf/4.1.2/../../../../nios2-elf/lib\libc.a(lib_a-memchr.o)
                0x0080c354                memchr
 .text          0x0080c438      0xff4 d:/altera/13.0sp1/nios2eds/bin/gnu/h-i686-mingw32/bin/../lib/gcc/nios2-elf/4.1.2/../../../../nios2-elf/lib\libc.a(lib_a-mprec.o)
                0x0080c438                _Bfree
                0x0080c460                __hi0bits
                0x0080c4d0                __lo0bits
                0x0080c594                __mcmp
                0x0080c5f4                __ulp
                0x0080c674                __b2d
                0x0080c794                __ratio
                0x0080c844                _mprec_log10
                0x0080c8d8                __copybits
                0x0080c930                __any_on
                0x0080c9b8                _Balloc
                0x0080ca74                __d2b
                0x0080cbf0                __mdiff
                0x0080cd7c                __lshift
                0x0080cec8                __multiply
                0x0080d0b0                __i2b
                0x0080d0ec                __multadd
                0x0080d1ec                __pow5mult
                0x0080d30c                __s2b
 .text          0x0080d42c      0x5f4 d:/altera/13.0sp1/nios2eds/bin/gnu/h-i686-mingw32/bin/../lib/gcc/nios2-elf/4.1.2/../../../../nios2-elf/lib\libc.a(lib_a-reallocr.o)
                0x0080d42c                _realloc_r
 .text          0x0080da20      0x1e0 d:/altera/13.0sp1/nios2eds/bin/gnu/h-i686-mingw32/bin/../lib/gcc/nios2-elf/4.1.2/../../../../nios2-elf/lib\libc.a(lib_a-refill.o)
                0x0080da20                __srefill_r
 .text          0x0080dc00       0x40 d:/altera/13.0sp1/nios2eds/bin/gnu/h-i686-mingw32/bin/../lib/gcc/nios2-elf/4.1.2/../../../../nios2-elf/lib\libc.a(lib_a-s_isinfd.o)
                0x0080dc00                __isinfd
 .text          0x0080dc40       0x30 d:/altera/13.0sp1/nios2eds/bin/gnu/h-i686-mingw32/bin/../lib/gcc/nios2-elf/4.1.2/../../../../nios2-elf/lib\libc.a(lib_a-s_isnand.o)
                0x0080dc40                __isnand
 .text          0x0080dc70       0x70 d:/altera/13.0sp1/nios2eds/bin/gnu/h-i686-mingw32/bin/../lib/gcc/nios2-elf/4.1.2/../../../../nios2-elf/lib\libc.a(lib_a-sbrkr.o)
                0x0080dc70                _sbrk_r
 .text          0x0080dce0      0x14c d:/altera/13.0sp1/nios2eds/bin/gnu/h-i686-mingw32/bin/../lib/gcc/nios2-elf/4.1.2/../../../../nios2-elf/lib\libc.a(lib_a-stdio.o)
                0x0080dce0                __sclose
                0x0080dce8                __sseek
                0x0080dd50                __swrite
                0x0080ddcc                __sread
 .text          0x0080de2c       0x78 d:/altera/13.0sp1/nios2eds/bin/gnu/h-i686-mingw32/bin/../lib/gcc/nios2-elf/4.1.2/../../../../nios2-elf/lib\libc.a(lib_a-writer.o)
                0x0080de2c                _write_r
 .text          0x0080dea4       0xb4 d:/altera/13.0sp1/nios2eds/bin/gnu/h-i686-mingw32/bin/../lib/gcc/nios2-elf/4.1.2/../../../../nios2-elf/lib\libc.a(lib_a-callocr.o)
                0x0080dea4                _calloc_r
 .text          0x0080df58       0x70 d:/altera/13.0sp1/nios2eds/bin/gnu/h-i686-mingw32/bin/../lib/gcc/nios2-elf/4.1.2/../../../../nios2-elf/lib\libc.a(lib_a-closer.o)
                0x0080df58                _close_r
 .text          0x0080dfc8      0x124 d:/altera/13.0sp1/nios2eds/bin/gnu/h-i686-mingw32/bin/../lib/gcc/nios2-elf/4.1.2/../../../../nios2-elf/lib\libc.a(lib_a-fclose.o)
                0x0080dfc8                _fclose_r
                0x0080e0d8                fclose
 .text          0x0080e0ec       0x74 d:/altera/13.0sp1/nios2eds/bin/gnu/h-i686-mingw32/bin/../lib/gcc/nios2-elf/4.1.2/../../../../nios2-elf/lib\libc.a(lib_a-fstatr.o)
                0x0080e0ec                _fstat_r
 .text          0x0080e160        0x0 d:/altera/13.0sp1/nios2eds/bin/gnu/h-i686-mingw32/bin/../lib/gcc/nios2-elf/4.1.2/../../../../nios2-elf/lib\libc.a(lib_a-int_errno.o)
 .text          0x0080e160       0x70 d:/altera/13.0sp1/nios2eds/bin/gnu/h-i686-mingw32/bin/../lib/gcc/nios2-elf/4.1.2/../../../../nios2-elf/lib\libc.a(lib_a-isattyr.o)
                0x0080e160                _isatty_r
 .text          0x0080e1d0       0x78 d:/altera/13.0sp1/nios2eds/bin/gnu/h-i686-mingw32/bin/../lib/gcc/nios2-elf/4.1.2/../../../../nios2-elf/lib\libc.a(lib_a-lseekr.o)
                0x0080e1d0                _lseek_r
 .text          0x0080e248       0x78 d:/altera/13.0sp1/nios2eds/bin/gnu/h-i686-mingw32/bin/../lib/gcc/nios2-elf/4.1.2/../../../../nios2-elf/lib\libc.a(lib_a-readr.o)
                0x0080e248                _read_r
 .text          0x0080e2c0      0x5dc d:/altera/13.0sp1/nios2eds/bin/gnu/h-i686-mingw32/bin/../lib/gcc/nios2-elf/4.1.2\libgcc.a(_udivdi3.o)
                0x0080e2c0                __udivdi3
 .text          0x0080e89c      0x5b0 d:/altera/13.0sp1/nios2eds/bin/gnu/h-i686-mingw32/bin/../lib/gcc/nios2-elf/4.1.2\libgcc.a(_umoddi3.o)
                0x0080e89c                __umoddi3
 .text          0x0080ee4c      0x258 d:/altera/13.0sp1/nios2eds/bin/gnu/h-i686-mingw32/bin/../lib/gcc/nios2-elf/4.1.2\libgcc.a(_div_df.o)
                0x0080ee4c                __divdf3
 .text          0x0080f0a4       0x88 d:/altera/13.0sp1/nios2eds/bin/gnu/h-i686-mingw32/bin/../lib/gcc/nios2-elf/4.1.2\libgcc.a(_eq_df.o)
                0x0080f0a4                __eqdf2
 .text          0x0080f12c       0x88 d:/altera/13.0sp1/nios2eds/bin/gnu/h-i686-mingw32/bin/../lib/gcc/nios2-elf/4.1.2\libgcc.a(_ne_df.o)
                0x0080f12c                __nedf2
 .text          0x0080f1b4       0x88 d:/altera/13.0sp1/nios2eds/bin/gnu/h-i686-mingw32/bin/../lib/gcc/nios2-elf/4.1.2\libgcc.a(_gt_df.o)
                0x0080f1b4                __gtdf2
 .text          0x0080f23c       0x88 d:/altera/13.0sp1/nios2eds/bin/gnu/h-i686-mingw32/bin/../lib/gcc/nios2-elf/4.1.2\libgcc.a(_lt_df.o)
                0x0080f23c                __ltdf2
 .text          0x0080f2c4       0xf8 d:/altera/13.0sp1/nios2eds/bin/gnu/h-i686-mingw32/bin/../lib/gcc/nios2-elf/4.1.2\libgcc.a(_si_to_df.o)
                0x0080f2c4                __floatsidf
 .text          0x0080f3bc      0x14c d:/altera/13.0sp1/nios2eds/bin/gnu/h-i686-mingw32/bin/../lib/gcc/nios2-elf/4.1.2\libgcc.a(lib2-divmod.o)
                0x0080f438                __divsi3
                0x0080f498                __modsi3
                0x0080f4f8                __udivsi3
                0x0080f500                __umodsi3
 .text          0x0080f508       0x6c ../projeto_final_bsp/\libucosii_bsp.a(alt_exit.o)
                0x0080f548                _exit
 .text          0x0080f574       0xd0 ../projeto_final_bsp/\libucosii_bsp.a(alt_flash_dev.o)
                0x0080f574                alt_flash_open_dev
                0x0080f5f0                alt_flash_close_dev
 .text          0x0080f644      0x134 ../projeto_final_bsp/\libucosii_bsp.a(alt_fstat.o)
                0x0080f644                fstat
 .text          0x0080f778      0x1c0 ../projeto_final_bsp/\libucosii_bsp.a(alt_irq_register.o)
                0x0080f778                alt_irq_register
 .text          0x0080f938        0x0 ../projeto_final_bsp/\libucosii_bsp.a(alt_irq_vars.o)
 .text          0x0080f938      0x120 ../projeto_final_bsp/\libucosii_bsp.a(alt_isatty.o)
                0x0080f938                isatty
 .text          0x0080fa58      0x150 ../projeto_final_bsp/\libucosii_bsp.a(alt_lseek.o)
                0x0080fa58                lseek
 .text          0x0080fba8       0xc8 ../projeto_final_bsp/\libucosii_bsp.a(alt_main.o)
                0x0080fba8                alt_main
 .text          0x0080fc70       0xbc ../projeto_final_bsp/\libucosii_bsp.a(alt_sbrk.o)
                0x0080fc70                sbrk
 .text          0x0080fd2c      0x118 ../projeto_final_bsp/\libucosii_bsp.a(alt_usleep.o)
                0x0080fd2c                usleep
 .text          0x0080fe44      0x108 ../projeto_final_bsp/\libucosii_bsp.a(alt_env_lock.o)
                0x0080fe44                __env_lock
                0x0080fef0                __env_unlock
 .text          0x0080ff4c      0x1d8 ../projeto_final_bsp/\libucosii_bsp.a(alt_malloc_lock.o)
                0x0080ff4c                __malloc_lock
                0x00810054                __malloc_unlock
 .text          0x00810124     0x2128 ../projeto_final_bsp/\libucosii_bsp.a(os_core.o)
                0x00810124                OSEventNameGet
                0x00810254                OSEventNameSet
                0x00810398                OSEventPendMulti
                0x00810a4c                OSInit
                0x00810aa0                OSIntEnter
                0x00810b1c                OSIntExit
                0x00810c1c                OSSchedLock
                0x00810ca8                OSSchedUnlock
                0x00810d8c                OSStart
                0x00810dfc                OSStatInit
                0x00810ea8                OSTimeTick
                0x008110e8                OSVersion
                0x00811108                OS_Dummy
                0x00811124                OS_EventTaskRdy
                0x008112b8                OS_EventTaskWait
                0x008113c8                OS_EventTaskWaitMulti
                0x0081151c                OS_EventTaskRemove
                0x008115d4                OS_EventTaskRemoveMulti
                0x008116d8                OS_EventWaitListInit
                0x00811aa4                OS_MemClr
                0x00811af8                OS_MemCopy
                0x00811b64                OS_Sched
                0x00811ca8                OS_StrCopy
                0x00811d28                OS_StrLen
                0x00811d80                OS_TaskIdle
                0x00811ddc                OS_TaskStat
                0x00811ea4                OS_TaskStatStkChk
                0x00811f6c                OS_TCBInit
 .text          0x0081224c      0x18c ../projeto_final_bsp/\libucosii_bsp.a(os_dbg.o)
                0x0081224c                OSDebugInit
 .text          0x008123d8     0x193c ../projeto_final_bsp/\libucosii_bsp.a(os_flag.o)
                0x008123d8                OSFlagAccept
                0x0081270c                OSFlagCreate
                0x00812848                OSFlagDel
                0x00812af0                OSFlagNameGet
                0x00812c34                OSFlagNameSet
                0x00812d88                OSFlagPend
                0x008133cc                OSFlagPendGetFlagsRdy
                0x00813434                OSFlagPost
                0x008137dc                OSFlagQuery
                0x00813a74                OS_FlagInit
                0x00813c68                OS_FlagUnlink
 .text          0x00813d14      0x808 ../projeto_final_bsp/\libucosii_bsp.a(os_mem.o)
                0x00813d14                OSMemCreate
                0x00813f30                OSMemGet
                0x00814034                OSMemNameGet
                0x00814140                OSMemNameSet
                0x00814260                OSMemPut
                0x00814350                OSMemQuery
                0x0081444c                OS_MemInit
 .text          0x0081451c     0x1334 ../projeto_final_bsp/\libucosii_bsp.a(os_q.o)
                0x0081451c                OSQAccept
                0x00814670                OSQCreate
                0x00814884                OSQDel
                0x00814b84                OSQFlush
                0x00814c4c                OSQPend
                0x00814f6c                OSQPendAbort
                0x008150e8                OSQPost
                0x00815268                OSQPostFront
                0x008153f0                OSQPostOpt
                0x00815624                OSQQuery
                0x008157a4                OS_QInit
 .text          0x00815850      0xbc8 ../projeto_final_bsp/\libucosii_bsp.a(os_sem.o)
                0x00815850                OSSemAccept
                0x00815910                OSSemCreate
                0x00815a24                OSSemDel
                0x00815cc4                OSSemPend
                0x00815f40                OSSemPendAbort
                0x008160bc                OSSemPost
                0x008161e4                OSSemQuery
                0x00816314                OSSemSet
 .text          0x00816418     0x1a40 ../projeto_final_bsp/\libucosii_bsp.a(os_task.o)
                0x00816418                OSTaskChangePrio
                0x0081698c                OSTaskCreate
                0x00816b60                OSTaskCreateExt
                0x00816d60                OSTaskDel
                0x0081716c                OSTaskDelReq
                0x008172dc                OSTaskNameGet
                0x00817494                OSTaskNameSet
                0x00817658                OSTaskResume
                0x00817870                OSTaskStkChk
                0x00817a6c                OSTaskSuspend
                0x00817c98                OSTaskQuery
                0x00817ddc                OS_TaskStkClr
 .text          0x00817e58      0x670 ../projeto_final_bsp/\libucosii_bsp.a(os_time.o)
                0x00817e58                OSTimeDly
                0x00817fa4                OSTimeDlyHMSM
                0x008181f0                OSTimeDlyResume
                0x00818400                OSTimeGet
                0x00818464                OSTimeSet
 .text          0x008184c8      0x118 ../projeto_final_bsp/\libucosii_bsp.a(alt_sys_init.o)
                0x008184c8                alt_irq_init
                0x008184fc                alt_sys_init
 .text          0x008185e0      0x8c8 ../projeto_final_bsp/\libucosii_bsp.a(altera_avalon_cfi_flash.o)
                0x008185e0                alt_flash_cfi_init
                0x008186b4                alt_flash_cfi_write
                0x00818974                alt_flash_cfi_get_info
                0x00818a04                alt_flash_cfi_read
                0x00818a6c                alt_write_value_to_flash
                0x00818bd0                alt_flash_program_block
 .text          0x00818ea8     0x14a8 ../projeto_final_bsp/\libucosii_bsp.a(altera_avalon_cfi_flash_table.o)
                0x00818ea8                alt_read_query_entry_8bit
                0x00818ee8                alt_read_query_entry_16bit
                0x00818f2c                alt_read_query_entry_32bit
                0x00818f74                alt_write_flash_command_8bit_device_8bit_mode
                0x00818fb0                alt_write_flash_command_16bit_device_8bit_mode
                0x0081902c                alt_write_flash_command_32bit_device_8bit_mode
                0x00819074                alt_write_flash_command_16bit_device_16bit_mode
                0x008190b8                alt_write_flash_command_32bit_device_16bit_mode
                0x00819100                alt_write_flash_command_32bit_device_32bit_mode
                0x00819148                alt_write_native_8bit
                0x0081917c                alt_write_native_16bit
                0x008191b0                alt_write_native_32bit
                0x008191e0                alt_set_flash_width_func
                0x008193c0                alt_set_flash_algorithm_func
                0x008194e8                alt_read_cfi_table
                0x00819ac8                alt_read_cfi_width
                0x0081a274                alt_check_primary_table
 .text          0x0081a350      0x9e4 ../projeto_final_bsp/\libucosii_bsp.a(altera_avalon_epcs_flash_controller.o)
                0x0081a350                alt_epcs_flash_init
                0x0081a76c                alt_epcs_flash_write
                0x0081a9ec                alt_epcs_flash_get_info
                0x0081aa7c                alt_epcs_flash_erase_block
                0x0081ab80                alt_epcs_flash_write_block
                0x0081ac9c                alt_epcs_flash_read
 .text          0x0081ad34      0x148 ../projeto_final_bsp/\libucosii_bsp.a(altera_avalon_jtag_uart_fd.o)
                0x0081ad34                altera_avalon_jtag_uart_read_fd
                0x0081ad8c                altera_avalon_jtag_uart_write_fd
                0x0081ade4                altera_avalon_jtag_uart_close_fd
                0x0081ae2c                altera_avalon_jtag_uart_ioctl_fd
 .text          0x0081ae7c      0x584 ../projeto_final_bsp/\libucosii_bsp.a(altera_avalon_jtag_uart_init.o)
                0x0081ae7c                altera_avalon_jtag_uart_init
                0x0081b38c                altera_avalon_jtag_uart_close
 .text          0x0081b400       0xf4 ../projeto_final_bsp/\libucosii_bsp.a(altera_avalon_jtag_uart_ioctl.o)
                0x0081b400                altera_avalon_jtag_uart_ioctl
 .text          0x0081b4f4      0x2c0 ../projeto_final_bsp/\libucosii_bsp.a(altera_avalon_jtag_uart_read.o)
                0x0081b4f4                altera_avalon_jtag_uart_read
 .text          0x0081b7b4      0x2dc ../projeto_final_bsp/\libucosii_bsp.a(altera_avalon_jtag_uart_write.o)
                0x0081b7b4                altera_avalon_jtag_uart_write
 .text          0x0081ba90      0xf3c ../projeto_final_bsp/\libucosii_bsp.a(altera_avalon_lcd_16207.o)
                0x0081c264                altera_avalon_lcd_16207_write
                0x0081c868                altera_avalon_lcd_16207_init
 .text          0x0081c9cc       0x58 ../projeto_final_bsp/\libucosii_bsp.a(altera_avalon_lcd_16207_fd.o)
                0x0081c9cc                altera_avalon_lcd_16207_write_fd
 .text          0x0081ca24      0x100 ../projeto_final_bsp/\libucosii_bsp.a(altera_avalon_timer_sc.o)
                0x0081ca94                alt_avalon_timer_sc_init
 .text          0x0081cb24       0xf8 ../projeto_final_bsp/\libucosii_bsp.a(altera_avalon_uart_fd.o)
                0x0081cb24                altera_avalon_uart_read_fd
                0x0081cb7c                altera_avalon_uart_write_fd
                0x0081cbd4                altera_avalon_uart_close_fd
 .text          0x0081cc1c      0x57c ../projeto_final_bsp/\libucosii_bsp.a(altera_avalon_uart_init.o)
                0x0081cc1c                altera_avalon_uart_init
                0x0081d138                altera_avalon_uart_close
 .text          0x0081d198      0x310 ../projeto_final_bsp/\libucosii_bsp.a(altera_avalon_uart_read.o)
                0x0081d198                altera_avalon_uart_read
 .text          0x0081d4a8      0x2a8 ../projeto_final_bsp/\libucosii_bsp.a(altera_avalon_uart_write.o)
                0x0081d4a8                altera_avalon_uart_write
 .text          0x0081d750      0x6d4 ../projeto_final_bsp/\libucosii_bsp.a(epcs_commands.o)
                0x0081d750                epcs_read_status_register
                0x0081d7b0                epcs_sector_erase
                0x0081d918                epcs_read_buffer
                0x0081da64                epcs_write_enable
                0x0081dab4                epcs_write_status_register
                0x0081db18                epcs_write_buffer
                0x0081dc88                epcs_read_electronic_signature
                0x0081dcf4                epcs_read_device_id
                0x0081dd74                epcs_enter_4_bytes_mode
                0x0081ddcc                epcs_exit_4_bytes_mode
 .text          0x0081de24       0x54 ../projeto_final_bsp/\libucosii_bsp.a(alt_iniche_close.o)
                0x0081de24                close
 .text          0x0081de78      0x144 ../projeto_final_bsp/\libucosii_bsp.a(alt_iniche_dev.o)
                0x0081de78                iniche_devices_init
 .text          0x0081dfbc       0x78 ../projeto_final_bsp/\libucosii_bsp.a(alt_iniche_read.o)
                0x0081dfbc                read
 .text          0x0081e034       0x70 ../projeto_final_bsp/\libucosii_bsp.a(alt_iniche_write.o)
                0x0081e034                write
 .text          0x0081e0a4      0xedc ../projeto_final_bsp/\libucosii_bsp.a(ipnet.o)
                0x0081e0a4                Netinit
                0x0081e6f0                fixup_subnet_mask
                0x0081e850                netclose
                0x0081e938                pktdemux
                0x0081ed0c                c_older
                0x0081eddc                ip2mac
 .text          0x0081ef80      0x4b0 ../projeto_final_bsp/\libucosii_bsp.a(ipstart.o)
                0x0081ef80                ip_startup
                0x0081f264                exit_hook
                0x0081f2d0                ip_exit
                0x0081f3a0                if_netnumber
 .text          0x0081f430     0x10e8 ../projeto_final_bsp/\libucosii_bsp.a(igmp_cmn.o)
                0x0081f430                igmp_init
                0x0081f520                igmp_input
                0x0081f618                igmp_fasttimo
                0x0081f84c                igmp_send
                0x0081faf4                igmp_joingroup
                0x0081fd60                igmp_leavegroup
                0x0081fddc                igmp_validate
                0x00820138                igmp_print_stats
 .text          0x00820518      0xbc8 ../projeto_final_bsp/\libucosii_bsp.a(bsdsock.o)
                0x00820518                bsd_accept
                0x00820650                bsd_getpeername
                0x0082077c                bsd_getsockname
                0x008208a8                bsd_i_sockoptlen
                0x00820a60                bsd_getsockopt
                0x00820b80                bsd_ioctl
                0x00820c84                bsd_inet_ntoa
                0x00820cb4                bsd_recvfrom
                0x00820e14                bsd_select
                0x00820ff4                bsd_setsockopt
 .text          0x008210e0      0x118 ../projeto_final_bsp/\libucosii_bsp.a(cksum.o)
                0x008210e0                ccksum
                0x00821190                cksum
 .text          0x008211f8      0xa9c ../projeto_final_bsp/\libucosii_bsp.a(in_utils.o)
                0x008211f8                do_trap
                0x00821224                nextarg
                0x008212a0                hexdump
                0x008213e8                print_ipad
                0x0082145c                print_uptime
                0x00821588                panic
                0x008215cc                print_eth
                0x00821730                uslash
                0x008217b0                ns_printf
                0x00821934                std_out
                0x00821978                con_page
                0x00821a68                parse_args
 .text          0x00821c94      0x1c8 ../projeto_final_bsp/\libucosii_bsp.a(netmain.o)
                0x00821c94                netmain
                0x00821d88                tk_netmain
                0x00821e10                tk_nettick
 .text          0x00821e5c      0x810 ../projeto_final_bsp/\libucosii_bsp.a(parseip.o)
                0x00821e5c                parse_ipad
                0x00822178                inet_addr
                0x008221e0                hextoa
                0x00822250                inet_pton
                0x008222fc                inet_ntop
                0x00822388                print46_addr
                0x008223e8                inet46_addr
                0x008224ac                inet_setport
                0x00822520                convert_ip
 .text          0x0082266c      0x5e8 ../projeto_final_bsp/\libucosii_bsp.a(tk_crnos.o)
                0x0082266c                TK_OSTimeDly
                0x00822698                TK_OSTaskResume
                0x00822708                tcp_sleep
                0x008228a8                tcp_wakeup
                0x008229ac                TK_OSTaskQuery
                0x00822a20                tk_yield
                0x00822a4c                tk_stats
 .text          0x00822c54     0x3294 ../projeto_final_bsp/\libucosii_bsp.a(dhcpclnt.o)
                0x00822c54                dhc_get_srv_ipaddr
                0x00822ce4                dhc_init
                0x00822da0                dhc_set_callback
                0x00822de4                dhc_upcall
                0x00823614                dhc_buildheader
                0x00823830                dhc_discover
                0x00823d48                dhc_rx_offer
                0x00823e4c                dhc_request
                0x00824988                dhc_setip
                0x00824c08                dhc_resetip
                0x00824cec                dhc_decline
                0x00824ed0                dhc_extract_opts
                0x0082518c                dhc_second
                0x00825a7c                dhc_halt
                0x00825b04                dhc_reclaim
                0x00825cd4                dhc_state_init
                0x00825d34                dhc_alldone
                0x00825dc4                dhc_ifacedone
                0x00825e38                dhc_set_state
 .text          0x00825ee8       0xcc ../projeto_final_bsp/\libucosii_bsp.a(dhcputil.o)
                0x00825ee8                find_opt
 .text          0x00825fb4      0x79c ../projeto_final_bsp/\libucosii_bsp.a(pktalloc.o)
                0x00825fb4                pk_init
                0x00826244                pk_alloc
                0x00826320                pk_validate
                0x008265d8                pk_free
                0x00826684                pk_get_max_intrsafe_buf_len
                0x008266a4                dump_buf_estats
 .text          0x00826750      0x288 ../projeto_final_bsp/\libucosii_bsp.a(q.o)
                0x00826750                getq
                0x00826818                putq
                0x008268c8                qdel
 .text          0x008269d8      0x31c ../projeto_final_bsp/\libucosii_bsp.a(udp_open.o)
                0x008269d8                udp_open
                0x00826c10                udp_close
 .text          0x00826cf4      0x194 ../projeto_final_bsp/\libucosii_bsp.a(asm_cksum.o)
                0x00826cf4                asm_cksum
 .text          0x00826e88      0x2e4 ../projeto_final_bsp/\libucosii_bsp.a(brdutils.o)
                0x00826e88                dtrap
                0x00826eb8                kbhit
                0x00826f64                getch
                0x00826fc4                clock_init
                0x00827000                clock_c
                0x0082701c                cticks_hook
                0x008270cc                irq_Mask
                0x00827128                irq_Unmask
 .text          0x0082716c      0x488 ../projeto_final_bsp/\libucosii_bsp.a(osportco.o)
                0x0082716c                LOCK_NET_RESOURCE
                0x0082722c                UNLOCK_NET_RESOURCE
                0x008272b4                TK_NEWTASK
                0x008274c8                wait_app_sem
                0x0082757c                post_app_sem
 .text          0x008275f4      0x568 ../projeto_final_bsp/\libucosii_bsp.a(targnios.o)
                0x008275f4                alt_iniche_init
                0x00827810                pre_task_setup
                0x00827884                post_task_setup
                0x008278a4                prep_armintcp
                0x008278dc                calloc2
                0x00827910                npalloc
                0x00827a04                npfree
                0x00827abc                ncpalloc
                0x00827b10                ncpfree
 .text          0x00827b5c     0x19b8 ../projeto_final_bsp/\libucosii_bsp.a(nptcp.o)
                0x00827b5c                pffindtype
                0x00827bfc                pffindproto
                0x00827ccc                m_getnbuf
                0x00827e74                m_free
                0x00827fa8                m_freem
                0x00827fec                m_copy
                0x00828310                m_adj
                0x008284e0                mbuf_len
                0x00828538                dtom
                0x008285e0                remque
                0x00828650                insque
                0x008286cc                nptcp_init
                0x008287f0                tcp_rcv
                0x008289dc                ip_output
                0x00828fd4                in_broadcast
                0x00829014                np_stripoptions
                0x008290fc                so_icmpdu
                0x00829454                tcp_tick
 .text          0x00829514      0xa2c ../projeto_final_bsp/\libucosii_bsp.a(rawsock.o)
                0x00829514                rawip_lookup
                0x00829584                rawip_soinput
                0x00829758                rawip_usrreq
 .text          0x00829f40     0x17fc ../projeto_final_bsp/\libucosii_bsp.a(sockcall.o)
                0x00829f40                DOMAIN_CHECK
                0x00829f8c                t_socket
                0x0082a01c                t_bind
                0x0082a198                t_listen
                0x0082a27c                t_accept
                0x0082a514                t_connect
                0x0082a7bc                t_getpeername
                0x0082a800                t_getsockname
                0x0082aa40                t_setsockopt
                0x0082ac1c                t_getsockopt
                0x0082adc0                t_recv
                0x0082aeb0                t_recvfrom
                0x0082b000                t_sendto
                0x0082b22c                t_send
                0x0082b454                t_shutdown
                0x0082b538                t_socketclose
                0x0082b6a0                t_errno
 .text          0x0082b73c     0x23ec ../projeto_final_bsp/\libucosii_bsp.a(socket.o)
                0x0082b73c                socreate
                0x0082b908                sobind
                0x0082b964                solisten
                0x0082ba54                sofree
                0x0082bb84                soclose
                0x0082bef0                soabort
                0x0082bf40                soaccept
                0x0082bfdc                soconnect
                0x0082c0b0                sodisconnect
                0x0082c150                sosend
                0x0082c758                soreceive
                0x0082cf3c                soshutdown
                0x0082cfe4                sorflush
                0x0082d0e4                sosetopt
                0x0082d5a4                sogetopt
                0x0082dae4                sohasoutofband
 .text          0x0082db28     0x1318 ../projeto_final_bsp/\libucosii_bsp.a(socket2.o)
                0x0082db28                soisconnecting
                0x0082db94                soisconnected
                0x0082dc90                soisdisconnecting
                0x0082dd1c                soisdisconnected
                0x0082ddd8                sonewconn
                0x0082dff4                soqinsque
                0x0082e0a0                soqremque
                0x0082e1c0                socantsendmore
                0x0082e210                socantrcvmore
                0x0082e260                sbselqueue
                0x0082e298                sbwait
                0x0082e300                sbwakeup
                0x0082e39c                soreserve
                0x0082e41c                sbreserve
                0x0082e47c                sbrelease
                0x0082e4c4                sbappend
                0x0082e56c                sbappendrecord
                0x0082e64c                sbappendaddr
                0x0082e854                sbcompress
                0x0082ea3c                sbflush
                0x0082eacc                sbdrop
                0x0082ec9c                sbdropend
                0x0082edac                sbdroprecord
 .text          0x0082ee40      0x914 ../projeto_final_bsp/\libucosii_bsp.a(soselect.o)
                0x0082ee40                t_select
                0x0082f060                sock_selscan
                0x0082f1b8                sock_select
                0x0082f3cc                in_pcbnotify
                0x0082f498                tcp_notify
                0x0082f500                ifd_clr
                0x0082f5f0                ifd_set
                0x0082f664                ifd_isset
                0x0082f6e4                ifd_get
 .text          0x0082f754     0x3020 ../projeto_final_bsp/\libucosii_bsp.a(tcp_in.o)
                0x0082f754                tcp_reass
                0x0082fb5c                tcp_input
                0x008320b0                tcp_dooptions
                0x00832240                tcp_pulloutofband
                0x0083236c                tcp_xmit_timer
                0x00832610                ip4_tcpmss
                0x00832658                tcp_mss
 .text          0x00832774     0x1360 ../projeto_final_bsp/\libucosii_bsp.a(tcp_out.o)
                0x00832774                tcp_output
                0x008338f0                tcp_setpersist
 .text          0x00833ad4      0x9e8 ../projeto_final_bsp/\libucosii_bsp.a(tcp_subr.o)
                0x00833ad4                tcp_init
                0x00833b2c                tcp_template
                0x00833c44                tcp_respond
                0x008340cc                tcp_newtcpcb
                0x008341e4                tcp_drop
                0x00834290                tcp_close
                0x00834378                tcp_quench
                0x008343c4                tcp_putseq
                0x00834444                tcp_getseq
 .text          0x008344bc      0x798 ../projeto_final_bsp/\libucosii_bsp.a(tcp_timr.o)
                0x008344bc                tcp_slowtimo
                0x0083475c                tcp_canceltimers
                0x008347b8                tcp_timers
 .text          0x00834c54      0x9ec ../projeto_final_bsp/\libucosii_bsp.a(tcp_usr.o)
                0x00834c54                tcp_usrreq
                0x00835358                tcp_attach
                0x0083548c                tcp_disconnect
                0x00835560                tcp_usrclosed
 .text          0x00835640       0x4c ../projeto_final_bsp/\libucosii_bsp.a(tcpport.o)
                0x00835640                tcpinit
 .text          0x0083568c      0xd20 ../projeto_final_bsp/\libucosii_bsp.a(udpsock.o)
                0x0083568c                udp_lookup
                0x008356fc                udp_soinput
                0x008358b4                udp_usrreq
                0x00835b38                udp4_sockbind
                0x00835e74                udp4_socksend
                0x00836250                udp4_sockaddr
 .text          0x008363ac      0x154 ../projeto_final_bsp/\libucosii_bsp.a(alt_alarm_start.o)
                0x008363ac                alt_alarm_start
 .text          0x00836500      0x14c ../projeto_final_bsp/\libucosii_bsp.a(alt_busy_sleep.o)
                0x00836500                alt_busy_sleep
 .text          0x0083664c      0x15c ../projeto_final_bsp/\libucosii_bsp.a(alt_close.o)
                0x0083664c                alt_close
 .text          0x008367a8       0x78 ../projeto_final_bsp/\libucosii_bsp.a(alt_dcache_flush.o)
                0x008367a8                alt_dcache_flush
 .text          0x00836820       0x2c ../projeto_final_bsp/\libucosii_bsp.a(alt_dev.o)
 .text          0x0083684c      0x114 ../projeto_final_bsp/\libucosii_bsp.a(alt_dev_llist_insert.o)
                0x0083684c                alt_dev_llist_insert
 .text          0x00836960       0x64 ../projeto_final_bsp/\libucosii_bsp.a(alt_do_ctors.o)
                0x00836960                _do_ctors
 .text          0x008369c4       0x64 ../projeto_final_bsp/\libucosii_bsp.a(alt_do_dtors.o)
                0x008369c4                _do_dtors
 .text          0x00836a28        0x0 ../projeto_final_bsp/\libucosii_bsp.a(alt_errno.o)
 .text          0x00836a28       0x94 ../projeto_final_bsp/\libucosii_bsp.a(alt_find_dev.o)
                0x00836a28                alt_find_dev
 .text          0x00836abc      0x1d4 ../projeto_final_bsp/\libucosii_bsp.a(alt_iic.o)
                0x00836abc                alt_ic_isr_register
                0x00836b0c                alt_ic_irq_enable
                0x00836ba8                alt_ic_irq_disable
                0x00836c48                alt_ic_irq_enabled
 .text          0x00836c90       0xf8 ../projeto_final_bsp/\libucosii_bsp.a(alt_iic_isr_register.o)
                0x00836c90                alt_iic_isr_register
 .text          0x00836d88      0x13c ../projeto_final_bsp/\libucosii_bsp.a(alt_io_redirect.o)
                0x00836e4c                alt_io_redirect
 .text          0x00836ec4        0x0 ../projeto_final_bsp/\libucosii_bsp.a(alt_irq_entry.o)
 .text          0x00836ec4        0x0 ../projeto_final_bsp/\libucosii_bsp.a(alt_irq_handler.o)
 .text          0x00836ec4      0x2c4 ../projeto_final_bsp/\libucosii_bsp.a(alt_open.o)
                0x00836fa0                open
 .text          0x00837188      0x180 ../projeto_final_bsp/\libucosii_bsp.a(alt_read.o)
                0x00837188                alt_read
 .text          0x00837308       0x60 ../projeto_final_bsp/\libucosii_bsp.a(alt_release_fd.o)
                0x00837308                alt_release_fd
 .text          0x00837368       0x38 ../projeto_final_bsp/\libucosii_bsp.a(alt_remap_cached.o)
                0x00837368                alt_remap_cached
 .text          0x008373a0       0x40 ../projeto_final_bsp/\libucosii_bsp.a(alt_remap_uncached.o)
                0x008373a0                alt_remap_uncached
 .text          0x008373e0      0x1a8 ../projeto_final_bsp/\libucosii_bsp.a(alt_tick.o)
                0x008373e0                alt_alarm_stop
                0x00837478                alt_tick
 .text          0x00837588      0x180 ../projeto_final_bsp/\libucosii_bsp.a(alt_write.o)
                0x00837588                alt_write
 .text          0x00837708       0x20 ../projeto_final_bsp/\libucosii_bsp.a(altera_nios2_qsys_irq.o)
                0x00837708                altera_nios2_qsys_irq_init
 .text          0x00837728       0xd0 ../projeto_final_bsp/\libucosii_bsp.a(os_cpu_a.o)
                0x00837728                OSCtxSw
                0x00837728                OSIntCtxSw
                0x008377b4                OSStartHighRdy
                0x008377d4                OSStartTsk
 .text          0x008377f8      0x424 ../projeto_final_bsp/\libucosii_bsp.a(os_cpu_c.o)
                0x008377f8                OSTaskStkInit
                0x00837b08                OSTaskCreateHook
                0x00837b28                OSTaskDelHook
                0x00837b48                OSTaskSwHook
                0x00837b64                OSTaskStatHook
                0x00837b80                OSTimeTickHook
                0x00837ba8                OSInitHookBegin
                0x00837bc4                OSInitHookEnd
                0x00837be0                OSTaskIdleHook
                0x00837bfc                OSTCBInitHook
 .text          0x00837c1c      0x460 ../projeto_final_bsp/\libucosii_bsp.a(altera_avalon_cfi_flash_amd.o)
                0x00837c1c                alt_program_amd
                0x00837c84                alt_erase_block_amd
 .text          0x0083807c      0x460 ../projeto_final_bsp/\libucosii_bsp.a(altera_avalon_cfi_flash_intel.o)
                0x0083807c                alt_program_intel
                0x00838100                alt_erase_block_intel
 .text          0x008384dc      0x238 ../projeto_final_bsp/\libucosii_bsp.a(altera_avalon_spi.o)
                0x008384dc                alt_avalon_spi_command
 .text          0x00838714      0x444 ../projeto_final_bsp/\libucosii_bsp.a(allports.o)
                0x00838714                netmain_init
                0x00838810                icmp_port_du
                0x00838898                station_state
                0x008389fc                sysuptime
                0x00838a90                packet_check
                0x00838adc                mcastlist
                0x00838b00                prep_modules
 .text          0x00838b58      0x580 ../projeto_final_bsp/\libucosii_bsp.a(timeouts.o)
                0x00838b58                inet_timer
                0x00838e58                in_timerset
                0x00839030                in_timerkill
 .text          0x008390d8       0xa4 ../projeto_final_bsp/\libucosii_bsp.a(tk_misc.o)
                0x008390d8                create_apptasks
                0x008390fc                task_stats
 .text          0x0083917c       0xb0 ../projeto_final_bsp/\libucosii_bsp.a(alt_iniche_fcntl.o)
                0x0083917c                fcntl
 .text          0x0083922c     0x15b0 ../projeto_final_bsp/\libucosii_bsp.a(et_arp.o)
                0x0083922c                etainit
                0x00839280                et_send
                0x008393fc                arp_free_pending
                0x00839484                arp_send_pending
                0x008394f8                send_arp
                0x00839990                find_oldest_arp
                0x00839b8c                make_arp_entry
                0x00839ca0                arpReply
                0x00839f34                arprcv
                0x0083a194                send_via_arp
                0x0083a364                cb_arpent_tmo
                0x0083a510                grat_arp
 .text          0x0083a7dc      0x298 ../projeto_final_bsp/\libucosii_bsp.a(iface.o)
                0x0083a7dc                if_getbynum
                0x0083a860                isbcast
                0x0083a940                reg_type
                0x0083a9dc                if_killsocks
 .text          0x0083aa74     0x22a4 ../projeto_final_bsp/\libucosii_bsp.a(ip.o)
                0x0083aa74                ip_init
                0x0083ab70                ip_bldhead
                0x0083ad14                ip_write_internal
                0x0083b494                ip_write
                0x0083b6dc                ip_write2
                0x0083ba8c                ip_raw_write
                0x0083bb64                ip_fragment_lc
                0x0083bfec                ip_fragment
                0x0083c610                ip_mymach
                0x0083c6bc                ip_dump
                0x0083c974                iproute
                0x0083cbe0                ip_copypkt
 .text          0x0083cd18     0x1e08 ../projeto_final_bsp/\libucosii_bsp.a(ip_reasm.o)
                0x0083cd18                ip_reasm_match_frag_with_ire
                0x0083cde8                ip_reasm_determine_type_of_frag
                0x0083ced4                ip_reasm_check_mem_useage
                0x0083cf6c                ip_reasm_incr_mem_useage
                0x0083d014                ip_reasm_decr_mem_useage
                0x0083d0b4                ip_reasm_process_first_fragment
                0x0083d394                ip_reassm
                0x0083d434                ip_reasm_compute_overlap
                0x0083d9c4                ip_reasm_process_subsequent_fragments
                0x0083df58                ip_reasm_find_ire
                0x0083dfbc                ip_reasm_copy_queued_fragments_into_reassy_buffer
                0x0083e318                ip_reasm_process_timer_tick
                0x0083e438                ip_reasm_delete_ire
                0x0083e600                ip_reasm_mark_compact_rfq
                0x0083e748                ipr_stats
                0x0083eacc                ip_reasm_send_icmp_timex
 .text          0x0083eb20      0xe3c ../projeto_final_bsp/\libucosii_bsp.a(ipdemux.o)
                0x0083eb20                ip_rcv
                0x0083ef20                ip_rcv_phase2
                0x0083f52c                ip_demux
 .text          0x0083f95c      0x2f0 ../projeto_final_bsp/\libucosii_bsp.a(ipmc.o)
                0x0083f95c                in_addmulti
                0x0083fac4                in_delmulti
                0x0083fbdc                lookup_mcast
 .text          0x0083fc4c       0xe4 ../projeto_final_bsp/\libucosii_bsp.a(ipport.o)
                0x0083fc4c                prep_ifaces
                0x0083fce0                netexit
                0x0083fd08                evtmap_setup
 .text          0x0083fd30      0x550 ../projeto_final_bsp/\libucosii_bsp.a(ipraw.o)
                0x0083fd30                ip_raw_open
                0x0083fe20                ip_raw_close
                0x0083fee0                ip_raw_input
                0x00840118                ip_raw_alloc
                0x008401e4                ip_raw_free
                0x00840224                ip_raw_maxalloc
 .text          0x00840280      0x6f0 ../projeto_final_bsp/\libucosii_bsp.a(iproute.o)
                0x00840280                rt_lookup
                0x00840404                add_route
                0x0084082c                del_route
 .text          0x00840970      0xe3c ../projeto_final_bsp/\libucosii_bsp.a(udp.o)
                0x00840970                udpdemux
                0x008411c8                udp_send
                0x00841480                udpswap
                0x008415b0                udp_socket
                0x00841680                udp_alloc
                0x00841740                udp_maxalloc
                0x0084176c                udp_free
 .text          0x008417ac      0x2e8 ../projeto_final_bsp/\libucosii_bsp.a(igmp.o)
                0x008417ac                igmpv1_input
 .text          0x00841a94      0x7c0 ../projeto_final_bsp/\libucosii_bsp.a(igmp2.o)
                0x00841a94                igmpv2_input
                0x00841bf4                igmpv2_process_report
                0x00841d40                igmpv2_process_query
                0x00841f8c                igmpv2_chk_set_timer
                0x008420e4                igmpv2_chk4_rtr_alert_opt
 .text          0x00842254      0x8fc ../projeto_final_bsp/\libucosii_bsp.a(ipopt.o)
                0x00842254                IPADDR_TO_NETP
                0x0084239c                ip_setmoptions
                0x0084298c                ip_getmoptions
                0x00842acc                ip_freemoptions
 .text          0x00842b50      0x3d0 ../projeto_final_bsp/\libucosii_bsp.a(dhcsetup.o)
                0x00842b50                dhc_setup
                0x00842e1c                dhc_main_ipset
 .text          0x00842f20      0x40c ../projeto_final_bsp/\libucosii_bsp.a(memdev.o)
                0x00842f20                init_memdev
                0x00842f98                md_fopen
                0x00842fc0                md_fclose
                0x00842fe0                md_fread
                0x00843160                md_fwrite
                0x008431e0                md_fseek
                0x0084320c                md_ftell
                0x00843230                md_fgetc
                0x00843308                md_unlink
 .text          0x0084332c      0x1cc ../projeto_final_bsp/\libucosii_bsp.a(tcpcksum.o)
                0x0084332c                tcp_cksum
 .text          0x008434f8      0x900 ../projeto_final_bsp/\libucosii_bsp.a(in_pcb.o)
                0x008434f8                in_pcballoc
                0x0084358c                in_pcbdetach
                0x008435e0                in_pcbbind
                0x00843834                in_pcbconnect
                0x00843a44                in_pcbdisconnect
                0x00843aa4                in_setsockaddr
                0x00843b20                in_setpeeraddr
                0x00843b9c                in_pcblookup
 .text          0x00843df8     0x1a74 ../projeto_final_bsp/\libucosii_bsp.a(vfsfiles.o)
                0x00843df8                set_vfopen_error
                0x00843e20                get_vfopen_error
                0x00843e40                vf_alloc_and_link_vop
                0x00843ebc                vf_alloc_buffer
                0x00843f94                vf_free_buffer
                0x00843fe4                vfopen_locked
                0x0084434c                vfopen
                0x0084439c                vfclose_locked
                0x00844544                vfclose
                0x00844584                vfflush
                0x008445cc                vfgets
                0x008446b0                vfeof
                0x00844708                vunlink_flag_open_files
                0x00844764                vunlink
                0x00844984                vfread
                0x00844b30                vfwrite_locked
                0x00844f18                vfwrite
                0x00844f78                vfseek
                0x008450f4                vftell
                0x00845228                vgetc_locked
                0x00845348                vgetc
                0x00845390                vfslookup_locked
                0x008454c8                vfslookup
                0x00845510                strippath
                0x008456f8                isvfile_locked
                0x0084575c                isvfile
                0x008457a4                vferror
                0x00845810                vclearerr
 .text          0x0084586c       0x24 ../projeto_final_bsp/\libucosii_bsp.a(vfsport.o)
                0x0084586c                prep_vfs
 .text          0x00845890        0x0 ../projeto_final_bsp/\libucosii_bsp.a(alt_exception_entry.o)
 .text          0x00845890      0x1b4 ../projeto_final_bsp/\libucosii_bsp.a(alt_fcntl.o)
                0x00845890                alt_fcntl
 .text          0x00845a44      0x120 ../projeto_final_bsp/\libucosii_bsp.a(alt_find_file.o)
                0x00845a44                alt_find_file
 .text          0x00845b64       0xf4 ../projeto_final_bsp/\libucosii_bsp.a(alt_get_fd.o)
                0x00845b64                alt_get_fd
 .text          0x00845c58     0x130c ../projeto_final_bsp/\libucosii_bsp.a(icmp.o)
                0x00845c58                icmprcv
                0x0084688c                icmp_destun
                0x00846bdc                icmp_timex
                0x00846f10                icmp_du
 .text          0x00846f64       0x14 d:/altera/13.0sp1/nios2eds/bin/gnu/h-i686-mingw32/bin/../lib/gcc/nios2-elf/4.1.2/../../../../nios2-elf/lib\libc.a(lib_a-atexit.o)
                0x00846f64                atexit
 .text          0x00846f78       0x1c d:/altera/13.0sp1/nios2eds/bin/gnu/h-i686-mingw32/bin/../lib/gcc/nios2-elf/4.1.2/../../../../nios2-elf/lib\libc.a(lib_a-calloc.o)
                0x00846f78                calloc
 .text          0x00846f94       0x28 d:/altera/13.0sp1/nios2eds/bin/gnu/h-i686-mingw32/bin/../lib/gcc/nios2-elf/4.1.2/../../../../nios2-elf/lib\libc.a(lib_a-malloc.o)
                0x00846f94                free
                0x00846fa8                malloc
 .text          0x00846fbc       0x74 d:/altera/13.0sp1/nios2eds/bin/gnu/h-i686-mingw32/bin/../lib/gcc/nios2-elf/4.1.2/../../../../nios2-elf/lib\libc.a(lib_a-memcmp.o)
                0x00846fbc                memcmp
 .text          0x00847030       0x8c d:/altera/13.0sp1/nios2eds/bin/gnu/h-i686-mingw32/bin/../lib/gcc/nios2-elf/4.1.2/../../../../nios2-elf/lib\libc.a(lib_a-strcpy.o)
                0x00847030                strcpy
 .text          0x008470bc       0xf0 d:/altera/13.0sp1/nios2eds/bin/gnu/h-i686-mingw32/bin/../lib/gcc/nios2-elf/4.1.2/../../../../nios2-elf/lib\libc.a(lib_a-strncmp.o)
                0x008470bc                strncmp
 .text          0x008471ac       0xbc d:/altera/13.0sp1/nios2eds/bin/gnu/h-i686-mingw32/bin/../lib/gcc/nios2-elf/4.1.2/../../../../nios2-elf/lib\libc.a(lib_a-strncpy.o)
                0x008471ac                strncpy
 .text          0x00847268       0x34 d:/altera/13.0sp1/nios2eds/bin/gnu/h-i686-mingw32/bin/../lib/gcc/nios2-elf/4.1.2/../../../../nios2-elf/lib\libc.a(lib_a-vprintf.o)
                0x00847268                _vprintf_r
                0x0084727c                vprintf
 .text          0x0084729c       0x74 d:/altera/13.0sp1/nios2eds/bin/gnu/h-i686-mingw32/bin/../lib/gcc/nios2-elf/4.1.2/../../../../nios2-elf/lib\libc.a(lib_a-vsprintf.o)
                0x0084729c                _vsprintf_r
                0x008472ec                vsprintf
 .text          0x00847310      0x134 d:/altera/13.0sp1/nios2eds/bin/gnu/h-i686-mingw32/bin/../lib/gcc/nios2-elf/4.1.2/../../../../nios2-elf/lib\libc.a(lib_a-__atexit.o)
                0x00847310                __register_exitproc
 *(.gnu.warning.*)
 *(.fini)
                0x00847444                PROVIDE (__etext, ABSOLUTE (.))
                0x00847444                PROVIDE (_etext, ABSOLUTE (.))
                0x00847444                PROVIDE (etext, ABSOLUTE (.))
 *(.eh_frame_hdr)
                0x00847444                . = ALIGN (0x4)
                0x00847444                PROVIDE (__preinit_array_start, ABSOLUTE (.))
 *(.preinit_array)
                0x00847444                PROVIDE (__preinit_array_end, ABSOLUTE (.))
                0x00847444                PROVIDE (__init_array_start, ABSOLUTE (.))
 *(.init_array)
                0x00847444                PROVIDE (__init_array_end, ABSOLUTE (.))
                0x00847444                PROVIDE (__fini_array_start, ABSOLUTE (.))
 *(.fini_array)
                0x00847444                PROVIDE (__fini_array_end, ABSOLUTE (.))
 *(.eh_frame)
 *(.gcc_except_table)
 *(.dynamic)
                0x00847444                PROVIDE (__CTOR_LIST__, ABSOLUTE (.))
 *(.ctors)
 *(SORT(.ctors.*))
 .ctors.65535   0x00847444        0x4 d:/altera/13.0sp1/nios2eds/bin/gnu/h-i686-mingw32/bin/../lib/gcc/nios2-elf/4.1.2/../../../../nios2-elf/lib\libc.a(lib_a-__call_atexit.o)
                0x00847448                PROVIDE (__CTOR_END__, ABSOLUTE (.))
                0x00847448                PROVIDE (__DTOR_LIST__, ABSOLUTE (.))
 *(.dtors)
 *(SORT(.dtors.*))
                0x00847448                PROVIDE (__DTOR_END__, ABSOLUTE (.))
 *(.jcr)
                0x00847448                . = ALIGN (0x4)

.rodata         0x00847448     0x431c
                0x00847448                PROVIDE (__ram_rodata_start, ABSOLUTE (.))
                0x00847448                . = ALIGN (0x4)
 *(.rodata .rodata.* .gnu.linkonce.r.*)
 .rodata        0x00847448       0x60 obj/default/LCD.o
 .rodata        0x008474a8       0xa8 obj/default/SSS_DE2_115.o
 .rodata        0x00847550      0xba4 obj/default/alt_error_handler.o
 .rodata        0x008480f4       0x64 obj/default/dm9000a.o
 .rodata        0x00848158      0x4d0 obj/default/iniche_init.o
 .rodata        0x00848628      0x234 obj/default/network_utilities.o
 .rodata        0x0084885c      0x2e0 obj/default/simple_socket_server.o
 .rodata        0x00848b3c       0x14 d:/altera/13.0sp1/nios2eds/bin/gnu/h-i686-mingw32/bin/../lib/gcc/nios2-elf/4.1.2\libgcc.a(_thenan_df.o)
                0x00848b3c                __thenan_df
 .rodata        0x00848b50      0x100 d:/altera/13.0sp1/nios2eds/bin/gnu/h-i686-mingw32/bin/../lib/gcc/nios2-elf/4.1.2\libgcc.a(_clz.o)
                0x00848b50                __clz_tab
 .rodata        0x00848c50      0x281 d:/altera/13.0sp1/nios2eds/bin/gnu/h-i686-mingw32/bin/../lib/gcc/nios2-elf/4.1.2/../../../../nios2-elf/lib\libc.a(lib_a-ctype_.o)
                0x00848c50                _ctype_
 *fill*         0x00848ed1        0x3 00
 .rodata.str1.4
                0x00848ed4        0x2 d:/altera/13.0sp1/nios2eds/bin/gnu/h-i686-mingw32/bin/../lib/gcc/nios2-elf/4.1.2/../../../../nios2-elf/lib\libc.a(lib_a-impure.o)
                                  0x4 (size before relaxing)
 *fill*         0x00848ed6        0x2 00
 .rodata.str1.4
                0x00848ed8        0x3 d:/altera/13.0sp1/nios2eds/bin/gnu/h-i686-mingw32/bin/../lib/gcc/nios2-elf/4.1.2/../../../../nios2-elf/lib\libc.a(lib_a-perror.o)
                                  0x4 (size before relaxing)
 *fill*         0x00848edb        0x1 00
 .rodata.str1.4
                0x00848edc        0x2 d:/altera/13.0sp1/nios2eds/bin/gnu/h-i686-mingw32/bin/../lib/gcc/nios2-elf/4.1.2/../../../../nios2-elf/lib\libc.a(lib_a-puts.o)
                                  0x4 (size before relaxing)
 *fill*         0x00848ede        0x2 00
 .rodata.str1.4
                0x00848ee0      0x7a2 d:/altera/13.0sp1/nios2eds/bin/gnu/h-i686-mingw32/bin/../lib/gcc/nios2-elf/4.1.2/../../../../nios2-elf/lib\libc.a(lib_a-strerror.o)
                                0x7a8 (size before relaxing)
 *fill*         0x00849682        0x2 00
 .rodata.str1.4
                0x00849684       0x5e d:/altera/13.0sp1/nios2eds/bin/gnu/h-i686-mingw32/bin/../lib/gcc/nios2-elf/4.1.2/../../../../nios2-elf/lib\libc.a(lib_a-vfprintf.o)
                                 0x60 (size before relaxing)
 .rodata        0x008496e2       0x20 d:/altera/13.0sp1/nios2eds/bin/gnu/h-i686-mingw32/bin/../lib/gcc/nios2-elf/4.1.2/../../../../nios2-elf/lib\libc.a(lib_a-vfprintf.o)
 *fill*         0x00849702        0x2 00
 .rodata.str1.4
                0x00849704       0x10 d:/altera/13.0sp1/nios2eds/bin/gnu/h-i686-mingw32/bin/../lib/gcc/nios2-elf/4.1.2/../../../../nios2-elf/lib\libc.a(lib_a-dtoa.o)
                                 0x14 (size before relaxing)
 .rodata.str1.4
                0x00849714       0x10 d:/altera/13.0sp1/nios2eds/bin/gnu/h-i686-mingw32/bin/../lib/gcc/nios2-elf/4.1.2/../../../../nios2-elf/lib\libc.a(lib_a-locale.o)
                                 0x18 (size before relaxing)
 .rodata        0x00849724       0x30 d:/altera/13.0sp1/nios2eds/bin/gnu/h-i686-mingw32/bin/../lib/gcc/nios2-elf/4.1.2/../../../../nios2-elf/lib\libc.a(lib_a-locale.o)
 .rodata        0x00849754      0x124 d:/altera/13.0sp1/nios2eds/bin/gnu/h-i686-mingw32/bin/../lib/gcc/nios2-elf/4.1.2/../../../../nios2-elf/lib\libc.a(lib_a-mprec.o)
                0x00849754                __mprec_tens
                0x0084981c                __mprec_bigtens
                0x00849844                __mprec_tinytens
 .rodata        0x00849878       0x14 ../projeto_final_bsp/\libucosii_bsp.a(alt_main.o)
 .rodata        0x0084988c      0x120 ../projeto_final_bsp/\libucosii_bsp.a(os_core.o)
                0x0084988c                OSUnMapTbl
 .rodata        0x008499ac       0x60 ../projeto_final_bsp/\libucosii_bsp.a(alt_sys_init.o)
 .rodata        0x00849a0c       0xd8 ../projeto_final_bsp/\libucosii_bsp.a(ipnet.o)
 .rodata        0x00849ae4       0xec ../projeto_final_bsp/\libucosii_bsp.a(ipstart.o)
 .rodata        0x00849bd0      0x54c ../projeto_final_bsp/\libucosii_bsp.a(igmp_cmn.o)
 .rodata        0x0084a11c       0xb8 ../projeto_final_bsp/\libucosii_bsp.a(in_utils.o)
 .rodata        0x0084a1d4       0x34 ../projeto_final_bsp/\libucosii_bsp.a(netmain.o)
 .rodata        0x0084a208       0x94 ../projeto_final_bsp/\libucosii_bsp.a(parseip.o)
 .rodata        0x0084a29c      0x1a8 ../projeto_final_bsp/\libucosii_bsp.a(tk_crnos.o)
 .rodata        0x0084a444        0x8 ../projeto_final_bsp/\libucosii_bsp.a(dhcpclnt.o)
 .rodata        0x0084a44c      0x118 ../projeto_final_bsp/\libucosii_bsp.a(pktalloc.o)
 .rodata        0x0084a564       0x84 ../projeto_final_bsp/\libucosii_bsp.a(udp_open.o)
 .rodata        0x0084a5e8       0x2c ../projeto_final_bsp/\libucosii_bsp.a(brdutils.o)
 .rodata        0x0084a614      0x26c ../projeto_final_bsp/\libucosii_bsp.a(osportco.o)
 .rodata        0x0084a880       0xa0 ../projeto_final_bsp/\libucosii_bsp.a(targnios.o)
 .rodata        0x0084a920       0x90 ../projeto_final_bsp/\libucosii_bsp.a(nptcp.o)
 .rodata        0x0084a9b0        0x8 ../projeto_final_bsp/\libucosii_bsp.a(sockcall.o)
 .rodata        0x0084a9b8       0x50 ../projeto_final_bsp/\libucosii_bsp.a(socket.o)
 .rodata        0x0084aa08       0x40 ../projeto_final_bsp/\libucosii_bsp.a(socket2.o)
 .rodata        0x0084aa48       0x20 ../projeto_final_bsp/\libucosii_bsp.a(tcp_in.o)
 .rodata        0x0084aa68       0x40 ../projeto_final_bsp/\libucosii_bsp.a(tcp_out.o)
 .rodata        0x0084aaa8       0x24 ../projeto_final_bsp/\libucosii_bsp.a(tcp_subr.o)
 .rodata        0x0084aacc       0x2c ../projeto_final_bsp/\libucosii_bsp.a(tcp_usr.o)
 .rodata        0x0084aaf8        0xc ../projeto_final_bsp/\libucosii_bsp.a(alt_dev.o)
 .rodata        0x0084ab04        0x4 ../projeto_final_bsp/\libucosii_bsp.a(os_cpu_c.o)
 .rodata        0x0084ab08      0x1d4 ../projeto_final_bsp/\libucosii_bsp.a(allports.o)
 .rodata        0x0084acdc       0x34 ../projeto_final_bsp/\libucosii_bsp.a(tk_misc.o)
 .rodata        0x0084ad10       0x44 ../projeto_final_bsp/\libucosii_bsp.a(et_arp.o)
 .rodata        0x0084ad54      0x1dc ../projeto_final_bsp/\libucosii_bsp.a(ip.o)
 .rodata        0x0084af30      0x158 ../projeto_final_bsp/\libucosii_bsp.a(ip_reasm.o)
 .rodata        0x0084b088      0x120 ../projeto_final_bsp/\libucosii_bsp.a(ipdemux.o)
 .rodata        0x0084b1a8       0x34 ../projeto_final_bsp/\libucosii_bsp.a(ipport.o)
 .rodata        0x0084b1dc       0x24 ../projeto_final_bsp/\libucosii_bsp.a(ipraw.o)
 .rodata        0x0084b200       0x38 ../projeto_final_bsp/\libucosii_bsp.a(iproute.o)
 .rodata        0x0084b238       0xe8 ../projeto_final_bsp/\libucosii_bsp.a(udp.o)
 .rodata        0x0084b320       0xf8 ../projeto_final_bsp/\libucosii_bsp.a(dhcsetup.o)
 .rodata        0x0084b418       0x34 ../projeto_final_bsp/\libucosii_bsp.a(vfsfiles.o)
 .rodata        0x0084b44c      0x318 ../projeto_final_bsp/\libucosii_bsp.a(icmp.o)
 *(.rodata1)
                0x0084b764                . = ALIGN (0x4)
                0x0084b764                PROVIDE (__ram_rodata_end, ABSOLUTE (.))
                0x00847448                PROVIDE (__flash_rodata_start, LOADADDR (.rodata))

.rwdata         0x0084b764     0x213c
                0x0084b764                PROVIDE (__ram_rwdata_start, ABSOLUTE (.))
                0x0084b764                . = ALIGN (0x4)
 *(.got.plt)
 *(.got)
 *(.data1)
 *(.data .data.* .gnu.linkonce.d.*)
 .data          0x0084b764        0x0 ../projeto_final_bsp//obj/HAL/src/crt0.o
 .data          0x0084b764        0x0 obj/default/LCD.o
 .data          0x0084b764        0x0 obj/default/SSS_DE2_115.o
 .data          0x0084b764        0x0 obj/default/alt_error_handler.o
 .data          0x0084b764        0x0 obj/default/dm9000a.o
 .data          0x0084b764       0x18 obj/default/iniche_init.o
                0x0084b764                ssstask
 .data          0x0084b77c        0x0 obj/default/led.o
 .data          0x0084b77c        0x0 obj/default/network_utilities.o
 .data          0x0084b77c        0x0 obj/default/simple_socket_server.o
 .data          0x0084b77c        0x0 obj/default/tse_my_system.o
 .data          0x0084b77c        0x0 d:/altera/13.0sp1/nios2eds/bin/gnu/h-i686-mingw32/bin/../lib/gcc/nios2-elf/4.1.2\libgcc.a(_fixunsdfsi.o)
 .data          0x0084b77c        0x0 d:/altera/13.0sp1/nios2eds/bin/gnu/h-i686-mingw32/bin/../lib/gcc/nios2-elf/4.1.2\libgcc.a(_addsub_df.o)
 .data          0x0084b77c        0x0 d:/altera/13.0sp1/nios2eds/bin/gnu/h-i686-mingw32/bin/../lib/gcc/nios2-elf/4.1.2\libgcc.a(_mul_df.o)
 .data          0x0084b77c        0x0 d:/altera/13.0sp1/nios2eds/bin/gnu/h-i686-mingw32/bin/../lib/gcc/nios2-elf/4.1.2\libgcc.a(_ge_df.o)
 .data          0x0084b77c        0x0 d:/altera/13.0sp1/nios2eds/bin/gnu/h-i686-mingw32/bin/../lib/gcc/nios2-elf/4.1.2\libgcc.a(_df_to_si.o)
 .data          0x0084b77c        0x0 d:/altera/13.0sp1/nios2eds/bin/gnu/h-i686-mingw32/bin/../lib/gcc/nios2-elf/4.1.2\libgcc.a(_thenan_df.o)
 .data          0x0084b77c        0x0 d:/altera/13.0sp1/nios2eds/bin/gnu/h-i686-mingw32/bin/../lib/gcc/nios2-elf/4.1.2\libgcc.a(_usi_to_df.o)
 .data          0x0084b77c        0x0 d:/altera/13.0sp1/nios2eds/bin/gnu/h-i686-mingw32/bin/../lib/gcc/nios2-elf/4.1.2\libgcc.a(_muldi3.o)
 .data          0x0084b77c        0x0 d:/altera/13.0sp1/nios2eds/bin/gnu/h-i686-mingw32/bin/../lib/gcc/nios2-elf/4.1.2\libgcc.a(_clzsi2.o)
 .data          0x0084b77c        0x0 d:/altera/13.0sp1/nios2eds/bin/gnu/h-i686-mingw32/bin/../lib/gcc/nios2-elf/4.1.2\libgcc.a(_pack_df.o)
 .data          0x0084b77c        0x0 d:/altera/13.0sp1/nios2eds/bin/gnu/h-i686-mingw32/bin/../lib/gcc/nios2-elf/4.1.2\libgcc.a(_unpack_df.o)
 .data          0x0084b77c        0x0 d:/altera/13.0sp1/nios2eds/bin/gnu/h-i686-mingw32/bin/../lib/gcc/nios2-elf/4.1.2\libgcc.a(_fpcmp_parts_df.o)
 .data          0x0084b77c        0x0 d:/altera/13.0sp1/nios2eds/bin/gnu/h-i686-mingw32/bin/../lib/gcc/nios2-elf/4.1.2\libgcc.a(_clz.o)
 .data          0x0084b77c        0x0 d:/altera/13.0sp1/nios2eds/bin/gnu/h-i686-mingw32/bin/../lib/gcc/nios2-elf/4.1.2/../../../../nios2-elf/lib\libc.a(lib_a-atoi.o)
 .data          0x0084b77c        0x0 d:/altera/13.0sp1/nios2eds/bin/gnu/h-i686-mingw32/bin/../lib/gcc/nios2-elf/4.1.2/../../../../nios2-elf/lib\libc.a(lib_a-ctype_.o)
 .data          0x0084b77c        0x0 d:/altera/13.0sp1/nios2eds/bin/gnu/h-i686-mingw32/bin/../lib/gcc/nios2-elf/4.1.2/../../../../nios2-elf/lib\libc.a(lib_a-errno.o)
 .data          0x0084b77c        0x0 d:/altera/13.0sp1/nios2eds/bin/gnu/h-i686-mingw32/bin/../lib/gcc/nios2-elf/4.1.2/../../../../nios2-elf/lib\libc.a(lib_a-exit.o)
 .data          0x0084b77c        0x0 d:/altera/13.0sp1/nios2eds/bin/gnu/h-i686-mingw32/bin/../lib/gcc/nios2-elf/4.1.2/../../../../nios2-elf/lib\libc.a(lib_a-fprintf.o)
 .data          0x0084b77c        0x0 d:/altera/13.0sp1/nios2eds/bin/gnu/h-i686-mingw32/bin/../lib/gcc/nios2-elf/4.1.2/../../../../nios2-elf/lib\libc.a(lib_a-fwrite.o)
 .data          0x0084b77c        0x0 d:/altera/13.0sp1/nios2eds/bin/gnu/h-i686-mingw32/bin/../lib/gcc/nios2-elf/4.1.2/../../../../nios2-elf/lib\libc.a(lib_a-getc.o)
 .data          0x0084b77c      0x400 d:/altera/13.0sp1/nios2eds/bin/gnu/h-i686-mingw32/bin/../lib/gcc/nios2-elf/4.1.2/../../../../nios2-elf/lib\libc.a(lib_a-impure.o)
 .data          0x0084bb7c        0x0 d:/altera/13.0sp1/nios2eds/bin/gnu/h-i686-mingw32/bin/../lib/gcc/nios2-elf/4.1.2/../../../../nios2-elf/lib\libc.a(lib_a-memcpy.o)
 .data          0x0084bb7c        0x0 d:/altera/13.0sp1/nios2eds/bin/gnu/h-i686-mingw32/bin/../lib/gcc/nios2-elf/4.1.2/../../../../nios2-elf/lib\libc.a(lib_a-memmove.o)
 .data          0x0084bb7c        0x0 d:/altera/13.0sp1/nios2eds/bin/gnu/h-i686-mingw32/bin/../lib/gcc/nios2-elf/4.1.2/../../../../nios2-elf/lib\libc.a(lib_a-memset.o)
 .data          0x0084bb7c        0x0 d:/altera/13.0sp1/nios2eds/bin/gnu/h-i686-mingw32/bin/../lib/gcc/nios2-elf/4.1.2/../../../../nios2-elf/lib\libc.a(lib_a-perror.o)
 .data          0x0084bb7c        0x0 d:/altera/13.0sp1/nios2eds/bin/gnu/h-i686-mingw32/bin/../lib/gcc/nios2-elf/4.1.2/../../../../nios2-elf/lib\libc.a(lib_a-printf.o)
 .data          0x0084bb7c        0x0 d:/altera/13.0sp1/nios2eds/bin/gnu/h-i686-mingw32/bin/../lib/gcc/nios2-elf/4.1.2/../../../../nios2-elf/lib\libc.a(lib_a-putc.o)
 .data          0x0084bb7c        0x0 d:/altera/13.0sp1/nios2eds/bin/gnu/h-i686-mingw32/bin/../lib/gcc/nios2-elf/4.1.2/../../../../nios2-elf/lib\libc.a(lib_a-putchar.o)
 .data          0x0084bb7c        0x0 d:/altera/13.0sp1/nios2eds/bin/gnu/h-i686-mingw32/bin/../lib/gcc/nios2-elf/4.1.2/../../../../nios2-elf/lib\libc.a(lib_a-puts.o)
 .data          0x0084bb7c        0x0 d:/altera/13.0sp1/nios2eds/bin/gnu/h-i686-mingw32/bin/../lib/gcc/nios2-elf/4.1.2/../../../../nios2-elf/lib\libc.a(lib_a-rget.o)
 .data          0x0084bb7c        0x0 d:/altera/13.0sp1/nios2eds/bin/gnu/h-i686-mingw32/bin/../lib/gcc/nios2-elf/4.1.2/../../../../nios2-elf/lib\libc.a(lib_a-snprintf.o)
 .data          0x0084bb7c        0x0 d:/altera/13.0sp1/nios2eds/bin/gnu/h-i686-mingw32/bin/../lib/gcc/nios2-elf/4.1.2/../../../../nios2-elf/lib\libc.a(lib_a-sprintf.o)
 .data          0x0084bb7c        0x0 d:/altera/13.0sp1/nios2eds/bin/gnu/h-i686-mingw32/bin/../lib/gcc/nios2-elf/4.1.2/../../../../nios2-elf/lib\libc.a(lib_a-strchr.o)
 .data          0x0084bb7c        0x0 d:/altera/13.0sp1/nios2eds/bin/gnu/h-i686-mingw32/bin/../lib/gcc/nios2-elf/4.1.2/../../../../nios2-elf/lib\libc.a(lib_a-strcmp.o)
 .data          0x0084bb7c        0x0 d:/altera/13.0sp1/nios2eds/bin/gnu/h-i686-mingw32/bin/../lib/gcc/nios2-elf/4.1.2/../../../../nios2-elf/lib\libc.a(lib_a-strerror.o)
 .data          0x0084bb7c        0x0 d:/altera/13.0sp1/nios2eds/bin/gnu/h-i686-mingw32/bin/../lib/gcc/nios2-elf/4.1.2/../../../../nios2-elf/lib\libc.a(lib_a-strlen.o)
 .data          0x0084bb7c        0x0 d:/altera/13.0sp1/nios2eds/bin/gnu/h-i686-mingw32/bin/../lib/gcc/nios2-elf/4.1.2/../../../../nios2-elf/lib\libc.a(lib_a-strtok.o)
 .data          0x0084bb7c        0x0 d:/altera/13.0sp1/nios2eds/bin/gnu/h-i686-mingw32/bin/../lib/gcc/nios2-elf/4.1.2/../../../../nios2-elf/lib\libc.a(lib_a-strtok_r.o)
 .data          0x0084bb7c        0x0 d:/altera/13.0sp1/nios2eds/bin/gnu/h-i686-mingw32/bin/../lib/gcc/nios2-elf/4.1.2/../../../../nios2-elf/lib\libc.a(lib_a-strtol.o)
 .data          0x0084bb7c        0x0 d:/altera/13.0sp1/nios2eds/bin/gnu/h-i686-mingw32/bin/../lib/gcc/nios2-elf/4.1.2/../../../../nios2-elf/lib\libc.a(lib_a-u_strerr.o)
 .data          0x0084bb7c        0x0 d:/altera/13.0sp1/nios2eds/bin/gnu/h-i686-mingw32/bin/../lib/gcc/nios2-elf/4.1.2/../../../../nios2-elf/lib\libc.a(lib_a-vfprintf.o)
 .data          0x0084bb7c        0x0 d:/altera/13.0sp1/nios2eds/bin/gnu/h-i686-mingw32/bin/../lib/gcc/nios2-elf/4.1.2/../../../../nios2-elf/lib\libc.a(lib_a-wbuf.o)
 .data          0x0084bb7c        0x0 d:/altera/13.0sp1/nios2eds/bin/gnu/h-i686-mingw32/bin/../lib/gcc/nios2-elf/4.1.2/../../../../nios2-elf/lib\libc.a(lib_a-wsetup.o)
 .data          0x0084bb7c        0x0 d:/altera/13.0sp1/nios2eds/bin/gnu/h-i686-mingw32/bin/../lib/gcc/nios2-elf/4.1.2/../../../../nios2-elf/lib\libc.a(lib_a-__call_atexit.o)
 .data          0x0084bb7c        0x0 d:/altera/13.0sp1/nios2eds/bin/gnu/h-i686-mingw32/bin/../lib/gcc/nios2-elf/4.1.2/../../../../nios2-elf/lib\libc.a(lib_a-dtoa.o)
 .data          0x0084bb7c        0x0 d:/altera/13.0sp1/nios2eds/bin/gnu/h-i686-mingw32/bin/../lib/gcc/nios2-elf/4.1.2/../../../../nios2-elf/lib\libc.a(lib_a-fflush.o)
 .data          0x0084bb7c        0x0 d:/altera/13.0sp1/nios2eds/bin/gnu/h-i686-mingw32/bin/../lib/gcc/nios2-elf/4.1.2/../../../../nios2-elf/lib\libc.a(lib_a-findfp.o)
 .data          0x0084bb7c        0x0 d:/altera/13.0sp1/nios2eds/bin/gnu/h-i686-mingw32/bin/../lib/gcc/nios2-elf/4.1.2/../../../../nios2-elf/lib\libc.a(lib_a-fputc.o)
 .data          0x0084bb7c        0x0 d:/altera/13.0sp1/nios2eds/bin/gnu/h-i686-mingw32/bin/../lib/gcc/nios2-elf/4.1.2/../../../../nios2-elf/lib\libc.a(lib_a-fputs.o)
 .data          0x0084bb7c        0x0 d:/altera/13.0sp1/nios2eds/bin/gnu/h-i686-mingw32/bin/../lib/gcc/nios2-elf/4.1.2/../../../../nios2-elf/lib\libc.a(lib_a-freer.o)
 .data          0x0084bb7c        0x0 d:/altera/13.0sp1/nios2eds/bin/gnu/h-i686-mingw32/bin/../lib/gcc/nios2-elf/4.1.2/../../../../nios2-elf/lib\libc.a(lib_a-fvwrite.o)
 .data          0x0084bb7c        0x0 d:/altera/13.0sp1/nios2eds/bin/gnu/h-i686-mingw32/bin/../lib/gcc/nios2-elf/4.1.2/../../../../nios2-elf/lib\libc.a(lib_a-fwalk.o)
 .data          0x0084bb7c        0xc d:/altera/13.0sp1/nios2eds/bin/gnu/h-i686-mingw32/bin/../lib/gcc/nios2-elf/4.1.2/../../../../nios2-elf/lib\libc.a(lib_a-locale.o)
                0x0084bb7c                __lc_ctype
 .data          0x0084bb88        0x0 d:/altera/13.0sp1/nios2eds/bin/gnu/h-i686-mingw32/bin/../lib/gcc/nios2-elf/4.1.2/../../../../nios2-elf/lib\libc.a(lib_a-makebuf.o)
 .data          0x0084bb88      0x408 d:/altera/13.0sp1/nios2eds/bin/gnu/h-i686-mingw32/bin/../lib/gcc/nios2-elf/4.1.2/../../../../nios2-elf/lib\libc.a(lib_a-mallocr.o)
                0x0084bb88                __malloc_av_
 .data          0x0084bf90        0x0 d:/altera/13.0sp1/nios2eds/bin/gnu/h-i686-mingw32/bin/../lib/gcc/nios2-elf/4.1.2/../../../../nios2-elf/lib\libc.a(lib_a-memchr.o)
 .data          0x0084bf90        0x0 d:/altera/13.0sp1/nios2eds/bin/gnu/h-i686-mingw32/bin/../lib/gcc/nios2-elf/4.1.2/../../../../nios2-elf/lib\libc.a(lib_a-mprec.o)
 .data          0x0084bf90        0x0 d:/altera/13.0sp1/nios2eds/bin/gnu/h-i686-mingw32/bin/../lib/gcc/nios2-elf/4.1.2/../../../../nios2-elf/lib\libc.a(lib_a-reallocr.o)
 .data          0x0084bf90        0x0 d:/altera/13.0sp1/nios2eds/bin/gnu/h-i686-mingw32/bin/../lib/gcc/nios2-elf/4.1.2/../../../../nios2-elf/lib\libc.a(lib_a-refill.o)
 .data          0x0084bf90        0x0 d:/altera/13.0sp1/nios2eds/bin/gnu/h-i686-mingw32/bin/../lib/gcc/nios2-elf/4.1.2/../../../../nios2-elf/lib\libc.a(lib_a-s_isinfd.o)
 .data          0x0084bf90        0x0 d:/altera/13.0sp1/nios2eds/bin/gnu/h-i686-mingw32/bin/../lib/gcc/nios2-elf/4.1.2/../../../../nios2-elf/lib\libc.a(lib_a-s_isnand.o)
 .data          0x0084bf90        0x0 d:/altera/13.0sp1/nios2eds/bin/gnu/h-i686-mingw32/bin/../lib/gcc/nios2-elf/4.1.2/../../../../nios2-elf/lib\libc.a(lib_a-sbrkr.o)
 .data          0x0084bf90        0x0 d:/altera/13.0sp1/nios2eds/bin/gnu/h-i686-mingw32/bin/../lib/gcc/nios2-elf/4.1.2/../../../../nios2-elf/lib\libc.a(lib_a-stdio.o)
 .data          0x0084bf90        0x0 d:/altera/13.0sp1/nios2eds/bin/gnu/h-i686-mingw32/bin/../lib/gcc/nios2-elf/4.1.2/../../../../nios2-elf/lib\libc.a(lib_a-writer.o)
 .data          0x0084bf90        0x0 d:/altera/13.0sp1/nios2eds/bin/gnu/h-i686-mingw32/bin/../lib/gcc/nios2-elf/4.1.2/../../../../nios2-elf/lib\libc.a(lib_a-callocr.o)
 .data          0x0084bf90        0x0 d:/altera/13.0sp1/nios2eds/bin/gnu/h-i686-mingw32/bin/../lib/gcc/nios2-elf/4.1.2/../../../../nios2-elf/lib\libc.a(lib_a-closer.o)
 .data          0x0084bf90        0x0 d:/altera/13.0sp1/nios2eds/bin/gnu/h-i686-mingw32/bin/../lib/gcc/nios2-elf/4.1.2/../../../../nios2-elf/lib\libc.a(lib_a-fclose.o)
 .data          0x0084bf90        0x0 d:/altera/13.0sp1/nios2eds/bin/gnu/h-i686-mingw32/bin/../lib/gcc/nios2-elf/4.1.2/../../../../nios2-elf/lib\libc.a(lib_a-fstatr.o)
 .data          0x0084bf90        0x0 d:/altera/13.0sp1/nios2eds/bin/gnu/h-i686-mingw32/bin/../lib/gcc/nios2-elf/4.1.2/../../../../nios2-elf/lib\libc.a(lib_a-int_errno.o)
 .data          0x0084bf90        0x0 d:/altera/13.0sp1/nios2eds/bin/gnu/h-i686-mingw32/bin/../lib/gcc/nios2-elf/4.1.2/../../../../nios2-elf/lib\libc.a(lib_a-isattyr.o)
 .data          0x0084bf90        0x0 d:/altera/13.0sp1/nios2eds/bin/gnu/h-i686-mingw32/bin/../lib/gcc/nios2-elf/4.1.2/../../../../nios2-elf/lib\libc.a(lib_a-lseekr.o)
 .data          0x0084bf90        0x0 d:/altera/13.0sp1/nios2eds/bin/gnu/h-i686-mingw32/bin/../lib/gcc/nios2-elf/4.1.2/../../../../nios2-elf/lib\libc.a(lib_a-readr.o)
 .data          0x0084bf90        0x0 d:/altera/13.0sp1/nios2eds/bin/gnu/h-i686-mingw32/bin/../lib/gcc/nios2-elf/4.1.2\libgcc.a(_udivdi3.o)
 .data          0x0084bf90        0x0 d:/altera/13.0sp1/nios2eds/bin/gnu/h-i686-mingw32/bin/../lib/gcc/nios2-elf/4.1.2\libgcc.a(_umoddi3.o)
 .data          0x0084bf90        0x0 d:/altera/13.0sp1/nios2eds/bin/gnu/h-i686-mingw32/bin/../lib/gcc/nios2-elf/4.1.2\libgcc.a(_div_df.o)
 .data          0x0084bf90        0x0 d:/altera/13.0sp1/nios2eds/bin/gnu/h-i686-mingw32/bin/../lib/gcc/nios2-elf/4.1.2\libgcc.a(_eq_df.o)
 .data          0x0084bf90        0x0 d:/altera/13.0sp1/nios2eds/bin/gnu/h-i686-mingw32/bin/../lib/gcc/nios2-elf/4.1.2\libgcc.a(_ne_df.o)
 .data          0x0084bf90        0x0 d:/altera/13.0sp1/nios2eds/bin/gnu/h-i686-mingw32/bin/../lib/gcc/nios2-elf/4.1.2\libgcc.a(_gt_df.o)
 .data          0x0084bf90        0x0 d:/altera/13.0sp1/nios2eds/bin/gnu/h-i686-mingw32/bin/../lib/gcc/nios2-elf/4.1.2\libgcc.a(_lt_df.o)
 .data          0x0084bf90        0x0 d:/altera/13.0sp1/nios2eds/bin/gnu/h-i686-mingw32/bin/../lib/gcc/nios2-elf/4.1.2\libgcc.a(_si_to_df.o)
 .data          0x0084bf90        0x0 d:/altera/13.0sp1/nios2eds/bin/gnu/h-i686-mingw32/bin/../lib/gcc/nios2-elf/4.1.2\libgcc.a(lib2-divmod.o)
 .data          0x0084bf90        0x0 ../projeto_final_bsp/\libucosii_bsp.a(alt_exit.o)
 .data          0x0084bf90        0x0 ../projeto_final_bsp/\libucosii_bsp.a(alt_flash_dev.o)
 .data          0x0084bf90        0x0 ../projeto_final_bsp/\libucosii_bsp.a(alt_fstat.o)
 .data          0x0084bf90        0x0 ../projeto_final_bsp/\libucosii_bsp.a(alt_irq_register.o)
 .data          0x0084bf90        0x0 ../projeto_final_bsp/\libucosii_bsp.a(alt_irq_vars.o)
 .data          0x0084bf90        0x0 ../projeto_final_bsp/\libucosii_bsp.a(alt_isatty.o)
 .data          0x0084bf90        0x0 ../projeto_final_bsp/\libucosii_bsp.a(alt_lseek.o)
 .data          0x0084bf90        0x0 ../projeto_final_bsp/\libucosii_bsp.a(alt_main.o)
 .data          0x0084bf90        0x0 ../projeto_final_bsp/\libucosii_bsp.a(alt_sbrk.o)
 .data          0x0084bf90        0x0 ../projeto_final_bsp/\libucosii_bsp.a(alt_usleep.o)
 .data          0x0084bf90        0x0 ../projeto_final_bsp/\libucosii_bsp.a(alt_env_lock.o)
 .data          0x0084bf90        0x0 ../projeto_final_bsp/\libucosii_bsp.a(alt_malloc_lock.o)
 .data          0x0084bf90        0x0 ../projeto_final_bsp/\libucosii_bsp.a(os_core.o)
 .data          0x0084bf90        0x0 ../projeto_final_bsp/\libucosii_bsp.a(os_dbg.o)
 .data          0x0084bf90        0x0 ../projeto_final_bsp/\libucosii_bsp.a(os_flag.o)
 .data          0x0084bf90        0x0 ../projeto_final_bsp/\libucosii_bsp.a(os_mem.o)
 .data          0x0084bf90        0x0 ../projeto_final_bsp/\libucosii_bsp.a(os_q.o)
 .data          0x0084bf90        0x0 ../projeto_final_bsp/\libucosii_bsp.a(os_sem.o)
 .data          0x0084bf90        0x0 ../projeto_final_bsp/\libucosii_bsp.a(os_task.o)
 .data          0x0084bf90        0x0 ../projeto_final_bsp/\libucosii_bsp.a(os_time.o)
 .data          0x0084bf90     0x1400 ../projeto_final_bsp/\libucosii_bsp.a(alt_sys_init.o)
 .data          0x0084d390        0x0 ../projeto_final_bsp/\libucosii_bsp.a(altera_avalon_cfi_flash.o)
 .data          0x0084d390        0x0 ../projeto_final_bsp/\libucosii_bsp.a(altera_avalon_cfi_flash_table.o)
 .data          0x0084d390        0x0 ../projeto_final_bsp/\libucosii_bsp.a(altera_avalon_epcs_flash_controller.o)
 .data          0x0084d390        0x0 ../projeto_final_bsp/\libucosii_bsp.a(altera_avalon_jtag_uart_fd.o)
 .data          0x0084d390        0x0 ../projeto_final_bsp/\libucosii_bsp.a(altera_avalon_jtag_uart_init.o)
 .data          0x0084d390        0x0 ../projeto_final_bsp/\libucosii_bsp.a(altera_avalon_jtag_uart_ioctl.o)
 .data          0x0084d390        0x0 ../projeto_final_bsp/\libucosii_bsp.a(altera_avalon_jtag_uart_read.o)
 .data          0x0084d390        0x0 ../projeto_final_bsp/\libucosii_bsp.a(altera_avalon_jtag_uart_write.o)
 .data          0x0084d390        0x0 ../projeto_final_bsp/\libucosii_bsp.a(altera_avalon_lcd_16207.o)
 .data          0x0084d390        0x0 ../projeto_final_bsp/\libucosii_bsp.a(altera_avalon_lcd_16207_fd.o)
 .data          0x0084d390        0x0 ../projeto_final_bsp/\libucosii_bsp.a(altera_avalon_timer_sc.o)
 .data          0x0084d390        0x0 ../projeto_final_bsp/\libucosii_bsp.a(altera_avalon_uart_fd.o)
 .data          0x0084d390        0x0 ../projeto_final_bsp/\libucosii_bsp.a(altera_avalon_uart_init.o)
 .data          0x0084d390        0x0 ../projeto_final_bsp/\libucosii_bsp.a(altera_avalon_uart_read.o)
 .data          0x0084d390        0x0 ../projeto_final_bsp/\libucosii_bsp.a(altera_avalon_uart_write.o)
 .data          0x0084d390        0x0 ../projeto_final_bsp/\libucosii_bsp.a(epcs_commands.o)
 .data          0x0084d390        0x0 ../projeto_final_bsp/\libucosii_bsp.a(alt_iniche_close.o)
 .data          0x0084d390        0x0 ../projeto_final_bsp/\libucosii_bsp.a(alt_iniche_dev.o)
 .data          0x0084d390        0x0 ../projeto_final_bsp/\libucosii_bsp.a(alt_iniche_read.o)
 .data          0x0084d390        0x0 ../projeto_final_bsp/\libucosii_bsp.a(alt_iniche_write.o)
 .data          0x0084d390        0x0 ../projeto_final_bsp/\libucosii_bsp.a(ipnet.o)
 .data          0x0084d390        0x0 ../projeto_final_bsp/\libucosii_bsp.a(ipstart.o)
 .data          0x0084d390        0x0 ../projeto_final_bsp/\libucosii_bsp.a(igmp_cmn.o)
 .data          0x0084d390        0x0 ../projeto_final_bsp/\libucosii_bsp.a(bsdsock.o)
 .data          0x0084d390        0x0 ../projeto_final_bsp/\libucosii_bsp.a(cksum.o)
 .data          0x0084d390        0x0 ../projeto_final_bsp/\libucosii_bsp.a(in_utils.o)
 .data          0x0084d390       0x30 ../projeto_final_bsp/\libucosii_bsp.a(netmain.o)
                0x0084d390                nettasks
 .data          0x0084d3c0        0x0 ../projeto_final_bsp/\libucosii_bsp.a(parseip.o)
 .data          0x0084d3c0        0x0 ../projeto_final_bsp/\libucosii_bsp.a(tk_crnos.o)
 .data          0x0084d3c0        0x0 ../projeto_final_bsp/\libucosii_bsp.a(dhcpclnt.o)
 .data          0x0084d3c0        0x0 ../projeto_final_bsp/\libucosii_bsp.a(dhcputil.o)
 .data          0x0084d3c0        0x0 ../projeto_final_bsp/\libucosii_bsp.a(pktalloc.o)
 .data          0x0084d3c0        0x0 ../projeto_final_bsp/\libucosii_bsp.a(q.o)
 .data          0x0084d3c0        0x0 ../projeto_final_bsp/\libucosii_bsp.a(udp_open.o)
 .data          0x0084d3c0        0x0 ../projeto_final_bsp/\libucosii_bsp.a(asm_cksum.o)
 .data          0x0084d3c0        0x0 ../projeto_final_bsp/\libucosii_bsp.a(brdutils.o)
 .data          0x0084d3c0        0x0 ../projeto_final_bsp/\libucosii_bsp.a(osportco.o)
 .data          0x0084d3c0        0x0 ../projeto_final_bsp/\libucosii_bsp.a(targnios.o)
 .data          0x0084d3c0       0x48 ../projeto_final_bsp/\libucosii_bsp.a(nptcp.o)
                0x0084d3c0                tcp_protosw
                0x0084d3d8                udp_protosw
                0x0084d3f0                rawip_protosw
 .data          0x0084d408        0x0 ../projeto_final_bsp/\libucosii_bsp.a(rawsock.o)
 .data          0x0084d408        0x0 ../projeto_final_bsp/\libucosii_bsp.a(sockcall.o)
 .data          0x0084d408        0x0 ../projeto_final_bsp/\libucosii_bsp.a(socket.o)
 .data          0x0084d408        0x0 ../projeto_final_bsp/\libucosii_bsp.a(socket2.o)
 .data          0x0084d408        0x0 ../projeto_final_bsp/\libucosii_bsp.a(soselect.o)
 .data          0x0084d408        0x0 ../projeto_final_bsp/\libucosii_bsp.a(tcp_in.o)
 .data          0x0084d408        0xb ../projeto_final_bsp/\libucosii_bsp.a(tcp_out.o)
                0x0084d408                tcp_outflags
 .data          0x0084d413        0x0 ../projeto_final_bsp/\libucosii_bsp.a(tcp_subr.o)
 .data          0x0084d413        0xd ../projeto_final_bsp/\libucosii_bsp.a(tcp_timr.o)
                0x0084d413                tcp_backoff
 .data          0x0084d420        0x0 ../projeto_final_bsp/\libucosii_bsp.a(tcp_usr.o)
 .data          0x0084d420        0x0 ../projeto_final_bsp/\libucosii_bsp.a(tcpport.o)
 .data          0x0084d420        0x0 ../projeto_final_bsp/\libucosii_bsp.a(udpsock.o)
 .data          0x0084d420        0x0 ../projeto_final_bsp/\libucosii_bsp.a(alt_alarm_start.o)
 .data          0x0084d420        0x0 ../projeto_final_bsp/\libucosii_bsp.a(alt_busy_sleep.o)
 .data          0x0084d420        0x0 ../projeto_final_bsp/\libucosii_bsp.a(alt_close.o)
 .data          0x0084d420        0x0 ../projeto_final_bsp/\libucosii_bsp.a(alt_dcache_flush.o)
 .data          0x0084d420      0x1a8 ../projeto_final_bsp/\libucosii_bsp.a(alt_dev.o)
                0x0084d420                alt_dev_null
                0x0084d448                alt_fd_list
 .data          0x0084d5c8        0x0 ../projeto_final_bsp/\libucosii_bsp.a(alt_dev_llist_insert.o)
 .data          0x0084d5c8        0x0 ../projeto_final_bsp/\libucosii_bsp.a(alt_do_ctors.o)
 .data          0x0084d5c8        0x0 ../projeto_final_bsp/\libucosii_bsp.a(alt_do_dtors.o)
 .data          0x0084d5c8        0x0 ../projeto_final_bsp/\libucosii_bsp.a(alt_errno.o)
 .data          0x0084d5c8        0x0 ../projeto_final_bsp/\libucosii_bsp.a(alt_find_dev.o)
 .data          0x0084d5c8        0x0 ../projeto_final_bsp/\libucosii_bsp.a(alt_iic.o)
 .data          0x0084d5c8        0x0 ../projeto_final_bsp/\libucosii_bsp.a(alt_iic_isr_register.o)
 .data          0x0084d5c8        0x0 ../projeto_final_bsp/\libucosii_bsp.a(alt_io_redirect.o)
 .data          0x0084d5c8        0x0 ../projeto_final_bsp/\libucosii_bsp.a(alt_irq_entry.o)
 .data          0x0084d5c8        0x0 ../projeto_final_bsp/\libucosii_bsp.a(alt_irq_handler.o)
 .data          0x0084d5c8        0x0 ../projeto_final_bsp/\libucosii_bsp.a(alt_open.o)
 .data          0x0084d5c8        0x0 ../projeto_final_bsp/\libucosii_bsp.a(alt_read.o)
 .data          0x0084d5c8        0x0 ../projeto_final_bsp/\libucosii_bsp.a(alt_release_fd.o)
 .data          0x0084d5c8        0x0 ../projeto_final_bsp/\libucosii_bsp.a(alt_remap_cached.o)
 .data          0x0084d5c8        0x0 ../projeto_final_bsp/\libucosii_bsp.a(alt_remap_uncached.o)
 .data          0x0084d5c8        0x0 ../projeto_final_bsp/\libucosii_bsp.a(alt_tick.o)
 .data          0x0084d5c8        0x0 ../projeto_final_bsp/\libucosii_bsp.a(alt_write.o)
 .data          0x0084d5c8        0x0 ../projeto_final_bsp/\libucosii_bsp.a(altera_nios2_qsys_irq.o)
 .data          0x0084d5c8        0x0 ../projeto_final_bsp/\libucosii_bsp.a(os_cpu_a.o)
 .data          0x0084d5c8        0x0 ../projeto_final_bsp/\libucosii_bsp.a(os_cpu_c.o)
 .data          0x0084d5c8        0x0 ../projeto_final_bsp/\libucosii_bsp.a(altera_avalon_cfi_flash_amd.o)
 .data          0x0084d5c8        0x0 ../projeto_final_bsp/\libucosii_bsp.a(altera_avalon_cfi_flash_intel.o)
 .data          0x0084d5c8        0x0 ../projeto_final_bsp/\libucosii_bsp.a(altera_avalon_spi.o)
 .data          0x0084d5c8       0x18 ../projeto_final_bsp/\libucosii_bsp.a(allports.o)
                0x0084d5c8                icmpdu_types
 .data          0x0084d5e0        0x0 ../projeto_final_bsp/\libucosii_bsp.a(timeouts.o)
 .data          0x0084d5e0        0x0 ../projeto_final_bsp/\libucosii_bsp.a(tk_misc.o)
 .data          0x0084d5e0        0x0 ../projeto_final_bsp/\libucosii_bsp.a(alt_iniche_fcntl.o)
 .data          0x0084d5e0        0x0 ../projeto_final_bsp/\libucosii_bsp.a(et_arp.o)
 .data          0x0084d5e0        0x0 ../projeto_final_bsp/\libucosii_bsp.a(iface.o)
 .data          0x0084d5e0        0x0 ../projeto_final_bsp/\libucosii_bsp.a(ip.o)
 .data          0x0084d5e0        0x0 ../projeto_final_bsp/\libucosii_bsp.a(ip_reasm.o)
 .data          0x0084d5e0        0x0 ../projeto_final_bsp/\libucosii_bsp.a(ipdemux.o)
 .data          0x0084d5e0        0x0 ../projeto_final_bsp/\libucosii_bsp.a(ipmc.o)
 .data          0x0084d5e0        0x0 ../projeto_final_bsp/\libucosii_bsp.a(ipport.o)
 .data          0x0084d5e0        0x0 ../projeto_final_bsp/\libucosii_bsp.a(ipraw.o)
 .data          0x0084d5e0        0x9 ../projeto_final_bsp/\libucosii_bsp.a(iproute.o)
                0x0084d5e0                rtp_priority
 .data          0x0084d5e9        0x0 ../projeto_final_bsp/\libucosii_bsp.a(udp.o)
 .data          0x0084d5e9        0x0 ../projeto_final_bsp/\libucosii_bsp.a(igmp.o)
 .data          0x0084d5e9        0x0 ../projeto_final_bsp/\libucosii_bsp.a(igmp2.o)
 .data          0x0084d5e9        0x0 ../projeto_final_bsp/\libucosii_bsp.a(ipopt.o)
 .data          0x0084d5e9        0x0 ../projeto_final_bsp/\libucosii_bsp.a(dhcsetup.o)
 *fill*         0x0084d5e9        0x3 00
 .data          0x0084d5ec       0xd4 ../projeto_final_bsp/\libucosii_bsp.a(memdev.o)
                0x0084d5ec                mdio
                0x0084d610                mdlist
 .data          0x0084d6c0        0x0 ../projeto_final_bsp/\libucosii_bsp.a(tcpcksum.o)
 .data          0x0084d6c0        0x0 ../projeto_final_bsp/\libucosii_bsp.a(in_pcb.o)
 .data          0x0084d6c0       0x80 ../projeto_final_bsp/\libucosii_bsp.a(vfsfiles.o)
                0x0084d6c0                vfs_root_path
 .data          0x0084d740        0x0 ../projeto_final_bsp/\libucosii_bsp.a(vfsport.o)
 .data          0x0084d740        0x0 ../projeto_final_bsp/\libucosii_bsp.a(alt_exception_entry.o)
 .data          0x0084d740        0x0 ../projeto_final_bsp/\libucosii_bsp.a(alt_fcntl.o)
 .data          0x0084d740        0x0 ../projeto_final_bsp/\libucosii_bsp.a(alt_find_file.o)
 .data          0x0084d740        0x0 ../projeto_final_bsp/\libucosii_bsp.a(alt_get_fd.o)
 .data          0x0084d740       0x18 ../projeto_final_bsp/\libucosii_bsp.a(icmp.o)
 .data          0x0084d758        0x0 d:/altera/13.0sp1/nios2eds/bin/gnu/h-i686-mingw32/bin/../lib/gcc/nios2-elf/4.1.2/../../../../nios2-elf/lib\libc.a(lib_a-atexit.o)
 .data          0x0084d758        0x0 d:/altera/13.0sp1/nios2eds/bin/gnu/h-i686-mingw32/bin/../lib/gcc/nios2-elf/4.1.2/../../../../nios2-elf/lib\libc.a(lib_a-calloc.o)
 .data          0x0084d758        0x0 d:/altera/13.0sp1/nios2eds/bin/gnu/h-i686-mingw32/bin/../lib/gcc/nios2-elf/4.1.2/../../../../nios2-elf/lib\libc.a(lib_a-malloc.o)
 .data          0x0084d758        0x0 d:/altera/13.0sp1/nios2eds/bin/gnu/h-i686-mingw32/bin/../lib/gcc/nios2-elf/4.1.2/../../../../nios2-elf/lib\libc.a(lib_a-memcmp.o)
 .data          0x0084d758        0x0 d:/altera/13.0sp1/nios2eds/bin/gnu/h-i686-mingw32/bin/../lib/gcc/nios2-elf/4.1.2/../../../../nios2-elf/lib\libc.a(lib_a-strcpy.o)
 .data          0x0084d758        0x0 d:/altera/13.0sp1/nios2eds/bin/gnu/h-i686-mingw32/bin/../lib/gcc/nios2-elf/4.1.2/../../../../nios2-elf/lib\libc.a(lib_a-strncmp.o)
 .data          0x0084d758        0x0 d:/altera/13.0sp1/nios2eds/bin/gnu/h-i686-mingw32/bin/../lib/gcc/nios2-elf/4.1.2/../../../../nios2-elf/lib\libc.a(lib_a-strncpy.o)
 .data          0x0084d758        0x0 d:/altera/13.0sp1/nios2eds/bin/gnu/h-i686-mingw32/bin/../lib/gcc/nios2-elf/4.1.2/../../../../nios2-elf/lib\libc.a(lib_a-vprintf.o)
 .data          0x0084d758        0x0 d:/altera/13.0sp1/nios2eds/bin/gnu/h-i686-mingw32/bin/../lib/gcc/nios2-elf/4.1.2/../../../../nios2-elf/lib\libc.a(lib_a-vsprintf.o)
 .data          0x0084d758        0x0 d:/altera/13.0sp1/nios2eds/bin/gnu/h-i686-mingw32/bin/../lib/gcc/nios2-elf/4.1.2/../../../../nios2-elf/lib\libc.a(lib_a-__atexit.o)
                0x00855758                _gp = ABSOLUTE ((. + 0x8000))
                0x00855758                PROVIDE (gp, _gp)
 *(.rwdata .rwdata.*)
 *(.sdata .sdata.* .gnu.linkonce.s.*)
 .sdata         0x0084d758        0x4 obj/default/iniche_init.o
 .sdata         0x0084d75c        0x4 d:/altera/13.0sp1/nios2eds/bin/gnu/h-i686-mingw32/bin/../lib/gcc/nios2-elf/4.1.2/../../../../nios2-elf/lib\libc.a(lib_a-ctype_.o)
                0x0084d75c                __ctype_ptr
 .sdata         0x0084d760        0x8 d:/altera/13.0sp1/nios2eds/bin/gnu/h-i686-mingw32/bin/../lib/gcc/nios2-elf/4.1.2/../../../../nios2-elf/lib\libc.a(lib_a-impure.o)
                0x0084d760                _impure_ptr
                0x0084d764                _global_impure_ptr
 .sdata         0x0084d768        0x8 d:/altera/13.0sp1/nios2eds/bin/gnu/h-i686-mingw32/bin/../lib/gcc/nios2-elf/4.1.2/../../../../nios2-elf/lib\libc.a(lib_a-locale.o)
                0x0084d768                __mb_cur_max
 .sdata         0x0084d770        0x8 d:/altera/13.0sp1/nios2eds/bin/gnu/h-i686-mingw32/bin/../lib/gcc/nios2-elf/4.1.2/../../../../nios2-elf/lib\libc.a(lib_a-mallocr.o)
                0x0084d770                __malloc_trim_threshold
                0x0084d774                __malloc_sbrk_base
 .sdata         0x0084d778        0x8 ../projeto_final_bsp/\libucosii_bsp.a(alt_flash_dev.o)
                0x0084d778                alt_flash_dev_list
 .sdata         0x0084d780        0x4 ../projeto_final_bsp/\libucosii_bsp.a(alt_irq_vars.o)
                0x0084d780                alt_priority_mask
 .sdata         0x0084d784        0x4 ../projeto_final_bsp/\libucosii_bsp.a(alt_sbrk.o)
 .sdata         0x0084d788        0x4 ../projeto_final_bsp/\libucosii_bsp.a(alt_env_lock.o)
 .sdata         0x0084d78c        0x4 ../projeto_final_bsp/\libucosii_bsp.a(alt_malloc_lock.o)
 .sdata         0x0084d790       0x74 ../projeto_final_bsp/\libucosii_bsp.a(os_dbg.o)
                0x0084d790                OSDebugEn
                0x0084d794                OSEndiannessTest
                0x0084d798                OSEventEn
                0x0084d79a                OSEventMax
                0x0084d79c                OSEventNameSize
                0x0084d79e                OSEventSize
                0x0084d7a0                OSEventTblSize
                0x0084d7a2                OSEventMultiEn
                0x0084d7a4                OSFlagEn
                0x0084d7a6                OSFlagGrpSize
                0x0084d7a8                OSFlagNodeSize
                0x0084d7aa                OSFlagWidth
                0x0084d7ac                OSFlagMax
                0x0084d7ae                OSFlagNameSize
                0x0084d7b0                OSLowestPrio
                0x0084d7b2                OSMboxEn
                0x0084d7b4                OSMemEn
                0x0084d7b6                OSMemMax
                0x0084d7b8                OSMemNameSize
                0x0084d7ba                OSMemSize
                0x0084d7bc                OSMemTblSize
                0x0084d7be                OSMutexEn
                0x0084d7c0                OSPtrSize
                0x0084d7c2                OSQEn
                0x0084d7c4                OSQMax
                0x0084d7c6                OSQSize
                0x0084d7c8                OSRdyTblSize
                0x0084d7ca                OSSemEn
                0x0084d7cc                OSStkWidth
                0x0084d7ce                OSTaskCreateEn
                0x0084d7d0                OSTaskCreateExtEn
                0x0084d7d2                OSTaskDelEn
                0x0084d7d4                OSTaskIdleStkSize
                0x0084d7d6                OSTaskProfileEn
                0x0084d7d8                OSTaskMax
                0x0084d7da                OSTaskNameSize
                0x0084d7dc                OSTaskStatEn
                0x0084d7de                OSTaskStatStkSize
                0x0084d7e0                OSTaskStatStkChkEn
                0x0084d7e2                OSTaskSwHookEn
                0x0084d7e4                OSTCBPrioTblMax
                0x0084d7e6                OSTCBSize
                0x0084d7e8                OSTicksPerSec
                0x0084d7ea                OSTimeTickHookEn
                0x0084d7ec                OSVersionNbr
                0x0084d7ee                OSTmrEn
                0x0084d7f0                OSTmrCfgMax
                0x0084d7f2                OSTmrCfgNameSize
                0x0084d7f4                OSTmrCfgWheelSize
                0x0084d7f6                OSTmrCfgTicksPerSec
                0x0084d7f8                OSTmrSize
                0x0084d7fa                OSTmrTblSize
                0x0084d7fc                OSTmrWheelSize
                0x0084d7fe                OSTmrWheelTblSize
                0x0084d800                OSDataSize
 .sdata         0x0084d804        0x4 ../projeto_final_bsp/\libucosii_bsp.a(altera_avalon_lcd_16207.o)
 .sdata         0x0084d808        0x8 ../projeto_final_bsp/\libucosii_bsp.a(alt_iniche_dev.o)
                0x0084d808                alt_iniche_dev_list
 .sdata         0x0084d810        0x4 ../projeto_final_bsp/\libucosii_bsp.a(ipstart.o)
                0x0084d810                ipmcfail_str
 .sdata         0x0084d814        0x4 ../projeto_final_bsp/\libucosii_bsp.a(cksum.o)
 .sdata         0x0084d818        0x4 ../projeto_final_bsp/\libucosii_bsp.a(netmain.o)
                0x0084d818                num_net_tasks
 .sdata         0x0084d81c        0x4 ../projeto_final_bsp/\libucosii_bsp.a(parseip.o)
                0x0084d81c                pton_error
 .sdata         0x0084d820        0xc ../projeto_final_bsp/\libucosii_bsp.a(dhcpclnt.o)
                0x0084d820                xids
                0x0084d824                reqlist
                0x0084d828                reqlist_len
 .sdata         0x0084d82c       0x10 ../projeto_final_bsp/\libucosii_bsp.a(pktalloc.o)
                0x0084d82c                lilbufs
                0x0084d830                lilbufsiz
                0x0084d834                bigbufs
                0x0084d838                bigbufsiz
 .sdata         0x0084d83c        0x4 ../projeto_final_bsp/\libucosii_bsp.a(brdutils.o)
                0x0084d83c                kb_last
 .sdata         0x0084d840        0x4 ../projeto_final_bsp/\libucosii_bsp.a(nptcp.o)
                0x0084d840                TCPTV_MSL
 .sdata         0x0084d844        0x2 ../projeto_final_bsp/\libucosii_bsp.a(socket.o)
                0x0084d844                socket_defaults
 .sdata         0x0084d846        0x1 ../projeto_final_bsp/\libucosii_bsp.a(tcp_in.o)
                0x0084d846                tcprexmtthresh
 *fill*         0x0084d847        0x1 00
 .sdata         0x0084d848        0x4 ../projeto_final_bsp/\libucosii_bsp.a(tcp_subr.o)
                0x0084d848                tcp_ttl
 .sdata         0x0084d84c        0x8 ../projeto_final_bsp/\libucosii_bsp.a(tcp_timr.o)
                0x0084d84c                tcp_keepidle
                0x0084d850                tcp_keepintvl
 .sdata         0x0084d854        0x8 ../projeto_final_bsp/\libucosii_bsp.a(tcp_usr.o)
                0x0084d854                tcp_sendspace
                0x0084d858                tcp_recvspace
 .sdata         0x0084d85c       0x14 ../projeto_final_bsp/\libucosii_bsp.a(alt_dev.o)
                0x0084d85c                alt_fs_list
                0x0084d864                alt_dev_list
                0x0084d86c                alt_max_fd
 .sdata         0x0084d870        0x4 ../projeto_final_bsp/\libucosii_bsp.a(alt_errno.o)
                0x0084d870                alt_errno
 .sdata         0x0084d874        0x8 ../projeto_final_bsp/\libucosii_bsp.a(alt_tick.o)
                0x0084d874                alt_alarm_list
 .sdata         0x0084d87c       0x10 ../projeto_final_bsp/\libucosii_bsp.a(allports.o)
                0x0084d87c                name
                0x0084d880                prompt
                0x0084d884                pingdelay
                0x0084d888                deflength
 .sdata         0x0084d88c        0x4 ../projeto_final_bsp/\libucosii_bsp.a(et_arp.o)
                0x0084d88c                arp_ageout
 .sdata         0x0084d890        0x8 ../projeto_final_bsp/\libucosii_bsp.a(ip.o)
                0x0084d894                ipRoutes
 .sdata         0x0084d898        0x4 ../projeto_final_bsp/\libucosii_bsp.a(memdev.o)
                0x0084d898                mdlist_size
 .sdata         0x0084d89c        0x4 ../projeto_final_bsp/\libucosii_bsp.a(vfsfiles.o)
                0x0084d89c                http_root_path
 *(.sdata2 .sdata2.* .gnu.linkonce.s2.*)
                0x0084d8a0                . = ALIGN (0x4)
                0x0084d8a0                _edata = ABSOLUTE (.)
                0x0084d8a0                PROVIDE (edata, ABSOLUTE (.))
                0x0084d8a0                PROVIDE (__ram_rwdata_end, ABSOLUTE (.))
                0x0084b764                PROVIDE (__flash_rwdata_start, LOADADDR (.rwdata))

.bss            0x0084d8a0     0xaa24
                0x0084d8a0                __bss_start = ABSOLUTE (.)
                0x0084d8a0                PROVIDE (__sbss_start, ABSOLUTE (.))
                0x0084d8a0                PROVIDE (___sbss_start, ABSOLUTE (.))
 *(.dynsbss)
 *(.sbss .sbss.* .gnu.linkonce.sb.*)
 .sbss          0x0084d8a0        0x8 obj/default/SSS_DE2_115.o
                0x0084d8a0                last_flash_sector_offset
                0x0084d8a4                last_flash_sector
 .sbss          0x0084d8a8        0x8 obj/default/dm9000a.o
                0x0084d8a8                autoReset
                0x0084d8ac                netisrs
 .sbss          0x0084d8b0        0x1 obj/default/iniche_init.o
                0x0084d8b0                to_ssstask
 *fill*         0x0084d8b1        0x3 00
 .sbss          0x0084d8b4       0x10 obj/default/simple_socket_server.o
                0x0084d8b8                SSSLEDCommandQ
                0x0084d8bc                SSSLEDLightshowSem
                0x0084d8c0                SSSLEDEventFlag
 .sbss          0x0084d8c4        0xc d:/altera/13.0sp1/nios2eds/bin/gnu/h-i686-mingw32/bin/../lib/gcc/nios2-elf/4.1.2/../../../../nios2-elf/lib\libc.a(lib_a-locale.o)
                0x0084d8c4                __nlocale_changed
                0x0084d8c8                __mlocale_changed
                0x0084d8cc                _PathLocale
 .sbss          0x0084d8d0        0xc d:/altera/13.0sp1/nios2eds/bin/gnu/h-i686-mingw32/bin/../lib/gcc/nios2-elf/4.1.2/../../../../nios2-elf/lib\libc.a(lib_a-mallocr.o)
                0x0084d8d0                __malloc_top_pad
                0x0084d8d4                __malloc_max_sbrked_mem
                0x0084d8d8                __malloc_max_total_mem
 .sbss          0x0084d8dc        0x4 d:/altera/13.0sp1/nios2eds/bin/gnu/h-i686-mingw32/bin/../lib/gcc/nios2-elf/4.1.2/../../../../nios2-elf/lib\libc.a(lib_a-int_errno.o)
                0x0084d8dc                errno
 .sbss          0x0084d8e0        0x4 ../projeto_final_bsp/\libucosii_bsp.a(alt_irq_vars.o)
                0x0084d8e0                alt_irq_active
 .sbss          0x0084d8e4        0xc ../projeto_final_bsp/\libucosii_bsp.a(alt_main.o)
                0x0084d8e4                alt_argc
                0x0084d8e8                alt_argv
                0x0084d8ec                alt_envp
 .sbss          0x0084d8f0        0x8 ../projeto_final_bsp/\libucosii_bsp.a(alt_env_lock.o)
                0x0084d8f4                alt_envsem
 .sbss          0x0084d8f8        0x8 ../projeto_final_bsp/\libucosii_bsp.a(alt_malloc_lock.o)
                0x0084d8fc                alt_heapsem
 .sbss          0x0084d900       0x50 ../projeto_final_bsp/\libucosii_bsp.a(os_core.o)
                0x0084d900                OSLockNesting
                0x0084d901                OSRunning
                0x0084d904                OSIdleCtr
                0x0084d908                OSPrioHighRdy
                0x0084d909                OSPrioCur
                0x0084d90c                OSTCBList
                0x0084d910                OSTickStepState
                0x0084d914                OSCtxSwCtr
                0x0084d918                OSIdleCtrMax
                0x0084d91c                OSTCBFreeList
                0x0084d920                OSCPUUsage
                0x0084d921                OSTaskCtr
                0x0084d924                OSMemFreeList
                0x0084d928                OSTCBHighRdy
                0x0084d92c                OSQFreeList
                0x0084d930                OSRdyGrp
                0x0084d931                OSRdyTbl
                0x0084d934                OSEventFreeList
                0x0084d938                OSIntNesting
                0x0084d93c                OSTCBCur
                0x0084d940                OSTime
                0x0084d944                OSFlagFreeList
                0x0084d948                OSStatRdy
                0x0084d94c                OSIdleCtrRun
 .sbss          0x0084d950        0xc ../projeto_final_bsp/\libucosii_bsp.a(ipnet.o)
                0x0084d950                MaxLnh
                0x0084d954                MaxMtu
                0x0084d958                NDEBUG
 .sbss          0x0084d95c        0x8 ../projeto_final_bsp/\libucosii_bsp.a(ipstart.o)
                0x0084d95c                ifNumber
 .sbss          0x0084d964       0x10 ../projeto_final_bsp/\libucosii_bsp.a(igmp_cmn.o)
                0x0084d964                igmp_timers_are_running
                0x0084d968                igmp_cticks
                0x0084d96c                igmp_all_hosts_group
                0x0084d970                igmp_all_rtrs_group
 .sbss          0x0084d974        0xe ../projeto_final_bsp/\libucosii_bsp.a(netmain.o)
                0x0084d974                netmain_wakes
                0x0084d978                nettick_wakes
                0x0084d97c                iniche_net_ready
                0x0084d980                to_netmain
                0x0084d981                to_nettick
 *fill*         0x0084d982        0x2 00
 .sbss          0x0084d984        0x4 ../projeto_final_bsp/\libucosii_bsp.a(tk_crnos.o)
                0x0084d984                tcp_sleep_timeout
 .sbss          0x0084d988       0x34 ../projeto_final_bsp/\libucosii_bsp.a(dhcpclnt.o)
                0x0084d988                dhc_conn
                0x0084d98c                dsc_errors
                0x0084d990                dsc_discovers
                0x0084d994                dsc_offers
                0x0084d998                dsc_requests
                0x0084d99c                dsc_acks
                0x0084d9a0                dsc_bpreplys
                0x0084d9a4                dsc_declines
                0x0084d9a8                dsc_releases
                0x0084d9ac                dsc_naks
                0x0084d9b0                dsc_renew
                0x0084d9b4                dsc_rebind
                0x0084d9b8                dsc_rlyerrs
 .sbss          0x0084d9bc        0x4 ../projeto_final_bsp/\libucosii_bsp.a(udp_open.o)
                0x0084d9bc                firstudp
 .sbss          0x0084d9c0       0x18 ../projeto_final_bsp/\libucosii_bsp.a(brdutils.o)
                0x0084d9c4                cticks_initialized
                0x0084d9c8                irq_level
                0x0084d9d0                cticks_factor
                0x0084d9d4                OS_TPS
 .sbss          0x0084d9d8       0x18 ../projeto_final_bsp/\libucosii_bsp.a(osportco.o)
                0x0084d9d8                tcp_sleep_count
                0x0084d9dc                tcp_wakeup_count
                0x0084d9e0                netq_intmask
                0x0084d9e4                old_mode
                0x0084d9e8                global_TCPwakeup_setIndx
                0x0084d9ec                cticks
 .sbss          0x0084d9f0        0xc ../projeto_final_bsp/\libucosii_bsp.a(targnios.o)
                0x0084d9f0                memtrapsize
                0x0084d9f4                mheap_sem_ptr
                0x0084d9f8                rcvdq_sem_ptr
 .sbss          0x0084d9fc       0x12 ../projeto_final_bsp/\libucosii_bsp.a(nptcp.o)
                0x0084d9fc                nextslow
                0x0084da04                mbstat
                0x0084da0c                select_wait
 *fill*         0x0084da0e        0x2 00
 .sbss          0x0084da10        0x8 ../projeto_final_bsp/\libucosii_bsp.a(tcp_in.o)
                0x0084da10                tcpprintfs
                0x0084da14                dropline
 .sbss          0x0084da18        0x4 ../projeto_final_bsp/\libucosii_bsp.a(tcp_out.o)
                0x0084da18                tcp_optionbuf
 .sbss          0x0084da1c        0x8 ../projeto_final_bsp/\libucosii_bsp.a(tcp_timr.o)
                0x0084da1c                tcp_maxidle
                0x0084da20                tcp_iss
 .sbss          0x0084da24        0x4 ../projeto_final_bsp/\libucosii_bsp.a(alt_dev.o)
                0x0084da24                alt_fd_list_lock
 .sbss          0x0084da28        0x8 ../projeto_final_bsp/\libucosii_bsp.a(alt_tick.o)
                0x0084da28                _alt_tick_rate
                0x0084da2c                _alt_nticks
 .sbss          0x0084da30        0x8 ../projeto_final_bsp/\libucosii_bsp.a(allports.o)
                0x0084da30                activehost
 .sbss          0x0084da38        0xc ../projeto_final_bsp/\libucosii_bsp.a(timeouts.o)
                0x0084da38                nextppp
                0x0084da3c                port_1s_callout
 .sbss          0x0084da44       0x1c ../projeto_final_bsp/\libucosii_bsp.a(et_arp.o)
                0x0084da48                arpcache
                0x0084da4c                arpReqsIn
                0x0084da50                arpReqsOut
                0x0084da54                arpRepsIn
                0x0084da58                arpRepsOut
 .sbss          0x0084da60        0x4 ../projeto_final_bsp/\libucosii_bsp.a(ip.o)
                0x0084da60                rt_mib
 .sbss          0x0084da64        0xc ../projeto_final_bsp/\libucosii_bsp.a(ip_reasm.o)
                0x0084da64                ipr_curr_mem
                0x0084da68                h_ireq
                0x0084da6c                ire_cticks
 .sbss          0x0084da70       0x11 ../projeto_final_bsp/\libucosii_bsp.a(ipport.o)
                0x0084da70                port_prep
                0x0084da74                net_system_exit
                0x0084da78                so_evtmap_create
                0x0084da7c                so_evtmap_delete
                0x0084da80                so_evtmap
 *fill*         0x0084da81        0x3 00
 .sbss          0x0084da84        0x4 ../projeto_final_bsp/\libucosii_bsp.a(ipraw.o)
                0x0084da84                ipraw_eps
 .sbss          0x0084da88        0x4 ../projeto_final_bsp/\libucosii_bsp.a(iproute.o)
                0x0084da88                cachedRoute
 .sbss          0x0084da8c        0x2 ../projeto_final_bsp/\libucosii_bsp.a(udp.o)
 *fill*         0x0084da8e        0x2 00
 .sbss          0x0084da90        0x8 ../projeto_final_bsp/\libucosii_bsp.a(in_pcb.o)
                0x0084da90                inpcb_cachehits
                0x0084da94                inpcb_cachemiss
 .sbss          0x0084da98       0x20 ../projeto_final_bsp/\libucosii_bsp.a(vfsfiles.o)
                0x0084da98                vfsystems
                0x0084da9c                vfiles
                0x0084daa0                vfsfiles
                0x0084daa4                vfopen_error
                0x0084daa8                vfs_dir_stale
                0x0084daac                vfs_open_files
                0x0084dab0                vfs_total_rw_space
                0x0084dab4                vfs_total_dyna_files
 .sbss          0x0084dab8        0x4 ../projeto_final_bsp/\libucosii_bsp.a(icmp.o)
                0x0084dab8                icmpdu_hook
 *(.sbss2 .sbss2.* .gnu.linkonce.sb2.*)
 *(.scommon)
                0x0084dabc                PROVIDE (__sbss_end, ABSOLUTE (.))
                0x0084dabc                PROVIDE (___sbss_end, ABSOLUTE (.))
 *(.dynbss)
 *(.bss .bss.* .gnu.linkonce.b.*)
 .bss           0x0084dabc        0x0 ../projeto_final_bsp//obj/HAL/src/crt0.o
 .bss           0x0084dabc        0x0 obj/default/LCD.o
 .bss           0x0084dabc        0x0 obj/default/SSS_DE2_115.o
 .bss           0x0084dabc        0x0 obj/default/alt_error_handler.o
 .bss           0x0084dabc        0x0 obj/default/dm9000a.o
 .bss           0x0084dabc        0x0 obj/default/iniche_init.o
 .bss           0x0084dabc        0x0 obj/default/led.o
 .bss           0x0084dabc        0x0 obj/default/network_utilities.o
 .bss           0x0084dabc      0x5f0 obj/default/simple_socket_server.o
 .bss           0x0084e0ac        0x0 obj/default/tse_my_system.o
 .bss           0x0084e0ac        0x0 d:/altera/13.0sp1/nios2eds/bin/gnu/h-i686-mingw32/bin/../lib/gcc/nios2-elf/4.1.2\libgcc.a(_fixunsdfsi.o)
 .bss           0x0084e0ac        0x0 d:/altera/13.0sp1/nios2eds/bin/gnu/h-i686-mingw32/bin/../lib/gcc/nios2-elf/4.1.2\libgcc.a(_addsub_df.o)
 .bss           0x0084e0ac        0x0 d:/altera/13.0sp1/nios2eds/bin/gnu/h-i686-mingw32/bin/../lib/gcc/nios2-elf/4.1.2\libgcc.a(_mul_df.o)
 .bss           0x0084e0ac        0x0 d:/altera/13.0sp1/nios2eds/bin/gnu/h-i686-mingw32/bin/../lib/gcc/nios2-elf/4.1.2\libgcc.a(_ge_df.o)
 .bss           0x0084e0ac        0x0 d:/altera/13.0sp1/nios2eds/bin/gnu/h-i686-mingw32/bin/../lib/gcc/nios2-elf/4.1.2\libgcc.a(_df_to_si.o)
 .bss           0x0084e0ac        0x0 d:/altera/13.0sp1/nios2eds/bin/gnu/h-i686-mingw32/bin/../lib/gcc/nios2-elf/4.1.2\libgcc.a(_thenan_df.o)
 .bss           0x0084e0ac        0x0 d:/altera/13.0sp1/nios2eds/bin/gnu/h-i686-mingw32/bin/../lib/gcc/nios2-elf/4.1.2\libgcc.a(_usi_to_df.o)
 .bss           0x0084e0ac        0x0 d:/altera/13.0sp1/nios2eds/bin/gnu/h-i686-mingw32/bin/../lib/gcc/nios2-elf/4.1.2\libgcc.a(_muldi3.o)
 .bss           0x0084e0ac        0x0 d:/altera/13.0sp1/nios2eds/bin/gnu/h-i686-mingw32/bin/../lib/gcc/nios2-elf/4.1.2\libgcc.a(_clzsi2.o)
 .bss           0x0084e0ac        0x0 d:/altera/13.0sp1/nios2eds/bin/gnu/h-i686-mingw32/bin/../lib/gcc/nios2-elf/4.1.2\libgcc.a(_pack_df.o)
 .bss           0x0084e0ac        0x0 d:/altera/13.0sp1/nios2eds/bin/gnu/h-i686-mingw32/bin/../lib/gcc/nios2-elf/4.1.2\libgcc.a(_unpack_df.o)
 .bss           0x0084e0ac        0x0 d:/altera/13.0sp1/nios2eds/bin/gnu/h-i686-mingw32/bin/../lib/gcc/nios2-elf/4.1.2\libgcc.a(_fpcmp_parts_df.o)
 .bss           0x0084e0ac        0x0 d:/altera/13.0sp1/nios2eds/bin/gnu/h-i686-mingw32/bin/../lib/gcc/nios2-elf/4.1.2\libgcc.a(_clz.o)
 .bss           0x0084e0ac        0x0 d:/altera/13.0sp1/nios2eds/bin/gnu/h-i686-mingw32/bin/../lib/gcc/nios2-elf/4.1.2/../../../../nios2-elf/lib\libc.a(lib_a-atoi.o)
 .bss           0x0084e0ac        0x0 d:/altera/13.0sp1/nios2eds/bin/gnu/h-i686-mingw32/bin/../lib/gcc/nios2-elf/4.1.2/../../../../nios2-elf/lib\libc.a(lib_a-ctype_.o)
 .bss           0x0084e0ac        0x0 d:/altera/13.0sp1/nios2eds/bin/gnu/h-i686-mingw32/bin/../lib/gcc/nios2-elf/4.1.2/../../../../nios2-elf/lib\libc.a(lib_a-errno.o)
 .bss           0x0084e0ac        0x0 d:/altera/13.0sp1/nios2eds/bin/gnu/h-i686-mingw32/bin/../lib/gcc/nios2-elf/4.1.2/../../../../nios2-elf/lib\libc.a(lib_a-exit.o)
 .bss           0x0084e0ac        0x0 d:/altera/13.0sp1/nios2eds/bin/gnu/h-i686-mingw32/bin/../lib/gcc/nios2-elf/4.1.2/../../../../nios2-elf/lib\libc.a(lib_a-fprintf.o)
 .bss           0x0084e0ac        0x0 d:/altera/13.0sp1/nios2eds/bin/gnu/h-i686-mingw32/bin/../lib/gcc/nios2-elf/4.1.2/../../../../nios2-elf/lib\libc.a(lib_a-fwrite.o)
 .bss           0x0084e0ac        0x0 d:/altera/13.0sp1/nios2eds/bin/gnu/h-i686-mingw32/bin/../lib/gcc/nios2-elf/4.1.2/../../../../nios2-elf/lib\libc.a(lib_a-getc.o)
 .bss           0x0084e0ac        0x0 d:/altera/13.0sp1/nios2eds/bin/gnu/h-i686-mingw32/bin/../lib/gcc/nios2-elf/4.1.2/../../../../nios2-elf/lib\libc.a(lib_a-impure.o)
 .bss           0x0084e0ac        0x0 d:/altera/13.0sp1/nios2eds/bin/gnu/h-i686-mingw32/bin/../lib/gcc/nios2-elf/4.1.2/../../../../nios2-elf/lib\libc.a(lib_a-memcpy.o)
 .bss           0x0084e0ac        0x0 d:/altera/13.0sp1/nios2eds/bin/gnu/h-i686-mingw32/bin/../lib/gcc/nios2-elf/4.1.2/../../../../nios2-elf/lib\libc.a(lib_a-memmove.o)
 .bss           0x0084e0ac        0x0 d:/altera/13.0sp1/nios2eds/bin/gnu/h-i686-mingw32/bin/../lib/gcc/nios2-elf/4.1.2/../../../../nios2-elf/lib\libc.a(lib_a-memset.o)
 .bss           0x0084e0ac        0x0 d:/altera/13.0sp1/nios2eds/bin/gnu/h-i686-mingw32/bin/../lib/gcc/nios2-elf/4.1.2/../../../../nios2-elf/lib\libc.a(lib_a-perror.o)
 .bss           0x0084e0ac        0x0 d:/altera/13.0sp1/nios2eds/bin/gnu/h-i686-mingw32/bin/../lib/gcc/nios2-elf/4.1.2/../../../../nios2-elf/lib\libc.a(lib_a-printf.o)
 .bss           0x0084e0ac        0x0 d:/altera/13.0sp1/nios2eds/bin/gnu/h-i686-mingw32/bin/../lib/gcc/nios2-elf/4.1.2/../../../../nios2-elf/lib\libc.a(lib_a-putc.o)
 .bss           0x0084e0ac        0x0 d:/altera/13.0sp1/nios2eds/bin/gnu/h-i686-mingw32/bin/../lib/gcc/nios2-elf/4.1.2/../../../../nios2-elf/lib\libc.a(lib_a-putchar.o)
 .bss           0x0084e0ac        0x0 d:/altera/13.0sp1/nios2eds/bin/gnu/h-i686-mingw32/bin/../lib/gcc/nios2-elf/4.1.2/../../../../nios2-elf/lib\libc.a(lib_a-puts.o)
 .bss           0x0084e0ac        0x0 d:/altera/13.0sp1/nios2eds/bin/gnu/h-i686-mingw32/bin/../lib/gcc/nios2-elf/4.1.2/../../../../nios2-elf/lib\libc.a(lib_a-rget.o)
 .bss           0x0084e0ac        0x0 d:/altera/13.0sp1/nios2eds/bin/gnu/h-i686-mingw32/bin/../lib/gcc/nios2-elf/4.1.2/../../../../nios2-elf/lib\libc.a(lib_a-snprintf.o)
 .bss           0x0084e0ac        0x0 d:/altera/13.0sp1/nios2eds/bin/gnu/h-i686-mingw32/bin/../lib/gcc/nios2-elf/4.1.2/../../../../nios2-elf/lib\libc.a(lib_a-sprintf.o)
 .bss           0x0084e0ac        0x0 d:/altera/13.0sp1/nios2eds/bin/gnu/h-i686-mingw32/bin/../lib/gcc/nios2-elf/4.1.2/../../../../nios2-elf/lib\libc.a(lib_a-strchr.o)
 .bss           0x0084e0ac        0x0 d:/altera/13.0sp1/nios2eds/bin/gnu/h-i686-mingw32/bin/../lib/gcc/nios2-elf/4.1.2/../../../../nios2-elf/lib\libc.a(lib_a-strcmp.o)
 .bss           0x0084e0ac        0x0 d:/altera/13.0sp1/nios2eds/bin/gnu/h-i686-mingw32/bin/../lib/gcc/nios2-elf/4.1.2/../../../../nios2-elf/lib\libc.a(lib_a-strerror.o)
 .bss           0x0084e0ac        0x0 d:/altera/13.0sp1/nios2eds/bin/gnu/h-i686-mingw32/bin/../lib/gcc/nios2-elf/4.1.2/../../../../nios2-elf/lib\libc.a(lib_a-strlen.o)
 .bss           0x0084e0ac        0x0 d:/altera/13.0sp1/nios2eds/bin/gnu/h-i686-mingw32/bin/../lib/gcc/nios2-elf/4.1.2/../../../../nios2-elf/lib\libc.a(lib_a-strtok.o)
 .bss           0x0084e0ac        0x0 d:/altera/13.0sp1/nios2eds/bin/gnu/h-i686-mingw32/bin/../lib/gcc/nios2-elf/4.1.2/../../../../nios2-elf/lib\libc.a(lib_a-strtok_r.o)
 .bss           0x0084e0ac        0x0 d:/altera/13.0sp1/nios2eds/bin/gnu/h-i686-mingw32/bin/../lib/gcc/nios2-elf/4.1.2/../../../../nios2-elf/lib\libc.a(lib_a-strtol.o)
 .bss           0x0084e0ac        0x0 d:/altera/13.0sp1/nios2eds/bin/gnu/h-i686-mingw32/bin/../lib/gcc/nios2-elf/4.1.2/../../../../nios2-elf/lib\libc.a(lib_a-u_strerr.o)
 .bss           0x0084e0ac        0x0 d:/altera/13.0sp1/nios2eds/bin/gnu/h-i686-mingw32/bin/../lib/gcc/nios2-elf/4.1.2/../../../../nios2-elf/lib\libc.a(lib_a-vfprintf.o)
 .bss           0x0084e0ac        0x0 d:/altera/13.0sp1/nios2eds/bin/gnu/h-i686-mingw32/bin/../lib/gcc/nios2-elf/4.1.2/../../../../nios2-elf/lib\libc.a(lib_a-wbuf.o)
 .bss           0x0084e0ac        0x0 d:/altera/13.0sp1/nios2eds/bin/gnu/h-i686-mingw32/bin/../lib/gcc/nios2-elf/4.1.2/../../../../nios2-elf/lib\libc.a(lib_a-wsetup.o)
 .bss           0x0084e0ac        0x0 d:/altera/13.0sp1/nios2eds/bin/gnu/h-i686-mingw32/bin/../lib/gcc/nios2-elf/4.1.2/../../../../nios2-elf/lib\libc.a(lib_a-__call_atexit.o)
 .bss           0x0084e0ac        0x0 d:/altera/13.0sp1/nios2eds/bin/gnu/h-i686-mingw32/bin/../lib/gcc/nios2-elf/4.1.2/../../../../nios2-elf/lib\libc.a(lib_a-dtoa.o)
 .bss           0x0084e0ac        0x0 d:/altera/13.0sp1/nios2eds/bin/gnu/h-i686-mingw32/bin/../lib/gcc/nios2-elf/4.1.2/../../../../nios2-elf/lib\libc.a(lib_a-fflush.o)
 .bss           0x0084e0ac        0x0 d:/altera/13.0sp1/nios2eds/bin/gnu/h-i686-mingw32/bin/../lib/gcc/nios2-elf/4.1.2/../../../../nios2-elf/lib\libc.a(lib_a-findfp.o)
 .bss           0x0084e0ac        0x0 d:/altera/13.0sp1/nios2eds/bin/gnu/h-i686-mingw32/bin/../lib/gcc/nios2-elf/4.1.2/../../../../nios2-elf/lib\libc.a(lib_a-fputc.o)
 .bss           0x0084e0ac        0x0 d:/altera/13.0sp1/nios2eds/bin/gnu/h-i686-mingw32/bin/../lib/gcc/nios2-elf/4.1.2/../../../../nios2-elf/lib\libc.a(lib_a-fputs.o)
 .bss           0x0084e0ac        0x0 d:/altera/13.0sp1/nios2eds/bin/gnu/h-i686-mingw32/bin/../lib/gcc/nios2-elf/4.1.2/../../../../nios2-elf/lib\libc.a(lib_a-freer.o)
 .bss           0x0084e0ac        0x0 d:/altera/13.0sp1/nios2eds/bin/gnu/h-i686-mingw32/bin/../lib/gcc/nios2-elf/4.1.2/../../../../nios2-elf/lib\libc.a(lib_a-fvwrite.o)
 .bss           0x0084e0ac        0x0 d:/altera/13.0sp1/nios2eds/bin/gnu/h-i686-mingw32/bin/../lib/gcc/nios2-elf/4.1.2/../../../../nios2-elf/lib\libc.a(lib_a-fwalk.o)
 .bss           0x0084e0ac        0x0 d:/altera/13.0sp1/nios2eds/bin/gnu/h-i686-mingw32/bin/../lib/gcc/nios2-elf/4.1.2/../../../../nios2-elf/lib\libc.a(lib_a-locale.o)
 .bss           0x0084e0ac        0x0 d:/altera/13.0sp1/nios2eds/bin/gnu/h-i686-mingw32/bin/../lib/gcc/nios2-elf/4.1.2/../../../../nios2-elf/lib\libc.a(lib_a-makebuf.o)
 .bss           0x0084e0ac       0x28 d:/altera/13.0sp1/nios2eds/bin/gnu/h-i686-mingw32/bin/../lib/gcc/nios2-elf/4.1.2/../../../../nios2-elf/lib\libc.a(lib_a-mallocr.o)
                0x0084e0ac                __malloc_current_mallinfo
 .bss           0x0084e0d4        0x0 d:/altera/13.0sp1/nios2eds/bin/gnu/h-i686-mingw32/bin/../lib/gcc/nios2-elf/4.1.2/../../../../nios2-elf/lib\libc.a(lib_a-memchr.o)
 .bss           0x0084e0d4        0x0 d:/altera/13.0sp1/nios2eds/bin/gnu/h-i686-mingw32/bin/../lib/gcc/nios2-elf/4.1.2/../../../../nios2-elf/lib\libc.a(lib_a-mprec.o)
 .bss           0x0084e0d4        0x0 d:/altera/13.0sp1/nios2eds/bin/gnu/h-i686-mingw32/bin/../lib/gcc/nios2-elf/4.1.2/../../../../nios2-elf/lib\libc.a(lib_a-reallocr.o)
 .bss           0x0084e0d4        0x0 d:/altera/13.0sp1/nios2eds/bin/gnu/h-i686-mingw32/bin/../lib/gcc/nios2-elf/4.1.2/../../../../nios2-elf/lib\libc.a(lib_a-refill.o)
 .bss           0x0084e0d4        0x0 d:/altera/13.0sp1/nios2eds/bin/gnu/h-i686-mingw32/bin/../lib/gcc/nios2-elf/4.1.2/../../../../nios2-elf/lib\libc.a(lib_a-s_isinfd.o)
 .bss           0x0084e0d4        0x0 d:/altera/13.0sp1/nios2eds/bin/gnu/h-i686-mingw32/bin/../lib/gcc/nios2-elf/4.1.2/../../../../nios2-elf/lib\libc.a(lib_a-s_isnand.o)
 .bss           0x0084e0d4        0x0 d:/altera/13.0sp1/nios2eds/bin/gnu/h-i686-mingw32/bin/../lib/gcc/nios2-elf/4.1.2/../../../../nios2-elf/lib\libc.a(lib_a-sbrkr.o)
 .bss           0x0084e0d4        0x0 d:/altera/13.0sp1/nios2eds/bin/gnu/h-i686-mingw32/bin/../lib/gcc/nios2-elf/4.1.2/../../../../nios2-elf/lib\libc.a(lib_a-stdio.o)
 .bss           0x0084e0d4        0x0 d:/altera/13.0sp1/nios2eds/bin/gnu/h-i686-mingw32/bin/../lib/gcc/nios2-elf/4.1.2/../../../../nios2-elf/lib\libc.a(lib_a-writer.o)
 .bss           0x0084e0d4        0x0 d:/altera/13.0sp1/nios2eds/bin/gnu/h-i686-mingw32/bin/../lib/gcc/nios2-elf/4.1.2/../../../../nios2-elf/lib\libc.a(lib_a-callocr.o)
 .bss           0x0084e0d4        0x0 d:/altera/13.0sp1/nios2eds/bin/gnu/h-i686-mingw32/bin/../lib/gcc/nios2-elf/4.1.2/../../../../nios2-elf/lib\libc.a(lib_a-closer.o)
 .bss           0x0084e0d4        0x0 d:/altera/13.0sp1/nios2eds/bin/gnu/h-i686-mingw32/bin/../lib/gcc/nios2-elf/4.1.2/../../../../nios2-elf/lib\libc.a(lib_a-fclose.o)
 .bss           0x0084e0d4        0x0 d:/altera/13.0sp1/nios2eds/bin/gnu/h-i686-mingw32/bin/../lib/gcc/nios2-elf/4.1.2/../../../../nios2-elf/lib\libc.a(lib_a-fstatr.o)
 .bss           0x0084e0d4        0x0 d:/altera/13.0sp1/nios2eds/bin/gnu/h-i686-mingw32/bin/../lib/gcc/nios2-elf/4.1.2/../../../../nios2-elf/lib\libc.a(lib_a-int_errno.o)
 .bss           0x0084e0d4        0x0 d:/altera/13.0sp1/nios2eds/bin/gnu/h-i686-mingw32/bin/../lib/gcc/nios2-elf/4.1.2/../../../../nios2-elf/lib\libc.a(lib_a-isattyr.o)
 .bss           0x0084e0d4        0x0 d:/altera/13.0sp1/nios2eds/bin/gnu/h-i686-mingw32/bin/../lib/gcc/nios2-elf/4.1.2/../../../../nios2-elf/lib\libc.a(lib_a-lseekr.o)
 .bss           0x0084e0d4        0x0 d:/altera/13.0sp1/nios2eds/bin/gnu/h-i686-mingw32/bin/../lib/gcc/nios2-elf/4.1.2/../../../../nios2-elf/lib\libc.a(lib_a-readr.o)
 .bss           0x0084e0d4        0x0 d:/altera/13.0sp1/nios2eds/bin/gnu/h-i686-mingw32/bin/../lib/gcc/nios2-elf/4.1.2\libgcc.a(_udivdi3.o)
 .bss           0x0084e0d4        0x0 d:/altera/13.0sp1/nios2eds/bin/gnu/h-i686-mingw32/bin/../lib/gcc/nios2-elf/4.1.2\libgcc.a(_umoddi3.o)
 .bss           0x0084e0d4        0x0 d:/altera/13.0sp1/nios2eds/bin/gnu/h-i686-mingw32/bin/../lib/gcc/nios2-elf/4.1.2\libgcc.a(_div_df.o)
 .bss           0x0084e0d4        0x0 d:/altera/13.0sp1/nios2eds/bin/gnu/h-i686-mingw32/bin/../lib/gcc/nios2-elf/4.1.2\libgcc.a(_eq_df.o)
 .bss           0x0084e0d4        0x0 d:/altera/13.0sp1/nios2eds/bin/gnu/h-i686-mingw32/bin/../lib/gcc/nios2-elf/4.1.2\libgcc.a(_ne_df.o)
 .bss           0x0084e0d4        0x0 d:/altera/13.0sp1/nios2eds/bin/gnu/h-i686-mingw32/bin/../lib/gcc/nios2-elf/4.1.2\libgcc.a(_gt_df.o)
 .bss           0x0084e0d4        0x0 d:/altera/13.0sp1/nios2eds/bin/gnu/h-i686-mingw32/bin/../lib/gcc/nios2-elf/4.1.2\libgcc.a(_lt_df.o)
 .bss           0x0084e0d4        0x0 d:/altera/13.0sp1/nios2eds/bin/gnu/h-i686-mingw32/bin/../lib/gcc/nios2-elf/4.1.2\libgcc.a(_si_to_df.o)
 .bss           0x0084e0d4        0x0 d:/altera/13.0sp1/nios2eds/bin/gnu/h-i686-mingw32/bin/../lib/gcc/nios2-elf/4.1.2\libgcc.a(lib2-divmod.o)
 .bss           0x0084e0d4        0x0 ../projeto_final_bsp/\libucosii_bsp.a(alt_exit.o)
 .bss           0x0084e0d4        0x0 ../projeto_final_bsp/\libucosii_bsp.a(alt_flash_dev.o)
 .bss           0x0084e0d4        0x0 ../projeto_final_bsp/\libucosii_bsp.a(alt_fstat.o)
 .bss           0x0084e0d4        0x0 ../projeto_final_bsp/\libucosii_bsp.a(alt_irq_register.o)
 .bss           0x0084e0d4        0x0 ../projeto_final_bsp/\libucosii_bsp.a(alt_irq_vars.o)
 .bss           0x0084e0d4        0x0 ../projeto_final_bsp/\libucosii_bsp.a(alt_isatty.o)
 .bss           0x0084e0d4        0x0 ../projeto_final_bsp/\libucosii_bsp.a(alt_lseek.o)
 .bss           0x0084e0d4        0x0 ../projeto_final_bsp/\libucosii_bsp.a(alt_main.o)
 .bss           0x0084e0d4        0x0 ../projeto_final_bsp/\libucosii_bsp.a(alt_sbrk.o)
 .bss           0x0084e0d4        0x0 ../projeto_final_bsp/\libucosii_bsp.a(alt_usleep.o)
 .bss           0x0084e0d4        0x0 ../projeto_final_bsp/\libucosii_bsp.a(alt_env_lock.o)
 .bss           0x0084e0d4        0x0 ../projeto_final_bsp/\libucosii_bsp.a(alt_malloc_lock.o)
 .bss           0x0084e0d4        0x0 ../projeto_final_bsp/\libucosii_bsp.a(os_core.o)
 .bss           0x0084e0d4        0x0 ../projeto_final_bsp/\libucosii_bsp.a(os_dbg.o)
 .bss           0x0084e0d4        0x0 ../projeto_final_bsp/\libucosii_bsp.a(os_flag.o)
 .bss           0x0084e0d4        0x0 ../projeto_final_bsp/\libucosii_bsp.a(os_mem.o)
 .bss           0x0084e0d4        0x0 ../projeto_final_bsp/\libucosii_bsp.a(os_q.o)
 .bss           0x0084e0d4        0x0 ../projeto_final_bsp/\libucosii_bsp.a(os_sem.o)
 .bss           0x0084e0d4        0x0 ../projeto_final_bsp/\libucosii_bsp.a(os_task.o)
 .bss           0x0084e0d4        0x0 ../projeto_final_bsp/\libucosii_bsp.a(os_time.o)
 .bss           0x0084e0d4        0x0 ../projeto_final_bsp/\libucosii_bsp.a(alt_sys_init.o)
 .bss           0x0084e0d4        0x0 ../projeto_final_bsp/\libucosii_bsp.a(altera_avalon_cfi_flash.o)
 .bss           0x0084e0d4        0x0 ../projeto_final_bsp/\libucosii_bsp.a(altera_avalon_cfi_flash_table.o)
 .bss           0x0084e0d4        0x0 ../projeto_final_bsp/\libucosii_bsp.a(altera_avalon_epcs_flash_controller.o)
 .bss           0x0084e0d4        0x0 ../projeto_final_bsp/\libucosii_bsp.a(altera_avalon_jtag_uart_fd.o)
 .bss           0x0084e0d4        0x0 ../projeto_final_bsp/\libucosii_bsp.a(altera_avalon_jtag_uart_init.o)
 .bss           0x0084e0d4        0x0 ../projeto_final_bsp/\libucosii_bsp.a(altera_avalon_jtag_uart_ioctl.o)
 .bss           0x0084e0d4        0x0 ../projeto_final_bsp/\libucosii_bsp.a(altera_avalon_jtag_uart_read.o)
 .bss           0x0084e0d4        0x0 ../projeto_final_bsp/\libucosii_bsp.a(altera_avalon_jtag_uart_write.o)
 .bss           0x0084e0d4        0x0 ../projeto_final_bsp/\libucosii_bsp.a(altera_avalon_lcd_16207.o)
 .bss           0x0084e0d4        0x0 ../projeto_final_bsp/\libucosii_bsp.a(altera_avalon_lcd_16207_fd.o)
 .bss           0x0084e0d4        0x0 ../projeto_final_bsp/\libucosii_bsp.a(altera_avalon_timer_sc.o)
 .bss           0x0084e0d4        0x0 ../projeto_final_bsp/\libucosii_bsp.a(altera_avalon_uart_fd.o)
 .bss           0x0084e0d4        0x0 ../projeto_final_bsp/\libucosii_bsp.a(altera_avalon_uart_init.o)
 .bss           0x0084e0d4        0x0 ../projeto_final_bsp/\libucosii_bsp.a(altera_avalon_uart_read.o)
 .bss           0x0084e0d4        0x0 ../projeto_final_bsp/\libucosii_bsp.a(altera_avalon_uart_write.o)
 .bss           0x0084e0d4        0x0 ../projeto_final_bsp/\libucosii_bsp.a(epcs_commands.o)
 .bss           0x0084e0d4        0x0 ../projeto_final_bsp/\libucosii_bsp.a(alt_iniche_close.o)
 .bss           0x0084e0d4        0x0 ../projeto_final_bsp/\libucosii_bsp.a(alt_iniche_dev.o)
 .bss           0x0084e0d4        0x0 ../projeto_final_bsp/\libucosii_bsp.a(alt_iniche_read.o)
 .bss           0x0084e0d4        0x0 ../projeto_final_bsp/\libucosii_bsp.a(alt_iniche_write.o)
 .bss           0x0084e0d4        0x0 ../projeto_final_bsp/\libucosii_bsp.a(ipnet.o)
 .bss           0x0084e0d4       0x3c ../projeto_final_bsp/\libucosii_bsp.a(ipstart.o)
 .bss           0x0084e110        0x0 ../projeto_final_bsp/\libucosii_bsp.a(igmp_cmn.o)
 .bss           0x0084e110        0x0 ../projeto_final_bsp/\libucosii_bsp.a(bsdsock.o)
 .bss           0x0084e110        0x0 ../projeto_final_bsp/\libucosii_bsp.a(cksum.o)
 .bss           0x0084e110       0x18 ../projeto_final_bsp/\libucosii_bsp.a(in_utils.o)
 .bss           0x0084e128        0x0 ../projeto_final_bsp/\libucosii_bsp.a(netmain.o)
 .bss           0x0084e128       0x1e ../projeto_final_bsp/\libucosii_bsp.a(parseip.o)
 .bss           0x0084e146        0x0 ../projeto_final_bsp/\libucosii_bsp.a(tk_crnos.o)
 .bss           0x0084e146        0x0 ../projeto_final_bsp/\libucosii_bsp.a(dhcpclnt.o)
 .bss           0x0084e146        0x0 ../projeto_final_bsp/\libucosii_bsp.a(dhcputil.o)
 .bss           0x0084e146        0x0 ../projeto_final_bsp/\libucosii_bsp.a(pktalloc.o)
 .bss           0x0084e146        0x0 ../projeto_final_bsp/\libucosii_bsp.a(q.o)
 .bss           0x0084e146        0x0 ../projeto_final_bsp/\libucosii_bsp.a(udp_open.o)
 .bss           0x0084e146        0x0 ../projeto_final_bsp/\libucosii_bsp.a(asm_cksum.o)
 .bss           0x0084e146        0x0 ../projeto_final_bsp/\libucosii_bsp.a(brdutils.o)
 .bss           0x0084e146        0x0 ../projeto_final_bsp/\libucosii_bsp.a(osportco.o)
 .bss           0x0084e146        0x0 ../projeto_final_bsp/\libucosii_bsp.a(targnios.o)
 .bss           0x0084e146        0x0 ../projeto_final_bsp/\libucosii_bsp.a(nptcp.o)
 .bss           0x0084e146        0x0 ../projeto_final_bsp/\libucosii_bsp.a(rawsock.o)
 .bss           0x0084e146        0x0 ../projeto_final_bsp/\libucosii_bsp.a(sockcall.o)
 .bss           0x0084e146        0x0 ../projeto_final_bsp/\libucosii_bsp.a(socket.o)
 .bss           0x0084e146        0x0 ../projeto_final_bsp/\libucosii_bsp.a(socket2.o)
 .bss           0x0084e146        0x0 ../projeto_final_bsp/\libucosii_bsp.a(soselect.o)
 .bss           0x0084e146        0x0 ../projeto_final_bsp/\libucosii_bsp.a(tcp_in.o)
 .bss           0x0084e146        0x0 ../projeto_final_bsp/\libucosii_bsp.a(tcp_out.o)
 .bss           0x0084e146        0x0 ../projeto_final_bsp/\libucosii_bsp.a(tcp_subr.o)
 .bss           0x0084e146        0x0 ../projeto_final_bsp/\libucosii_bsp.a(tcp_timr.o)
 .bss           0x0084e146        0x0 ../projeto_final_bsp/\libucosii_bsp.a(tcp_usr.o)
 .bss           0x0084e146        0x0 ../projeto_final_bsp/\libucosii_bsp.a(tcpport.o)
 .bss           0x0084e146        0x0 ../projeto_final_bsp/\libucosii_bsp.a(udpsock.o)
 .bss           0x0084e146        0x0 ../projeto_final_bsp/\libucosii_bsp.a(alt_alarm_start.o)
 .bss           0x0084e146        0x0 ../projeto_final_bsp/\libucosii_bsp.a(alt_busy_sleep.o)
 .bss           0x0084e146        0x0 ../projeto_final_bsp/\libucosii_bsp.a(alt_close.o)
 .bss           0x0084e146        0x0 ../projeto_final_bsp/\libucosii_bsp.a(alt_dcache_flush.o)
 .bss           0x0084e146        0x0 ../projeto_final_bsp/\libucosii_bsp.a(alt_dev.o)
 .bss           0x0084e146        0x0 ../projeto_final_bsp/\libucosii_bsp.a(alt_dev_llist_insert.o)
 .bss           0x0084e146        0x0 ../projeto_final_bsp/\libucosii_bsp.a(alt_do_ctors.o)
 .bss           0x0084e146        0x0 ../projeto_final_bsp/\libucosii_bsp.a(alt_do_dtors.o)
 .bss           0x0084e146        0x0 ../projeto_final_bsp/\libucosii_bsp.a(alt_errno.o)
 .bss           0x0084e146        0x0 ../projeto_final_bsp/\libucosii_bsp.a(alt_find_dev.o)
 .bss           0x0084e146        0x0 ../projeto_final_bsp/\libucosii_bsp.a(alt_iic.o)
 .bss           0x0084e146        0x0 ../projeto_final_bsp/\libucosii_bsp.a(alt_iic_isr_register.o)
 .bss           0x0084e146        0x0 ../projeto_final_bsp/\libucosii_bsp.a(alt_io_redirect.o)
 .bss           0x0084e146        0x0 ../projeto_final_bsp/\libucosii_bsp.a(alt_irq_entry.o)
 .bss           0x0084e146        0x0 ../projeto_final_bsp/\libucosii_bsp.a(alt_irq_handler.o)
 .bss           0x0084e146        0x0 ../projeto_final_bsp/\libucosii_bsp.a(alt_open.o)
 .bss           0x0084e146        0x0 ../projeto_final_bsp/\libucosii_bsp.a(alt_read.o)
 .bss           0x0084e146        0x0 ../projeto_final_bsp/\libucosii_bsp.a(alt_release_fd.o)
 .bss           0x0084e146        0x0 ../projeto_final_bsp/\libucosii_bsp.a(alt_remap_cached.o)
 .bss           0x0084e146        0x0 ../projeto_final_bsp/\libucosii_bsp.a(alt_remap_uncached.o)
 .bss           0x0084e146        0x0 ../projeto_final_bsp/\libucosii_bsp.a(alt_tick.o)
 .bss           0x0084e146        0x0 ../projeto_final_bsp/\libucosii_bsp.a(alt_write.o)
 .bss           0x0084e146        0x0 ../projeto_final_bsp/\libucosii_bsp.a(altera_nios2_qsys_irq.o)
 .bss           0x0084e146        0x0 ../projeto_final_bsp/\libucosii_bsp.a(os_cpu_a.o)
 .bss           0x0084e146        0x0 ../projeto_final_bsp/\libucosii_bsp.a(os_cpu_c.o)
 .bss           0x0084e146        0x0 ../projeto_final_bsp/\libucosii_bsp.a(altera_avalon_cfi_flash_amd.o)
 .bss           0x0084e146        0x0 ../projeto_final_bsp/\libucosii_bsp.a(altera_avalon_cfi_flash_intel.o)
 .bss           0x0084e146        0x0 ../projeto_final_bsp/\libucosii_bsp.a(altera_avalon_spi.o)
 .bss           0x0084e146        0x0 ../projeto_final_bsp/\libucosii_bsp.a(allports.o)
 .bss           0x0084e146        0x0 ../projeto_final_bsp/\libucosii_bsp.a(timeouts.o)
 .bss           0x0084e146        0x0 ../projeto_final_bsp/\libucosii_bsp.a(tk_misc.o)
 .bss           0x0084e146        0x0 ../projeto_final_bsp/\libucosii_bsp.a(alt_iniche_fcntl.o)
 .bss           0x0084e146        0x0 ../projeto_final_bsp/\libucosii_bsp.a(et_arp.o)
 .bss           0x0084e146        0x0 ../projeto_final_bsp/\libucosii_bsp.a(iface.o)
 .bss           0x0084e146        0x0 ../projeto_final_bsp/\libucosii_bsp.a(ip.o)
 .bss           0x0084e146        0x0 ../projeto_final_bsp/\libucosii_bsp.a(ip_reasm.o)
 .bss           0x0084e146        0x0 ../projeto_final_bsp/\libucosii_bsp.a(ipdemux.o)
 .bss           0x0084e146        0x0 ../projeto_final_bsp/\libucosii_bsp.a(ipmc.o)
 .bss           0x0084e146        0x0 ../projeto_final_bsp/\libucosii_bsp.a(ipport.o)
 .bss           0x0084e146        0x0 ../projeto_final_bsp/\libucosii_bsp.a(ipraw.o)
 .bss           0x0084e146        0x0 ../projeto_final_bsp/\libucosii_bsp.a(iproute.o)
 .bss           0x0084e146        0x0 ../projeto_final_bsp/\libucosii_bsp.a(udp.o)
 .bss           0x0084e146        0x0 ../projeto_final_bsp/\libucosii_bsp.a(igmp.o)
 .bss           0x0084e146        0x0 ../projeto_final_bsp/\libucosii_bsp.a(igmp2.o)
 .bss           0x0084e146        0x0 ../projeto_final_bsp/\libucosii_bsp.a(ipopt.o)
 .bss           0x0084e146        0x0 ../projeto_final_bsp/\libucosii_bsp.a(dhcsetup.o)
 .bss           0x0084e146        0x0 ../projeto_final_bsp/\libucosii_bsp.a(memdev.o)
 .bss           0x0084e146        0x0 ../projeto_final_bsp/\libucosii_bsp.a(tcpcksum.o)
 .bss           0x0084e146        0x0 ../projeto_final_bsp/\libucosii_bsp.a(in_pcb.o)
 .bss           0x0084e146        0x0 ../projeto_final_bsp/\libucosii_bsp.a(vfsfiles.o)
 .bss           0x0084e146        0x0 ../projeto_final_bsp/\libucosii_bsp.a(vfsport.o)
 .bss           0x0084e146        0x0 ../projeto_final_bsp/\libucosii_bsp.a(alt_exception_entry.o)
 .bss           0x0084e146        0x0 ../projeto_final_bsp/\libucosii_bsp.a(alt_fcntl.o)
 .bss           0x0084e146        0x0 ../projeto_final_bsp/\libucosii_bsp.a(alt_find_file.o)
 .bss           0x0084e146        0x0 ../projeto_final_bsp/\libucosii_bsp.a(alt_get_fd.o)
 .bss           0x0084e146        0x0 ../projeto_final_bsp/\libucosii_bsp.a(icmp.o)
 .bss           0x0084e146        0x0 d:/altera/13.0sp1/nios2eds/bin/gnu/h-i686-mingw32/bin/../lib/gcc/nios2-elf/4.1.2/../../../../nios2-elf/lib\libc.a(lib_a-atexit.o)
 .bss           0x0084e146        0x0 d:/altera/13.0sp1/nios2eds/bin/gnu/h-i686-mingw32/bin/../lib/gcc/nios2-elf/4.1.2/../../../../nios2-elf/lib\libc.a(lib_a-calloc.o)
 .bss           0x0084e146        0x0 d:/altera/13.0sp1/nios2eds/bin/gnu/h-i686-mingw32/bin/../lib/gcc/nios2-elf/4.1.2/../../../../nios2-elf/lib\libc.a(lib_a-malloc.o)
 .bss           0x0084e146        0x0 d:/altera/13.0sp1/nios2eds/bin/gnu/h-i686-mingw32/bin/../lib/gcc/nios2-elf/4.1.2/../../../../nios2-elf/lib\libc.a(lib_a-memcmp.o)
 .bss           0x0084e146        0x0 d:/altera/13.0sp1/nios2eds/bin/gnu/h-i686-mingw32/bin/../lib/gcc/nios2-elf/4.1.2/../../../../nios2-elf/lib\libc.a(lib_a-strcpy.o)
 .bss           0x0084e146        0x0 d:/altera/13.0sp1/nios2eds/bin/gnu/h-i686-mingw32/bin/../lib/gcc/nios2-elf/4.1.2/../../../../nios2-elf/lib\libc.a(lib_a-strncmp.o)
 .bss           0x0084e146        0x0 d:/altera/13.0sp1/nios2eds/bin/gnu/h-i686-mingw32/bin/../lib/gcc/nios2-elf/4.1.2/../../../../nios2-elf/lib\libc.a(lib_a-strncpy.o)
 .bss           0x0084e146        0x0 d:/altera/13.0sp1/nios2eds/bin/gnu/h-i686-mingw32/bin/../lib/gcc/nios2-elf/4.1.2/../../../../nios2-elf/lib\libc.a(lib_a-vprintf.o)
 .bss           0x0084e146        0x0 d:/altera/13.0sp1/nios2eds/bin/gnu/h-i686-mingw32/bin/../lib/gcc/nios2-elf/4.1.2/../../../../nios2-elf/lib\libc.a(lib_a-vsprintf.o)
 .bss           0x0084e146        0x0 d:/altera/13.0sp1/nios2eds/bin/gnu/h-i686-mingw32/bin/../lib/gcc/nios2-elf/4.1.2/../../../../nios2-elf/lib\libc.a(lib_a-__atexit.o)
 *(COMMON)
 *fill*         0x0084e146        0x2 00
 COMMON         0x0084e148       0x44 obj/default/dm9000a.o
                0x0084e148                g_dm9ka
 COMMON         0x0084e18c     0x2000 obj/default/iniche_init.o
                0x0084e18c                SSSInitialTaskStk
 COMMON         0x0085018c     0x4078 obj/default/simple_socket_server.o
                0x0085018c                LED7SegLightshowTaskStk
                0x0085218c                SSSLEDCommandQTbl
                0x00852204                LEDManagementTaskStk
 COMMON         0x00854204     0x3224 ../projeto_final_bsp/\libucosii_bsp.a(os_core.o)
                0x00854204                OSFlagTbl
                0x00854574                OSMemTbl
                0x008551a4                OSTaskStatStk
                0x008559a4                OSQTbl
                0x00855b84                OSTaskIdleStk
                0x00856384                OSEventTbl
                0x00856ec4                OSTCBTbl
                0x008573d4                OSTCBPrioTbl
 COMMON         0x00857428       0x14 ../projeto_final_bsp/\libucosii_bsp.a(ipnet.o)
                0x00857428                rcvdq
 COMMON         0x0085743c      0x310 ../projeto_final_bsp/\libucosii_bsp.a(ipstart.o)
                0x0085743c                netstatic
                0x0085773c                nets
 COMMON         0x0085774c       0x64 ../projeto_final_bsp/\libucosii_bsp.a(igmp_cmn.o)
                0x0085774c                igmpstats
 COMMON         0x008577b0       0x24 ../projeto_final_bsp/\libucosii_bsp.a(in_utils.o)
                0x008577b0                eth_prt_buf
                0x008577c2                ipreturn
 COMMON         0x008577d4       0xf0 ../projeto_final_bsp/\libucosii_bsp.a(dhcpclnt.o)
                0x008577d4                dhc_states
 COMMON         0x008578c4      0x128 ../projeto_final_bsp/\libucosii_bsp.a(pktalloc.o)
                0x008578c4                lilfreeq
                0x008578d8                memestats
                0x008578e8                pktlog
                0x008579d8                bigfreeq
 COMMON         0x008579ec      0x1ec ../projeto_final_bsp/\libucosii_bsp.a(osportco.o)
                0x008579ec                global_tcb_ext
                0x00857ae8                global_TCPwakeup_set
 COMMON         0x00857bd8       0x58 ../projeto_final_bsp/\libucosii_bsp.a(targnios.o)
                0x00857bd8                resid_semaphore
                0x00857c18                app_semaphore
 COMMON         0x00857c30       0x78 ../projeto_final_bsp/\libucosii_bsp.a(nptcp.o)
                0x00857c30                soq
                0x00857c44                tcpmib
                0x00857c80                mbufq
                0x00857c94                mfreeq
 COMMON         0x00857ca8       0x28 ../projeto_final_bsp/\libucosii_bsp.a(tcp_in.o)
                0x00857ca8                tcp_saveti
 COMMON         0x00857cd0      0x10c ../projeto_final_bsp/\libucosii_bsp.a(tcp_subr.o)
                0x00857cd0                tcb
                0x00857cfc                tcpstat
 COMMON         0x00857ddc      0x100 ../projeto_final_bsp/\libucosii_bsp.a(alt_irq_handler.o)
                0x00857ddc                alt_irq
 COMMON         0x00857edc       0x64 ../projeto_final_bsp/\libucosii_bsp.a(timeouts.o)
                0x00857edc                intimers
 COMMON         0x00857f40      0x100 ../projeto_final_bsp/\libucosii_bsp.a(et_arp.o)
                0x00857f40                arp_table
 COMMON         0x00858040       0x14 ../projeto_final_bsp/\libucosii_bsp.a(iface.o)
                0x00858040                netlist
 COMMON         0x00858054       0x50 ../projeto_final_bsp/\libucosii_bsp.a(ip.o)
                0x00858054                ip_mib
 COMMON         0x008580a4       0x18 ../projeto_final_bsp/\libucosii_bsp.a(ip_reasm.o)
                0x008580a4                ire_stats
 COMMON         0x008580bc       0x10 ../projeto_final_bsp/\libucosii_bsp.a(udp.o)
                0x008580bc                udp_mib
 COMMON         0x008580cc       0x68 ../projeto_final_bsp/\libucosii_bsp.a(icmp.o)
                0x008580cc                icmp_mib
 COMMON         0x00858134      0x190 d:/altera/13.0sp1/nios2eds/bin/gnu/h-i686-mingw32/bin/../lib/gcc/nios2-elf/4.1.2/../../../../nios2-elf/lib\libc.a(lib_a-atexit.o)
                0x00858134                _atexit0
                0x008582c4                . = ALIGN (0x4)
                0x008582c4                __bss_end = ABSOLUTE (.)

.sdram_0        0x008582c4        0x0
                0x008582c4                PROVIDE (_alt_partition_sdram_0_start, ABSOLUTE (.))
 *(.sdram_0. sdram_0.*)
                0x008582c4                . = ALIGN (0x4)
                0x008582c4                PROVIDE (_alt_partition_sdram_0_end, ABSOLUTE (.))
                0x008582c4                _end = ABSOLUTE (.)
                0x008582c4                end = ABSOLUTE (.)
                0x008582c4                __alt_stack_base = ABSOLUTE (.)
                0x008582c4                PROVIDE (_alt_partition_sdram_0_load_addr, LOADADDR (.sdram_0))

.cfi_flash_0    0x01400020        0x0
                0x01400020                PROVIDE (_alt_partition_cfi_flash_0_start, ABSOLUTE (.))
 *(.cfi_flash_0. cfi_flash_0.*)
                0x01400020                . = ALIGN (0x4)
                0x01400020                PROVIDE (_alt_partition_cfi_flash_0_end, ABSOLUTE (.))
                0x01400020                PROVIDE (_alt_partition_cfi_flash_0_load_addr, LOADADDR (.cfi_flash_0))

.sram_0         0x01a00000        0x0
                0x01a00000                PROVIDE (_alt_partition_sram_0_start, ABSOLUTE (.))
 *(.sram_0. sram_0.*)
                0x01a00000                . = ALIGN (0x4)
                0x01a00000                PROVIDE (_alt_partition_sram_0_end, ABSOLUTE (.))
                0x01a00000                PROVIDE (_alt_partition_sram_0_load_addr, LOADADDR (.sram_0))

.epcs_controller
                0x01a81800        0x0
                0x01a81800                PROVIDE (_alt_partition_epcs_controller_start, ABSOLUTE (.))
 *(.epcs_controller. epcs_controller.*)
                0x01a81800                . = ALIGN (0x4)
                0x01a81800                PROVIDE (_alt_partition_epcs_controller_end, ABSOLUTE (.))
                0x01a81800                PROVIDE (_alt_partition_epcs_controller_load_addr, LOADADDR (.epcs_controller))

.stab
 *(.stab)

.stabstr
 *(.stabstr)

.stab.excl
 *(.stab.excl)

.stab.exclstr
 *(.stab.exclstr)

.stab.index
 *(.stab.index)

.stab.indexstr
 *(.stab.indexstr)

.comment        0x00000000       0x26
 *(.comment)
 .comment       0x00000000       0x26 obj/default/LCD.o
                                 0x27 (size before relaxing)
 .comment       0x00000000       0x27 obj/default/SSS_DE2_115.o
 .comment       0x00000000       0x27 obj/default/alt_error_handler.o
 .comment       0x00000000       0x27 obj/default/dm9000a.o
 .comment       0x00000000       0x27 obj/default/iniche_init.o
 .comment       0x00000000       0x27 obj/default/led.o
 .comment       0x00000000       0x27 obj/default/network_utilities.o
 .comment       0x00000000       0x27 obj/default/simple_socket_server.o
 .comment       0x00000000       0x27 obj/default/tse_my_system.o
 .comment       0x00000000       0x27 d:/altera/13.0sp1/nios2eds/bin/gnu/h-i686-mingw32/bin/../lib/gcc/nios2-elf/4.1.2\libgcc.a(_fixunsdfsi.o)
 .comment       0x00000000       0x27 d:/altera/13.0sp1/nios2eds/bin/gnu/h-i686-mingw32/bin/../lib/gcc/nios2-elf/4.1.2\libgcc.a(_addsub_df.o)
 .comment       0x00000000       0x27 d:/altera/13.0sp1/nios2eds/bin/gnu/h-i686-mingw32/bin/../lib/gcc/nios2-elf/4.1.2\libgcc.a(_mul_df.o)
 .comment       0x00000000       0x27 d:/altera/13.0sp1/nios2eds/bin/gnu/h-i686-mingw32/bin/../lib/gcc/nios2-elf/4.1.2\libgcc.a(_ge_df.o)
 .comment       0x00000000       0x27 d:/altera/13.0sp1/nios2eds/bin/gnu/h-i686-mingw32/bin/../lib/gcc/nios2-elf/4.1.2\libgcc.a(_df_to_si.o)
 .comment       0x00000000       0x27 d:/altera/13.0sp1/nios2eds/bin/gnu/h-i686-mingw32/bin/../lib/gcc/nios2-elf/4.1.2\libgcc.a(_thenan_df.o)
 .comment       0x00000000       0x27 d:/altera/13.0sp1/nios2eds/bin/gnu/h-i686-mingw32/bin/../lib/gcc/nios2-elf/4.1.2\libgcc.a(_usi_to_df.o)
 .comment       0x00000000       0x27 d:/altera/13.0sp1/nios2eds/bin/gnu/h-i686-mingw32/bin/../lib/gcc/nios2-elf/4.1.2\libgcc.a(_muldi3.o)
 .comment       0x00000000       0x27 d:/altera/13.0sp1/nios2eds/bin/gnu/h-i686-mingw32/bin/../lib/gcc/nios2-elf/4.1.2\libgcc.a(_clzsi2.o)
 .comment       0x00000000       0x27 d:/altera/13.0sp1/nios2eds/bin/gnu/h-i686-mingw32/bin/../lib/gcc/nios2-elf/4.1.2\libgcc.a(_pack_df.o)
 .comment       0x00000000       0x27 d:/altera/13.0sp1/nios2eds/bin/gnu/h-i686-mingw32/bin/../lib/gcc/nios2-elf/4.1.2\libgcc.a(_unpack_df.o)
 .comment       0x00000000       0x27 d:/altera/13.0sp1/nios2eds/bin/gnu/h-i686-mingw32/bin/../lib/gcc/nios2-elf/4.1.2\libgcc.a(_fpcmp_parts_df.o)
 .comment       0x00000000       0x27 d:/altera/13.0sp1/nios2eds/bin/gnu/h-i686-mingw32/bin/../lib/gcc/nios2-elf/4.1.2\libgcc.a(_clz.o)
 .comment       0x00000000       0x27 d:/altera/13.0sp1/nios2eds/bin/gnu/h-i686-mingw32/bin/../lib/gcc/nios2-elf/4.1.2/../../../../nios2-elf/lib\libc.a(lib_a-atoi.o)
 .comment       0x00000000       0x27 d:/altera/13.0sp1/nios2eds/bin/gnu/h-i686-mingw32/bin/../lib/gcc/nios2-elf/4.1.2/../../../../nios2-elf/lib\libc.a(lib_a-ctype_.o)
 .comment       0x00000000       0x27 d:/altera/13.0sp1/nios2eds/bin/gnu/h-i686-mingw32/bin/../lib/gcc/nios2-elf/4.1.2/../../../../nios2-elf/lib\libc.a(lib_a-errno.o)
 .comment       0x00000000       0x27 d:/altera/13.0sp1/nios2eds/bin/gnu/h-i686-mingw32/bin/../lib/gcc/nios2-elf/4.1.2/../../../../nios2-elf/lib\libc.a(lib_a-exit.o)
 .comment       0x00000000       0x27 d:/altera/13.0sp1/nios2eds/bin/gnu/h-i686-mingw32/bin/../lib/gcc/nios2-elf/4.1.2/../../../../nios2-elf/lib\libc.a(lib_a-fprintf.o)
 .comment       0x00000000       0x27 d:/altera/13.0sp1/nios2eds/bin/gnu/h-i686-mingw32/bin/../lib/gcc/nios2-elf/4.1.2/../../../../nios2-elf/lib\libc.a(lib_a-fwrite.o)
 .comment       0x00000000       0x27 d:/altera/13.0sp1/nios2eds/bin/gnu/h-i686-mingw32/bin/../lib/gcc/nios2-elf/4.1.2/../../../../nios2-elf/lib\libc.a(lib_a-getc.o)
 .comment       0x00000000       0x27 d:/altera/13.0sp1/nios2eds/bin/gnu/h-i686-mingw32/bin/../lib/gcc/nios2-elf/4.1.2/../../../../nios2-elf/lib\libc.a(lib_a-impure.o)
 .comment       0x00000000       0x27 d:/altera/13.0sp1/nios2eds/bin/gnu/h-i686-mingw32/bin/../lib/gcc/nios2-elf/4.1.2/../../../../nios2-elf/lib\libc.a(lib_a-memcpy.o)
 .comment       0x00000000       0x27 d:/altera/13.0sp1/nios2eds/bin/gnu/h-i686-mingw32/bin/../lib/gcc/nios2-elf/4.1.2/../../../../nios2-elf/lib\libc.a(lib_a-memmove.o)
 .comment       0x00000000       0x27 d:/altera/13.0sp1/nios2eds/bin/gnu/h-i686-mingw32/bin/../lib/gcc/nios2-elf/4.1.2/../../../../nios2-elf/lib\libc.a(lib_a-memset.o)
 .comment       0x00000000       0x27 d:/altera/13.0sp1/nios2eds/bin/gnu/h-i686-mingw32/bin/../lib/gcc/nios2-elf/4.1.2/../../../../nios2-elf/lib\libc.a(lib_a-perror.o)
 .comment       0x00000000       0x27 d:/altera/13.0sp1/nios2eds/bin/gnu/h-i686-mingw32/bin/../lib/gcc/nios2-elf/4.1.2/../../../../nios2-elf/lib\libc.a(lib_a-printf.o)
 .comment       0x00000000       0x27 d:/altera/13.0sp1/nios2eds/bin/gnu/h-i686-mingw32/bin/../lib/gcc/nios2-elf/4.1.2/../../../../nios2-elf/lib\libc.a(lib_a-putc.o)
 .comment       0x00000000       0x27 d:/altera/13.0sp1/nios2eds/bin/gnu/h-i686-mingw32/bin/../lib/gcc/nios2-elf/4.1.2/../../../../nios2-elf/lib\libc.a(lib_a-putchar.o)
 .comment       0x00000000       0x27 d:/altera/13.0sp1/nios2eds/bin/gnu/h-i686-mingw32/bin/../lib/gcc/nios2-elf/4.1.2/../../../../nios2-elf/lib\libc.a(lib_a-puts.o)
 .comment       0x00000000       0x27 d:/altera/13.0sp1/nios2eds/bin/gnu/h-i686-mingw32/bin/../lib/gcc/nios2-elf/4.1.2/../../../../nios2-elf/lib\libc.a(lib_a-rget.o)
 .comment       0x00000000       0x27 d:/altera/13.0sp1/nios2eds/bin/gnu/h-i686-mingw32/bin/../lib/gcc/nios2-elf/4.1.2/../../../../nios2-elf/lib\libc.a(lib_a-snprintf.o)
 .comment       0x00000000       0x27 d:/altera/13.0sp1/nios2eds/bin/gnu/h-i686-mingw32/bin/../lib/gcc/nios2-elf/4.1.2/../../../../nios2-elf/lib\libc.a(lib_a-sprintf.o)
 .comment       0x00000000       0x27 d:/altera/13.0sp1/nios2eds/bin/gnu/h-i686-mingw32/bin/../lib/gcc/nios2-elf/4.1.2/../../../../nios2-elf/lib\libc.a(lib_a-strchr.o)
 .comment       0x00000000       0x27 d:/altera/13.0sp1/nios2eds/bin/gnu/h-i686-mingw32/bin/../lib/gcc/nios2-elf/4.1.2/../../../../nios2-elf/lib\libc.a(lib_a-strcmp.o)
 .comment       0x00000000       0x27 d:/altera/13.0sp1/nios2eds/bin/gnu/h-i686-mingw32/bin/../lib/gcc/nios2-elf/4.1.2/../../../../nios2-elf/lib\libc.a(lib_a-strerror.o)
 .comment       0x00000000       0x27 d:/altera/13.0sp1/nios2eds/bin/gnu/h-i686-mingw32/bin/../lib/gcc/nios2-elf/4.1.2/../../../../nios2-elf/lib\libc.a(lib_a-strlen.o)
 .comment       0x00000000       0x27 d:/altera/13.0sp1/nios2eds/bin/gnu/h-i686-mingw32/bin/../lib/gcc/nios2-elf/4.1.2/../../../../nios2-elf/lib\libc.a(lib_a-strtok.o)
 .comment       0x00000000       0x27 d:/altera/13.0sp1/nios2eds/bin/gnu/h-i686-mingw32/bin/../lib/gcc/nios2-elf/4.1.2/../../../../nios2-elf/lib\libc.a(lib_a-strtok_r.o)
 .comment       0x00000000       0x27 d:/altera/13.0sp1/nios2eds/bin/gnu/h-i686-mingw32/bin/../lib/gcc/nios2-elf/4.1.2/../../../../nios2-elf/lib\libc.a(lib_a-strtol.o)
 .comment       0x00000000       0x27 d:/altera/13.0sp1/nios2eds/bin/gnu/h-i686-mingw32/bin/../lib/gcc/nios2-elf/4.1.2/../../../../nios2-elf/lib\libc.a(lib_a-u_strerr.o)
 .comment       0x00000000       0x27 d:/altera/13.0sp1/nios2eds/bin/gnu/h-i686-mingw32/bin/../lib/gcc/nios2-elf/4.1.2/../../../../nios2-elf/lib\libc.a(lib_a-vfprintf.o)
 .comment       0x00000000       0x27 d:/altera/13.0sp1/nios2eds/bin/gnu/h-i686-mingw32/bin/../lib/gcc/nios2-elf/4.1.2/../../../../nios2-elf/lib\libc.a(lib_a-wbuf.o)
 .comment       0x00000000       0x27 d:/altera/13.0sp1/nios2eds/bin/gnu/h-i686-mingw32/bin/../lib/gcc/nios2-elf/4.1.2/../../../../nios2-elf/lib\libc.a(lib_a-wsetup.o)
 .comment       0x00000000       0x27 d:/altera/13.0sp1/nios2eds/bin/gnu/h-i686-mingw32/bin/../lib/gcc/nios2-elf/4.1.2/../../../../nios2-elf/lib\libc.a(lib_a-__call_atexit.o)
 .comment       0x00000000       0x27 d:/altera/13.0sp1/nios2eds/bin/gnu/h-i686-mingw32/bin/../lib/gcc/nios2-elf/4.1.2/../../../../nios2-elf/lib\libc.a(lib_a-dtoa.o)
 .comment       0x00000000       0x27 d:/altera/13.0sp1/nios2eds/bin/gnu/h-i686-mingw32/bin/../lib/gcc/nios2-elf/4.1.2/../../../../nios2-elf/lib\libc.a(lib_a-fflush.o)
 .comment       0x00000000       0x27 d:/altera/13.0sp1/nios2eds/bin/gnu/h-i686-mingw32/bin/../lib/gcc/nios2-elf/4.1.2/../../../../nios2-elf/lib\libc.a(lib_a-findfp.o)
 .comment       0x00000000       0x27 d:/altera/13.0sp1/nios2eds/bin/gnu/h-i686-mingw32/bin/../lib/gcc/nios2-elf/4.1.2/../../../../nios2-elf/lib\libc.a(lib_a-fputc.o)
 .comment       0x00000000       0x27 d:/altera/13.0sp1/nios2eds/bin/gnu/h-i686-mingw32/bin/../lib/gcc/nios2-elf/4.1.2/../../../../nios2-elf/lib\libc.a(lib_a-fputs.o)
 .comment       0x00000000       0x27 d:/altera/13.0sp1/nios2eds/bin/gnu/h-i686-mingw32/bin/../lib/gcc/nios2-elf/4.1.2/../../../../nios2-elf/lib\libc.a(lib_a-freer.o)
 .comment       0x00000000       0x27 d:/altera/13.0sp1/nios2eds/bin/gnu/h-i686-mingw32/bin/../lib/gcc/nios2-elf/4.1.2/../../../../nios2-elf/lib\libc.a(lib_a-fvwrite.o)
 .comment       0x00000000       0x27 d:/altera/13.0sp1/nios2eds/bin/gnu/h-i686-mingw32/bin/../lib/gcc/nios2-elf/4.1.2/../../../../nios2-elf/lib\libc.a(lib_a-fwalk.o)
 .comment       0x00000000       0x27 d:/altera/13.0sp1/nios2eds/bin/gnu/h-i686-mingw32/bin/../lib/gcc/nios2-elf/4.1.2/../../../../nios2-elf/lib\libc.a(lib_a-locale.o)
 .comment       0x00000000       0x27 d:/altera/13.0sp1/nios2eds/bin/gnu/h-i686-mingw32/bin/../lib/gcc/nios2-elf/4.1.2/../../../../nios2-elf/lib\libc.a(lib_a-makebuf.o)
 .comment       0x00000000       0x27 d:/altera/13.0sp1/nios2eds/bin/gnu/h-i686-mingw32/bin/../lib/gcc/nios2-elf/4.1.2/../../../../nios2-elf/lib\libc.a(lib_a-mallocr.o)
 .comment       0x00000000       0x27 d:/altera/13.0sp1/nios2eds/bin/gnu/h-i686-mingw32/bin/../lib/gcc/nios2-elf/4.1.2/../../../../nios2-elf/lib\libc.a(lib_a-memchr.o)
 .comment       0x00000000       0x27 d:/altera/13.0sp1/nios2eds/bin/gnu/h-i686-mingw32/bin/../lib/gcc/nios2-elf/4.1.2/../../../../nios2-elf/lib\libc.a(lib_a-mprec.o)
 .comment       0x00000000       0x27 d:/altera/13.0sp1/nios2eds/bin/gnu/h-i686-mingw32/bin/../lib/gcc/nios2-elf/4.1.2/../../../../nios2-elf/lib\libc.a(lib_a-reallocr.o)
 .comment       0x00000000       0x27 d:/altera/13.0sp1/nios2eds/bin/gnu/h-i686-mingw32/bin/../lib/gcc/nios2-elf/4.1.2/../../../../nios2-elf/lib\libc.a(lib_a-refill.o)
 .comment       0x00000000       0x27 d:/altera/13.0sp1/nios2eds/bin/gnu/h-i686-mingw32/bin/../lib/gcc/nios2-elf/4.1.2/../../../../nios2-elf/lib\libc.a(lib_a-s_isinfd.o)
 .comment       0x00000000       0x27 d:/altera/13.0sp1/nios2eds/bin/gnu/h-i686-mingw32/bin/../lib/gcc/nios2-elf/4.1.2/../../../../nios2-elf/lib\libc.a(lib_a-s_isnand.o)
 .comment       0x00000000       0x27 d:/altera/13.0sp1/nios2eds/bin/gnu/h-i686-mingw32/bin/../lib/gcc/nios2-elf/4.1.2/../../../../nios2-elf/lib\libc.a(lib_a-sbrkr.o)
 .comment       0x00000000       0x27 d:/altera/13.0sp1/nios2eds/bin/gnu/h-i686-mingw32/bin/../lib/gcc/nios2-elf/4.1.2/../../../../nios2-elf/lib\libc.a(lib_a-stdio.o)
 .comment       0x00000000       0x27 d:/altera/13.0sp1/nios2eds/bin/gnu/h-i686-mingw32/bin/../lib/gcc/nios2-elf/4.1.2/../../../../nios2-elf/lib\libc.a(lib_a-writer.o)
 .comment       0x00000000       0x27 d:/altera/13.0sp1/nios2eds/bin/gnu/h-i686-mingw32/bin/../lib/gcc/nios2-elf/4.1.2/../../../../nios2-elf/lib\libc.a(lib_a-callocr.o)
 .comment       0x00000000       0x27 d:/altera/13.0sp1/nios2eds/bin/gnu/h-i686-mingw32/bin/../lib/gcc/nios2-elf/4.1.2/../../../../nios2-elf/lib\libc.a(lib_a-closer.o)
 .comment       0x00000000       0x27 d:/altera/13.0sp1/nios2eds/bin/gnu/h-i686-mingw32/bin/../lib/gcc/nios2-elf/4.1.2/../../../../nios2-elf/lib\libc.a(lib_a-fclose.o)
 .comment       0x00000000       0x27 d:/altera/13.0sp1/nios2eds/bin/gnu/h-i686-mingw32/bin/../lib/gcc/nios2-elf/4.1.2/../../../../nios2-elf/lib\libc.a(lib_a-fstatr.o)
 .comment       0x00000000       0x27 d:/altera/13.0sp1/nios2eds/bin/gnu/h-i686-mingw32/bin/../lib/gcc/nios2-elf/4.1.2/../../../../nios2-elf/lib\libc.a(lib_a-int_errno.o)
 .comment       0x00000000       0x27 d:/altera/13.0sp1/nios2eds/bin/gnu/h-i686-mingw32/bin/../lib/gcc/nios2-elf/4.1.2/../../../../nios2-elf/lib\libc.a(lib_a-isattyr.o)
 .comment       0x00000000       0x27 d:/altera/13.0sp1/nios2eds/bin/gnu/h-i686-mingw32/bin/../lib/gcc/nios2-elf/4.1.2/../../../../nios2-elf/lib\libc.a(lib_a-lseekr.o)
 .comment       0x00000000       0x27 d:/altera/13.0sp1/nios2eds/bin/gnu/h-i686-mingw32/bin/../lib/gcc/nios2-elf/4.1.2/../../../../nios2-elf/lib\libc.a(lib_a-readr.o)
 .comment       0x00000000       0x27 d:/altera/13.0sp1/nios2eds/bin/gnu/h-i686-mingw32/bin/../lib/gcc/nios2-elf/4.1.2\libgcc.a(_udivdi3.o)
 .comment       0x00000000       0x27 d:/altera/13.0sp1/nios2eds/bin/gnu/h-i686-mingw32/bin/../lib/gcc/nios2-elf/4.1.2\libgcc.a(_umoddi3.o)
 .comment       0x00000000       0x27 d:/altera/13.0sp1/nios2eds/bin/gnu/h-i686-mingw32/bin/../lib/gcc/nios2-elf/4.1.2\libgcc.a(_div_df.o)
 .comment       0x00000000       0x27 d:/altera/13.0sp1/nios2eds/bin/gnu/h-i686-mingw32/bin/../lib/gcc/nios2-elf/4.1.2\libgcc.a(_eq_df.o)
 .comment       0x00000000       0x27 d:/altera/13.0sp1/nios2eds/bin/gnu/h-i686-mingw32/bin/../lib/gcc/nios2-elf/4.1.2\libgcc.a(_ne_df.o)
 .comment       0x00000000       0x27 d:/altera/13.0sp1/nios2eds/bin/gnu/h-i686-mingw32/bin/../lib/gcc/nios2-elf/4.1.2\libgcc.a(_gt_df.o)
 .comment       0x00000000       0x27 d:/altera/13.0sp1/nios2eds/bin/gnu/h-i686-mingw32/bin/../lib/gcc/nios2-elf/4.1.2\libgcc.a(_lt_df.o)
 .comment       0x00000000       0x27 d:/altera/13.0sp1/nios2eds/bin/gnu/h-i686-mingw32/bin/../lib/gcc/nios2-elf/4.1.2\libgcc.a(_si_to_df.o)
 .comment       0x00000000       0x27 d:/altera/13.0sp1/nios2eds/bin/gnu/h-i686-mingw32/bin/../lib/gcc/nios2-elf/4.1.2\libgcc.a(lib2-divmod.o)
 .comment       0x00000000       0x27 ../projeto_final_bsp/\libucosii_bsp.a(alt_exit.o)
 .comment       0x00000000       0x27 ../projeto_final_bsp/\libucosii_bsp.a(alt_flash_dev.o)
 .comment       0x00000000       0x27 ../projeto_final_bsp/\libucosii_bsp.a(alt_fstat.o)
 .comment       0x00000000       0x27 ../projeto_final_bsp/\libucosii_bsp.a(alt_irq_register.o)
 .comment       0x00000000       0x27 ../projeto_final_bsp/\libucosii_bsp.a(alt_irq_vars.o)
 .comment       0x00000000       0x27 ../projeto_final_bsp/\libucosii_bsp.a(alt_isatty.o)
 .comment       0x00000000       0x27 ../projeto_final_bsp/\libucosii_bsp.a(alt_lseek.o)
 .comment       0x00000000       0x27 ../projeto_final_bsp/\libucosii_bsp.a(alt_main.o)
 .comment       0x00000000       0x27 ../projeto_final_bsp/\libucosii_bsp.a(alt_sbrk.o)
 .comment       0x00000000       0x27 ../projeto_final_bsp/\libucosii_bsp.a(alt_usleep.o)
 .comment       0x00000000       0x27 ../projeto_final_bsp/\libucosii_bsp.a(alt_env_lock.o)
 .comment       0x00000000       0x27 ../projeto_final_bsp/\libucosii_bsp.a(alt_malloc_lock.o)
 .comment       0x00000000       0x27 ../projeto_final_bsp/\libucosii_bsp.a(os_core.o)
 .comment       0x00000000       0x27 ../projeto_final_bsp/\libucosii_bsp.a(os_dbg.o)
 .comment       0x00000000       0x27 ../projeto_final_bsp/\libucosii_bsp.a(os_flag.o)
 .comment       0x00000000       0x27 ../projeto_final_bsp/\libucosii_bsp.a(os_mem.o)
 .comment       0x00000000       0x27 ../projeto_final_bsp/\libucosii_bsp.a(os_q.o)
 .comment       0x00000000       0x27 ../projeto_final_bsp/\libucosii_bsp.a(os_sem.o)
 .comment       0x00000000       0x27 ../projeto_final_bsp/\libucosii_bsp.a(os_task.o)
 .comment       0x00000000       0x27 ../projeto_final_bsp/\libucosii_bsp.a(os_time.o)
 .comment       0x00000000       0x27 ../projeto_final_bsp/\libucosii_bsp.a(alt_sys_init.o)
 .comment       0x00000000       0x27 ../projeto_final_bsp/\libucosii_bsp.a(altera_avalon_cfi_flash.o)
 .comment       0x00000000       0x27 ../projeto_final_bsp/\libucosii_bsp.a(altera_avalon_cfi_flash_table.o)
 .comment       0x00000000       0x27 ../projeto_final_bsp/\libucosii_bsp.a(altera_avalon_epcs_flash_controller.o)
 .comment       0x00000000       0x27 ../projeto_final_bsp/\libucosii_bsp.a(altera_avalon_jtag_uart_fd.o)
 .comment       0x00000000       0x27 ../projeto_final_bsp/\libucosii_bsp.a(altera_avalon_jtag_uart_init.o)
 .comment       0x00000000       0x27 ../projeto_final_bsp/\libucosii_bsp.a(altera_avalon_jtag_uart_ioctl.o)
 .comment       0x00000000       0x27 ../projeto_final_bsp/\libucosii_bsp.a(altera_avalon_jtag_uart_read.o)
 .comment       0x00000000       0x27 ../projeto_final_bsp/\libucosii_bsp.a(altera_avalon_jtag_uart_write.o)
 .comment       0x00000000       0x27 ../projeto_final_bsp/\libucosii_bsp.a(altera_avalon_lcd_16207.o)
 .comment       0x00000000       0x27 ../projeto_final_bsp/\libucosii_bsp.a(altera_avalon_lcd_16207_fd.o)
 .comment       0x00000000       0x27 ../projeto_final_bsp/\libucosii_bsp.a(altera_avalon_timer_sc.o)
 .comment       0x00000000       0x27 ../projeto_final_bsp/\libucosii_bsp.a(altera_avalon_uart_fd.o)
 .comment       0x00000000       0x27 ../projeto_final_bsp/\libucosii_bsp.a(altera_avalon_uart_init.o)
 .comment       0x00000000       0x27 ../projeto_final_bsp/\libucosii_bsp.a(altera_avalon_uart_read.o)
 .comment       0x00000000       0x27 ../projeto_final_bsp/\libucosii_bsp.a(altera_avalon_uart_write.o)
 .comment       0x00000000       0x27 ../projeto_final_bsp/\libucosii_bsp.a(epcs_commands.o)
 .comment       0x00000000       0x27 ../projeto_final_bsp/\libucosii_bsp.a(alt_iniche_close.o)
 .comment       0x00000000       0x27 ../projeto_final_bsp/\libucosii_bsp.a(alt_iniche_dev.o)
 .comment       0x00000000       0x27 ../projeto_final_bsp/\libucosii_bsp.a(alt_iniche_read.o)
 .comment       0x00000000       0x27 ../projeto_final_bsp/\libucosii_bsp.a(alt_iniche_write.o)
 .comment       0x00000000       0x27 ../projeto_final_bsp/\libucosii_bsp.a(ipnet.o)
 .comment       0x00000000       0x27 ../projeto_final_bsp/\libucosii_bsp.a(ipstart.o)
 .comment       0x00000000       0x27 ../projeto_final_bsp/\libucosii_bsp.a(igmp_cmn.o)
 .comment       0x00000000       0x27 ../projeto_final_bsp/\libucosii_bsp.a(bsdsock.o)
 .comment       0x00000000       0x27 ../projeto_final_bsp/\libucosii_bsp.a(cksum.o)
 .comment       0x00000000       0x27 ../projeto_final_bsp/\libucosii_bsp.a(in_utils.o)
 .comment       0x00000000       0x27 ../projeto_final_bsp/\libucosii_bsp.a(netmain.o)
 .comment       0x00000000       0x27 ../projeto_final_bsp/\libucosii_bsp.a(parseip.o)
 .comment       0x00000000       0x27 ../projeto_final_bsp/\libucosii_bsp.a(tk_crnos.o)
 .comment       0x00000000       0x27 ../projeto_final_bsp/\libucosii_bsp.a(dhcpclnt.o)
 .comment       0x00000000       0x27 ../projeto_final_bsp/\libucosii_bsp.a(dhcputil.o)
 .comment       0x00000000       0x27 ../projeto_final_bsp/\libucosii_bsp.a(pktalloc.o)
 .comment       0x00000000       0x27 ../projeto_final_bsp/\libucosii_bsp.a(q.o)
 .comment       0x00000000       0x27 ../projeto_final_bsp/\libucosii_bsp.a(udp_open.o)
 .comment       0x00000000       0x27 ../projeto_final_bsp/\libucosii_bsp.a(brdutils.o)
 .comment       0x00000000       0x27 ../projeto_final_bsp/\libucosii_bsp.a(osportco.o)
 .comment       0x00000000       0x27 ../projeto_final_bsp/\libucosii_bsp.a(targnios.o)
 .comment       0x00000000       0x27 ../projeto_final_bsp/\libucosii_bsp.a(nptcp.o)
 .comment       0x00000000       0x27 ../projeto_final_bsp/\libucosii_bsp.a(rawsock.o)
 .comment       0x00000000       0x27 ../projeto_final_bsp/\libucosii_bsp.a(sockcall.o)
 .comment       0x00000000       0x27 ../projeto_final_bsp/\libucosii_bsp.a(socket.o)
 .comment       0x00000000       0x27 ../projeto_final_bsp/\libucosii_bsp.a(socket2.o)
 .comment       0x00000000       0x27 ../projeto_final_bsp/\libucosii_bsp.a(soselect.o)
 .comment       0x00000000       0x27 ../projeto_final_bsp/\libucosii_bsp.a(tcp_in.o)
 .comment       0x00000000       0x27 ../projeto_final_bsp/\libucosii_bsp.a(tcp_out.o)
 .comment       0x00000000       0x27 ../projeto_final_bsp/\libucosii_bsp.a(tcp_subr.o)
 .comment       0x00000000       0x27 ../projeto_final_bsp/\libucosii_bsp.a(tcp_timr.o)
 .comment       0x00000000       0x27 ../projeto_final_bsp/\libucosii_bsp.a(tcp_usr.o)
 .comment       0x00000000       0x27 ../projeto_final_bsp/\libucosii_bsp.a(tcpport.o)
 .comment       0x00000000       0x27 ../projeto_final_bsp/\libucosii_bsp.a(udpsock.o)
 .comment       0x00000000       0x27 ../projeto_final_bsp/\libucosii_bsp.a(alt_alarm_start.o)
 .comment       0x00000000       0x27 ../projeto_final_bsp/\libucosii_bsp.a(alt_busy_sleep.o)
 .comment       0x00000000       0x27 ../projeto_final_bsp/\libucosii_bsp.a(alt_close.o)
 .comment       0x00000000       0x27 ../projeto_final_bsp/\libucosii_bsp.a(alt_dcache_flush.o)
 .comment       0x00000000       0x27 ../projeto_final_bsp/\libucosii_bsp.a(alt_dev.o)
 .comment       0x00000000       0x27 ../projeto_final_bsp/\libucosii_bsp.a(alt_dev_llist_insert.o)
 .comment       0x00000000       0x27 ../projeto_final_bsp/\libucosii_bsp.a(alt_do_ctors.o)
 .comment       0x00000000       0x27 ../projeto_final_bsp/\libucosii_bsp.a(alt_do_dtors.o)
 .comment       0x00000000       0x27 ../projeto_final_bsp/\libucosii_bsp.a(alt_errno.o)
 .comment       0x00000000       0x27 ../projeto_final_bsp/\libucosii_bsp.a(alt_find_dev.o)
 .comment       0x00000000       0x27 ../projeto_final_bsp/\libucosii_bsp.a(alt_iic.o)
 .comment       0x00000000       0x27 ../projeto_final_bsp/\libucosii_bsp.a(alt_iic_isr_register.o)
 .comment       0x00000000       0x27 ../projeto_final_bsp/\libucosii_bsp.a(alt_io_redirect.o)
 .comment       0x00000000       0x27 ../projeto_final_bsp/\libucosii_bsp.a(alt_irq_handler.o)
 .comment       0x00000000       0x27 ../projeto_final_bsp/\libucosii_bsp.a(alt_open.o)
 .comment       0x00000000       0x27 ../projeto_final_bsp/\libucosii_bsp.a(alt_read.o)
 .comment       0x00000000       0x27 ../projeto_final_bsp/\libucosii_bsp.a(alt_release_fd.o)
 .comment       0x00000000       0x27 ../projeto_final_bsp/\libucosii_bsp.a(alt_remap_cached.o)
 .comment       0x00000000       0x27 ../projeto_final_bsp/\libucosii_bsp.a(alt_remap_uncached.o)
 .comment       0x00000000       0x27 ../projeto_final_bsp/\libucosii_bsp.a(alt_tick.o)
 .comment       0x00000000       0x27 ../projeto_final_bsp/\libucosii_bsp.a(alt_write.o)
 .comment       0x00000000       0x27 ../projeto_final_bsp/\libucosii_bsp.a(altera_nios2_qsys_irq.o)
 .comment       0x00000000       0x27 ../projeto_final_bsp/\libucosii_bsp.a(os_cpu_c.o)
 .comment       0x00000000       0x27 ../projeto_final_bsp/\libucosii_bsp.a(altera_avalon_cfi_flash_amd.o)
 .comment       0x00000000       0x27 ../projeto_final_bsp/\libucosii_bsp.a(altera_avalon_cfi_flash_intel.o)
 .comment       0x00000000       0x27 ../projeto_final_bsp/\libucosii_bsp.a(altera_avalon_spi.o)
 .comment       0x00000000       0x27 ../projeto_final_bsp/\libucosii_bsp.a(allports.o)
 .comment       0x00000000       0x27 ../projeto_final_bsp/\libucosii_bsp.a(timeouts.o)
 .comment       0x00000000       0x27 ../projeto_final_bsp/\libucosii_bsp.a(tk_misc.o)
 .comment       0x00000000       0x27 ../projeto_final_bsp/\libucosii_bsp.a(alt_iniche_fcntl.o)
 .comment       0x00000000       0x27 ../projeto_final_bsp/\libucosii_bsp.a(et_arp.o)
 .comment       0x00000000       0x27 ../projeto_final_bsp/\libucosii_bsp.a(iface.o)
 .comment       0x00000000       0x27 ../projeto_final_bsp/\libucosii_bsp.a(ip.o)
 .comment       0x00000000       0x27 ../projeto_final_bsp/\libucosii_bsp.a(ip_reasm.o)
 .comment       0x00000000       0x27 ../projeto_final_bsp/\libucosii_bsp.a(ipdemux.o)
 .comment       0x00000000       0x27 ../projeto_final_bsp/\libucosii_bsp.a(ipmc.o)
 .comment       0x00000000       0x27 ../projeto_final_bsp/\libucosii_bsp.a(ipport.o)
 .comment       0x00000000       0x27 ../projeto_final_bsp/\libucosii_bsp.a(ipraw.o)
 .comment       0x00000000       0x27 ../projeto_final_bsp/\libucosii_bsp.a(iproute.o)
 .comment       0x00000000       0x27 ../projeto_final_bsp/\libucosii_bsp.a(udp.o)
 .comment       0x00000000       0x27 ../projeto_final_bsp/\libucosii_bsp.a(igmp.o)
 .comment       0x00000000       0x27 ../projeto_final_bsp/\libucosii_bsp.a(igmp2.o)
 .comment       0x00000000       0x27 ../projeto_final_bsp/\libucosii_bsp.a(ipopt.o)
 .comment       0x00000000       0x27 ../projeto_final_bsp/\libucosii_bsp.a(dhcsetup.o)
 .comment       0x00000000       0x27 ../projeto_final_bsp/\libucosii_bsp.a(memdev.o)
 .comment       0x00000000       0x27 ../projeto_final_bsp/\libucosii_bsp.a(tcpcksum.o)
 .comment       0x00000000       0x27 ../projeto_final_bsp/\libucosii_bsp.a(in_pcb.o)
 .comment       0x00000000       0x27 ../projeto_final_bsp/\libucosii_bsp.a(vfsfiles.o)
 .comment       0x00000000       0x27 ../projeto_final_bsp/\libucosii_bsp.a(vfsport.o)
 .comment       0x00000000       0x27 ../projeto_final_bsp/\libucosii_bsp.a(alt_fcntl.o)
 .comment       0x00000000       0x27 ../projeto_final_bsp/\libucosii_bsp.a(alt_find_file.o)
 .comment       0x00000000       0x27 ../projeto_final_bsp/\libucosii_bsp.a(alt_get_fd.o)
 .comment       0x00000000       0x27 ../projeto_final_bsp/\libucosii_bsp.a(icmp.o)
 .comment       0x00000000       0x27 d:/altera/13.0sp1/nios2eds/bin/gnu/h-i686-mingw32/bin/../lib/gcc/nios2-elf/4.1.2/../../../../nios2-elf/lib\libc.a(lib_a-atexit.o)
 .comment       0x00000000       0x27 d:/altera/13.0sp1/nios2eds/bin/gnu/h-i686-mingw32/bin/../lib/gcc/nios2-elf/4.1.2/../../../../nios2-elf/lib\libc.a(lib_a-calloc.o)
 .comment       0x00000000       0x27 d:/altera/13.0sp1/nios2eds/bin/gnu/h-i686-mingw32/bin/../lib/gcc/nios2-elf/4.1.2/../../../../nios2-elf/lib\libc.a(lib_a-malloc.o)
 .comment       0x00000000       0x27 d:/altera/13.0sp1/nios2eds/bin/gnu/h-i686-mingw32/bin/../lib/gcc/nios2-elf/4.1.2/../../../../nios2-elf/lib\libc.a(lib_a-memcmp.o)
 .comment       0x00000000       0x27 d:/altera/13.0sp1/nios2eds/bin/gnu/h-i686-mingw32/bin/../lib/gcc/nios2-elf/4.1.2/../../../../nios2-elf/lib\libc.a(lib_a-strcpy.o)
 .comment       0x00000000       0x27 d:/altera/13.0sp1/nios2eds/bin/gnu/h-i686-mingw32/bin/../lib/gcc/nios2-elf/4.1.2/../../../../nios2-elf/lib\libc.a(lib_a-strncmp.o)
 .comment       0x00000000       0x27 d:/altera/13.0sp1/nios2eds/bin/gnu/h-i686-mingw32/bin/../lib/gcc/nios2-elf/4.1.2/../../../../nios2-elf/lib\libc.a(lib_a-strncpy.o)
 .comment       0x00000000       0x27 d:/altera/13.0sp1/nios2eds/bin/gnu/h-i686-mingw32/bin/../lib/gcc/nios2-elf/4.1.2/../../../../nios2-elf/lib\libc.a(lib_a-vprintf.o)
 .comment       0x00000000       0x27 d:/altera/13.0sp1/nios2eds/bin/gnu/h-i686-mingw32/bin/../lib/gcc/nios2-elf/4.1.2/../../../../nios2-elf/lib\libc.a(lib_a-vsprintf.o)
 .comment       0x00000000       0x27 d:/altera/13.0sp1/nios2eds/bin/gnu/h-i686-mingw32/bin/../lib/gcc/nios2-elf/4.1.2/../../../../nios2-elf/lib\libc.a(lib_a-__atexit.o)

.debug
 *(.debug)

.line
 *(.line)

.debug_srcinfo
 *(.debug_srcinfo)

.debug_sfnames
 *(.debug_sfnames)

.debug_aranges  0x00000000     0x1bd0
 *(.debug_aranges)
 .debug_aranges
                0x00000000       0x20 ../projeto_final_bsp//obj/HAL/src/crt0.o
 .debug_aranges
                0x00000020       0x20 obj/default/LCD.o
 .debug_aranges
                0x00000040       0x20 obj/default/SSS_DE2_115.o
 .debug_aranges
                0x00000060       0x20 obj/default/alt_error_handler.o
 .debug_aranges
                0x00000080       0x20 obj/default/dm9000a.o
 .debug_aranges
                0x000000a0       0x20 obj/default/iniche_init.o
 .debug_aranges
                0x000000c0       0x20 obj/default/led.o
 .debug_aranges
                0x000000e0       0x20 obj/default/network_utilities.o
 .debug_aranges
                0x00000100       0x20 obj/default/simple_socket_server.o
 .debug_aranges
                0x00000120       0x20 d:/altera/13.0sp1/nios2eds/bin/gnu/h-i686-mingw32/bin/../lib/gcc/nios2-elf/4.1.2\libgcc.a(_fixunsdfsi.o)
 .debug_aranges
                0x00000140       0x20 d:/altera/13.0sp1/nios2eds/bin/gnu/h-i686-mingw32/bin/../lib/gcc/nios2-elf/4.1.2\libgcc.a(_addsub_df.o)
 .debug_aranges
                0x00000160       0x20 d:/altera/13.0sp1/nios2eds/bin/gnu/h-i686-mingw32/bin/../lib/gcc/nios2-elf/4.1.2\libgcc.a(_mul_df.o)
 .debug_aranges
                0x00000180       0x20 d:/altera/13.0sp1/nios2eds/bin/gnu/h-i686-mingw32/bin/../lib/gcc/nios2-elf/4.1.2\libgcc.a(_ge_df.o)
 .debug_aranges
                0x000001a0       0x20 d:/altera/13.0sp1/nios2eds/bin/gnu/h-i686-mingw32/bin/../lib/gcc/nios2-elf/4.1.2\libgcc.a(_df_to_si.o)
 .debug_aranges
                0x000001c0       0x20 d:/altera/13.0sp1/nios2eds/bin/gnu/h-i686-mingw32/bin/../lib/gcc/nios2-elf/4.1.2\libgcc.a(_usi_to_df.o)
 .debug_aranges
                0x000001e0       0x20 d:/altera/13.0sp1/nios2eds/bin/gnu/h-i686-mingw32/bin/../lib/gcc/nios2-elf/4.1.2\libgcc.a(_muldi3.o)
 .debug_aranges
                0x00000200       0x20 d:/altera/13.0sp1/nios2eds/bin/gnu/h-i686-mingw32/bin/../lib/gcc/nios2-elf/4.1.2\libgcc.a(_clzsi2.o)
 .debug_aranges
                0x00000220       0x20 d:/altera/13.0sp1/nios2eds/bin/gnu/h-i686-mingw32/bin/../lib/gcc/nios2-elf/4.1.2\libgcc.a(_pack_df.o)
 .debug_aranges
                0x00000240       0x20 d:/altera/13.0sp1/nios2eds/bin/gnu/h-i686-mingw32/bin/../lib/gcc/nios2-elf/4.1.2\libgcc.a(_unpack_df.o)
 .debug_aranges
                0x00000260       0x20 d:/altera/13.0sp1/nios2eds/bin/gnu/h-i686-mingw32/bin/../lib/gcc/nios2-elf/4.1.2\libgcc.a(_fpcmp_parts_df.o)
 .debug_aranges
                0x00000280       0x20 d:/altera/13.0sp1/nios2eds/bin/gnu/h-i686-mingw32/bin/../lib/gcc/nios2-elf/4.1.2/../../../../nios2-elf/lib\libc.a(lib_a-atoi.o)
 .debug_aranges
                0x000002a0       0x20 d:/altera/13.0sp1/nios2eds/bin/gnu/h-i686-mingw32/bin/../lib/gcc/nios2-elf/4.1.2/../../../../nios2-elf/lib\libc.a(lib_a-errno.o)
 .debug_aranges
                0x000002c0       0x20 d:/altera/13.0sp1/nios2eds/bin/gnu/h-i686-mingw32/bin/../lib/gcc/nios2-elf/4.1.2/../../../../nios2-elf/lib\libc.a(lib_a-exit.o)
 .debug_aranges
                0x000002e0       0x20 d:/altera/13.0sp1/nios2eds/bin/gnu/h-i686-mingw32/bin/../lib/gcc/nios2-elf/4.1.2/../../../../nios2-elf/lib\libc.a(lib_a-fprintf.o)
 .debug_aranges
                0x00000300       0x20 d:/altera/13.0sp1/nios2eds/bin/gnu/h-i686-mingw32/bin/../lib/gcc/nios2-elf/4.1.2/../../../../nios2-elf/lib\libc.a(lib_a-fwrite.o)
 .debug_aranges
                0x00000320       0x20 d:/altera/13.0sp1/nios2eds/bin/gnu/h-i686-mingw32/bin/../lib/gcc/nios2-elf/4.1.2/../../../../nios2-elf/lib\libc.a(lib_a-getc.o)
 .debug_aranges
                0x00000340       0x20 d:/altera/13.0sp1/nios2eds/bin/gnu/h-i686-mingw32/bin/../lib/gcc/nios2-elf/4.1.2/../../../../nios2-elf/lib\libc.a(lib_a-memcpy.o)
 .debug_aranges
                0x00000360       0x20 d:/altera/13.0sp1/nios2eds/bin/gnu/h-i686-mingw32/bin/../lib/gcc/nios2-elf/4.1.2/../../../../nios2-elf/lib\libc.a(lib_a-memmove.o)
 .debug_aranges
                0x00000380       0x20 d:/altera/13.0sp1/nios2eds/bin/gnu/h-i686-mingw32/bin/../lib/gcc/nios2-elf/4.1.2/../../../../nios2-elf/lib\libc.a(lib_a-memset.o)
 .debug_aranges
                0x000003a0       0x20 d:/altera/13.0sp1/nios2eds/bin/gnu/h-i686-mingw32/bin/../lib/gcc/nios2-elf/4.1.2/../../../../nios2-elf/lib\libc.a(lib_a-perror.o)
 .debug_aranges
                0x000003c0       0x20 d:/altera/13.0sp1/nios2eds/bin/gnu/h-i686-mingw32/bin/../lib/gcc/nios2-elf/4.1.2/../../../../nios2-elf/lib\libc.a(lib_a-printf.o)
 .debug_aranges
                0x000003e0       0x20 d:/altera/13.0sp1/nios2eds/bin/gnu/h-i686-mingw32/bin/../lib/gcc/nios2-elf/4.1.2/../../../../nios2-elf/lib\libc.a(lib_a-putc.o)
 .debug_aranges
                0x00000400       0x20 d:/altera/13.0sp1/nios2eds/bin/gnu/h-i686-mingw32/bin/../lib/gcc/nios2-elf/4.1.2/../../../../nios2-elf/lib\libc.a(lib_a-putchar.o)
 .debug_aranges
                0x00000420       0x20 d:/altera/13.0sp1/nios2eds/bin/gnu/h-i686-mingw32/bin/../lib/gcc/nios2-elf/4.1.2/../../../../nios2-elf/lib\libc.a(lib_a-puts.o)
 .debug_aranges
                0x00000440       0x20 d:/altera/13.0sp1/nios2eds/bin/gnu/h-i686-mingw32/bin/../lib/gcc/nios2-elf/4.1.2/../../../../nios2-elf/lib\libc.a(lib_a-rget.o)
 .debug_aranges
                0x00000460       0x20 d:/altera/13.0sp1/nios2eds/bin/gnu/h-i686-mingw32/bin/../lib/gcc/nios2-elf/4.1.2/../../../../nios2-elf/lib\libc.a(lib_a-snprintf.o)
 .debug_aranges
                0x00000480       0x20 d:/altera/13.0sp1/nios2eds/bin/gnu/h-i686-mingw32/bin/../lib/gcc/nios2-elf/4.1.2/../../../../nios2-elf/lib\libc.a(lib_a-sprintf.o)
 .debug_aranges
                0x000004a0       0x20 d:/altera/13.0sp1/nios2eds/bin/gnu/h-i686-mingw32/bin/../lib/gcc/nios2-elf/4.1.2/../../../../nios2-elf/lib\libc.a(lib_a-strchr.o)
 .debug_aranges
                0x000004c0       0x20 d:/altera/13.0sp1/nios2eds/bin/gnu/h-i686-mingw32/bin/../lib/gcc/nios2-elf/4.1.2/../../../../nios2-elf/lib\libc.a(lib_a-strcmp.o)
 .debug_aranges
                0x000004e0       0x20 d:/altera/13.0sp1/nios2eds/bin/gnu/h-i686-mingw32/bin/../lib/gcc/nios2-elf/4.1.2/../../../../nios2-elf/lib\libc.a(lib_a-strerror.o)
 .debug_aranges
                0x00000500       0x20 d:/altera/13.0sp1/nios2eds/bin/gnu/h-i686-mingw32/bin/../lib/gcc/nios2-elf/4.1.2/../../../../nios2-elf/lib\libc.a(lib_a-strlen.o)
 .debug_aranges
                0x00000520       0x20 d:/altera/13.0sp1/nios2eds/bin/gnu/h-i686-mingw32/bin/../lib/gcc/nios2-elf/4.1.2/../../../../nios2-elf/lib\libc.a(lib_a-strtok.o)
 .debug_aranges
                0x00000540       0x20 d:/altera/13.0sp1/nios2eds/bin/gnu/h-i686-mingw32/bin/../lib/gcc/nios2-elf/4.1.2/../../../../nios2-elf/lib\libc.a(lib_a-strtok_r.o)
 .debug_aranges
                0x00000560       0x20 d:/altera/13.0sp1/nios2eds/bin/gnu/h-i686-mingw32/bin/../lib/gcc/nios2-elf/4.1.2/../../../../nios2-elf/lib\libc.a(lib_a-strtol.o)
 .debug_aranges
                0x00000580       0x20 d:/altera/13.0sp1/nios2eds/bin/gnu/h-i686-mingw32/bin/../lib/gcc/nios2-elf/4.1.2/../../../../nios2-elf/lib\libc.a(lib_a-u_strerr.o)
 .debug_aranges
                0x000005a0       0x20 d:/altera/13.0sp1/nios2eds/bin/gnu/h-i686-mingw32/bin/../lib/gcc/nios2-elf/4.1.2/../../../../nios2-elf/lib\libc.a(lib_a-vfprintf.o)
 .debug_aranges
                0x000005c0       0x20 d:/altera/13.0sp1/nios2eds/bin/gnu/h-i686-mingw32/bin/../lib/gcc/nios2-elf/4.1.2/../../../../nios2-elf/lib\libc.a(lib_a-wbuf.o)
 .debug_aranges
                0x000005e0       0x20 d:/altera/13.0sp1/nios2eds/bin/gnu/h-i686-mingw32/bin/../lib/gcc/nios2-elf/4.1.2/../../../../nios2-elf/lib\libc.a(lib_a-wsetup.o)
 .debug_aranges
                0x00000600       0x20 d:/altera/13.0sp1/nios2eds/bin/gnu/h-i686-mingw32/bin/../lib/gcc/nios2-elf/4.1.2/../../../../nios2-elf/lib\libc.a(lib_a-__call_atexit.o)
 .debug_aranges
                0x00000620       0x20 d:/altera/13.0sp1/nios2eds/bin/gnu/h-i686-mingw32/bin/../lib/gcc/nios2-elf/4.1.2/../../../../nios2-elf/lib\libc.a(lib_a-dtoa.o)
 .debug_aranges
                0x00000640       0x20 d:/altera/13.0sp1/nios2eds/bin/gnu/h-i686-mingw32/bin/../lib/gcc/nios2-elf/4.1.2/../../../../nios2-elf/lib\libc.a(lib_a-fflush.o)
 .debug_aranges
                0x00000660       0x20 d:/altera/13.0sp1/nios2eds/bin/gnu/h-i686-mingw32/bin/../lib/gcc/nios2-elf/4.1.2/../../../../nios2-elf/lib\libc.a(lib_a-findfp.o)
 .debug_aranges
                0x00000680       0x20 d:/altera/13.0sp1/nios2eds/bin/gnu/h-i686-mingw32/bin/../lib/gcc/nios2-elf/4.1.2/../../../../nios2-elf/lib\libc.a(lib_a-fputc.o)
 .debug_aranges
                0x000006a0       0x20 d:/altera/13.0sp1/nios2eds/bin/gnu/h-i686-mingw32/bin/../lib/gcc/nios2-elf/4.1.2/../../../../nios2-elf/lib\libc.a(lib_a-fputs.o)
 .debug_aranges
                0x000006c0       0x20 d:/altera/13.0sp1/nios2eds/bin/gnu/h-i686-mingw32/bin/../lib/gcc/nios2-elf/4.1.2/../../../../nios2-elf/lib\libc.a(lib_a-freer.o)
 .debug_aranges
                0x000006e0       0x20 d:/altera/13.0sp1/nios2eds/bin/gnu/h-i686-mingw32/bin/../lib/gcc/nios2-elf/4.1.2/../../../../nios2-elf/lib\libc.a(lib_a-fvwrite.o)
 .debug_aranges
                0x00000700       0x20 d:/altera/13.0sp1/nios2eds/bin/gnu/h-i686-mingw32/bin/../lib/gcc/nios2-elf/4.1.2/../../../../nios2-elf/lib\libc.a(lib_a-fwalk.o)
 .debug_aranges
                0x00000720       0x20 d:/altera/13.0sp1/nios2eds/bin/gnu/h-i686-mingw32/bin/../lib/gcc/nios2-elf/4.1.2/../../../../nios2-elf/lib\libc.a(lib_a-locale.o)
 .debug_aranges
                0x00000740       0x20 d:/altera/13.0sp1/nios2eds/bin/gnu/h-i686-mingw32/bin/../lib/gcc/nios2-elf/4.1.2/../../../../nios2-elf/lib\libc.a(lib_a-makebuf.o)
 .debug_aranges
                0x00000760       0x20 d:/altera/13.0sp1/nios2eds/bin/gnu/h-i686-mingw32/bin/../lib/gcc/nios2-elf/4.1.2/../../../../nios2-elf/lib\libc.a(lib_a-mallocr.o)
 .debug_aranges
                0x00000780       0x20 d:/altera/13.0sp1/nios2eds/bin/gnu/h-i686-mingw32/bin/../lib/gcc/nios2-elf/4.1.2/../../../../nios2-elf/lib\libc.a(lib_a-memchr.o)
 .debug_aranges
                0x000007a0       0x20 d:/altera/13.0sp1/nios2eds/bin/gnu/h-i686-mingw32/bin/../lib/gcc/nios2-elf/4.1.2/../../../../nios2-elf/lib\libc.a(lib_a-mprec.o)
 .debug_aranges
                0x000007c0       0x20 d:/altera/13.0sp1/nios2eds/bin/gnu/h-i686-mingw32/bin/../lib/gcc/nios2-elf/4.1.2/../../../../nios2-elf/lib\libc.a(lib_a-reallocr.o)
 .debug_aranges
                0x000007e0       0x20 d:/altera/13.0sp1/nios2eds/bin/gnu/h-i686-mingw32/bin/../lib/gcc/nios2-elf/4.1.2/../../../../nios2-elf/lib\libc.a(lib_a-refill.o)
 .debug_aranges
                0x00000800       0x20 d:/altera/13.0sp1/nios2eds/bin/gnu/h-i686-mingw32/bin/../lib/gcc/nios2-elf/4.1.2/../../../../nios2-elf/lib\libc.a(lib_a-s_isinfd.o)
 .debug_aranges
                0x00000820       0x20 d:/altera/13.0sp1/nios2eds/bin/gnu/h-i686-mingw32/bin/../lib/gcc/nios2-elf/4.1.2/../../../../nios2-elf/lib\libc.a(lib_a-s_isnand.o)
 .debug_aranges
                0x00000840       0x20 d:/altera/13.0sp1/nios2eds/bin/gnu/h-i686-mingw32/bin/../lib/gcc/nios2-elf/4.1.2/../../../../nios2-elf/lib\libc.a(lib_a-sbrkr.o)
 .debug_aranges
                0x00000860       0x20 d:/altera/13.0sp1/nios2eds/bin/gnu/h-i686-mingw32/bin/../lib/gcc/nios2-elf/4.1.2/../../../../nios2-elf/lib\libc.a(lib_a-stdio.o)
 .debug_aranges
                0x00000880       0x20 d:/altera/13.0sp1/nios2eds/bin/gnu/h-i686-mingw32/bin/../lib/gcc/nios2-elf/4.1.2/../../../../nios2-elf/lib\libc.a(lib_a-writer.o)
 .debug_aranges
                0x000008a0       0x20 d:/altera/13.0sp1/nios2eds/bin/gnu/h-i686-mingw32/bin/../lib/gcc/nios2-elf/4.1.2/../../../../nios2-elf/lib\libc.a(lib_a-callocr.o)
 .debug_aranges
                0x000008c0       0x20 d:/altera/13.0sp1/nios2eds/bin/gnu/h-i686-mingw32/bin/../lib/gcc/nios2-elf/4.1.2/../../../../nios2-elf/lib\libc.a(lib_a-closer.o)
 .debug_aranges
                0x000008e0       0x20 d:/altera/13.0sp1/nios2eds/bin/gnu/h-i686-mingw32/bin/../lib/gcc/nios2-elf/4.1.2/../../../../nios2-elf/lib\libc.a(lib_a-fclose.o)
 .debug_aranges
                0x00000900       0x20 d:/altera/13.0sp1/nios2eds/bin/gnu/h-i686-mingw32/bin/../lib/gcc/nios2-elf/4.1.2/../../../../nios2-elf/lib\libc.a(lib_a-fstatr.o)
 .debug_aranges
                0x00000920       0x20 d:/altera/13.0sp1/nios2eds/bin/gnu/h-i686-mingw32/bin/../lib/gcc/nios2-elf/4.1.2/../../../../nios2-elf/lib\libc.a(lib_a-isattyr.o)
 .debug_aranges
                0x00000940       0x20 d:/altera/13.0sp1/nios2eds/bin/gnu/h-i686-mingw32/bin/../lib/gcc/nios2-elf/4.1.2/../../../../nios2-elf/lib\libc.a(lib_a-lseekr.o)
 .debug_aranges
                0x00000960       0x20 d:/altera/13.0sp1/nios2eds/bin/gnu/h-i686-mingw32/bin/../lib/gcc/nios2-elf/4.1.2/../../../../nios2-elf/lib\libc.a(lib_a-readr.o)
 .debug_aranges
                0x00000980       0x20 d:/altera/13.0sp1/nios2eds/bin/gnu/h-i686-mingw32/bin/../lib/gcc/nios2-elf/4.1.2\libgcc.a(_udivdi3.o)
 .debug_aranges
                0x000009a0       0x20 d:/altera/13.0sp1/nios2eds/bin/gnu/h-i686-mingw32/bin/../lib/gcc/nios2-elf/4.1.2\libgcc.a(_umoddi3.o)
 .debug_aranges
                0x000009c0       0x20 d:/altera/13.0sp1/nios2eds/bin/gnu/h-i686-mingw32/bin/../lib/gcc/nios2-elf/4.1.2\libgcc.a(_div_df.o)
 .debug_aranges
                0x000009e0       0x20 d:/altera/13.0sp1/nios2eds/bin/gnu/h-i686-mingw32/bin/../lib/gcc/nios2-elf/4.1.2\libgcc.a(_eq_df.o)
 .debug_aranges
                0x00000a00       0x20 d:/altera/13.0sp1/nios2eds/bin/gnu/h-i686-mingw32/bin/../lib/gcc/nios2-elf/4.1.2\libgcc.a(_ne_df.o)
 .debug_aranges
                0x00000a20       0x20 d:/altera/13.0sp1/nios2eds/bin/gnu/h-i686-mingw32/bin/../lib/gcc/nios2-elf/4.1.2\libgcc.a(_gt_df.o)
 .debug_aranges
                0x00000a40       0x20 d:/altera/13.0sp1/nios2eds/bin/gnu/h-i686-mingw32/bin/../lib/gcc/nios2-elf/4.1.2\libgcc.a(_lt_df.o)
 .debug_aranges
                0x00000a60       0x20 d:/altera/13.0sp1/nios2eds/bin/gnu/h-i686-mingw32/bin/../lib/gcc/nios2-elf/4.1.2\libgcc.a(_si_to_df.o)
 .debug_aranges
                0x00000a80       0x20 d:/altera/13.0sp1/nios2eds/bin/gnu/h-i686-mingw32/bin/../lib/gcc/nios2-elf/4.1.2\libgcc.a(lib2-divmod.o)
 .debug_aranges
                0x00000aa0       0x20 ../projeto_final_bsp/\libucosii_bsp.a(alt_exit.o)
 .debug_aranges
                0x00000ac0       0x20 ../projeto_final_bsp/\libucosii_bsp.a(alt_flash_dev.o)
 .debug_aranges
                0x00000ae0       0x20 ../projeto_final_bsp/\libucosii_bsp.a(alt_fstat.o)
 .debug_aranges
                0x00000b00       0x20 ../projeto_final_bsp/\libucosii_bsp.a(alt_irq_register.o)
 .debug_aranges
                0x00000b20       0x20 ../projeto_final_bsp/\libucosii_bsp.a(alt_isatty.o)
 .debug_aranges
                0x00000b40       0x20 ../projeto_final_bsp/\libucosii_bsp.a(alt_lseek.o)
 .debug_aranges
                0x00000b60       0x20 ../projeto_final_bsp/\libucosii_bsp.a(alt_main.o)
 .debug_aranges
                0x00000b80       0x20 ../projeto_final_bsp/\libucosii_bsp.a(alt_sbrk.o)
 .debug_aranges
                0x00000ba0       0x20 ../projeto_final_bsp/\libucosii_bsp.a(alt_usleep.o)
 .debug_aranges
                0x00000bc0       0x20 ../projeto_final_bsp/\libucosii_bsp.a(alt_env_lock.o)
 .debug_aranges
                0x00000be0       0x20 ../projeto_final_bsp/\libucosii_bsp.a(alt_malloc_lock.o)
 .debug_aranges
                0x00000c00       0x20 ../projeto_final_bsp/\libucosii_bsp.a(os_core.o)
 .debug_aranges
                0x00000c20       0x20 ../projeto_final_bsp/\libucosii_bsp.a(os_dbg.o)
 .debug_aranges
                0x00000c40       0x20 ../projeto_final_bsp/\libucosii_bsp.a(os_flag.o)
 .debug_aranges
                0x00000c60       0x20 ../projeto_final_bsp/\libucosii_bsp.a(os_mem.o)
 .debug_aranges
                0x00000c80       0x20 ../projeto_final_bsp/\libucosii_bsp.a(os_q.o)
 .debug_aranges
                0x00000ca0       0x20 ../projeto_final_bsp/\libucosii_bsp.a(os_sem.o)
 .debug_aranges
                0x00000cc0       0x20 ../projeto_final_bsp/\libucosii_bsp.a(os_task.o)
 .debug_aranges
                0x00000ce0       0x20 ../projeto_final_bsp/\libucosii_bsp.a(os_time.o)
 .debug_aranges
                0x00000d00       0x20 ../projeto_final_bsp/\libucosii_bsp.a(alt_sys_init.o)
 .debug_aranges
                0x00000d20       0x20 ../projeto_final_bsp/\libucosii_bsp.a(altera_avalon_cfi_flash.o)
 .debug_aranges
                0x00000d40       0x20 ../projeto_final_bsp/\libucosii_bsp.a(altera_avalon_cfi_flash_table.o)
 .debug_aranges
                0x00000d60       0x20 ../projeto_final_bsp/\libucosii_bsp.a(altera_avalon_epcs_flash_controller.o)
 .debug_aranges
                0x00000d80       0x20 ../projeto_final_bsp/\libucosii_bsp.a(altera_avalon_jtag_uart_fd.o)
 .debug_aranges
                0x00000da0       0x20 ../projeto_final_bsp/\libucosii_bsp.a(altera_avalon_jtag_uart_init.o)
 .debug_aranges
                0x00000dc0       0x20 ../projeto_final_bsp/\libucosii_bsp.a(altera_avalon_jtag_uart_ioctl.o)
 .debug_aranges
                0x00000de0       0x20 ../projeto_final_bsp/\libucosii_bsp.a(altera_avalon_jtag_uart_read.o)
 .debug_aranges
                0x00000e00       0x20 ../projeto_final_bsp/\libucosii_bsp.a(altera_avalon_jtag_uart_write.o)
 .debug_aranges
                0x00000e20       0x20 ../projeto_final_bsp/\libucosii_bsp.a(altera_avalon_lcd_16207.o)
 .debug_aranges
                0x00000e40       0x20 ../projeto_final_bsp/\libucosii_bsp.a(altera_avalon_lcd_16207_fd.o)
 .debug_aranges
                0x00000e60       0x20 ../projeto_final_bsp/\libucosii_bsp.a(altera_avalon_timer_sc.o)
 .debug_aranges
                0x00000e80       0x20 ../projeto_final_bsp/\libucosii_bsp.a(altera_avalon_uart_fd.o)
 .debug_aranges
                0x00000ea0       0x20 ../projeto_final_bsp/\libucosii_bsp.a(altera_avalon_uart_init.o)
 .debug_aranges
                0x00000ec0       0x20 ../projeto_final_bsp/\libucosii_bsp.a(altera_avalon_uart_read.o)
 .debug_aranges
                0x00000ee0       0x20 ../projeto_final_bsp/\libucosii_bsp.a(altera_avalon_uart_write.o)
 .debug_aranges
                0x00000f00       0x20 ../projeto_final_bsp/\libucosii_bsp.a(epcs_commands.o)
 .debug_aranges
                0x00000f20       0x20 ../projeto_final_bsp/\libucosii_bsp.a(alt_iniche_close.o)
 .debug_aranges
                0x00000f40       0x20 ../projeto_final_bsp/\libucosii_bsp.a(alt_iniche_dev.o)
 .debug_aranges
                0x00000f60       0x20 ../projeto_final_bsp/\libucosii_bsp.a(alt_iniche_read.o)
 .debug_aranges
                0x00000f80       0x20 ../projeto_final_bsp/\libucosii_bsp.a(alt_iniche_write.o)
 .debug_aranges
                0x00000fa0       0x20 ../projeto_final_bsp/\libucosii_bsp.a(ipnet.o)
 .debug_aranges
                0x00000fc0       0x20 ../projeto_final_bsp/\libucosii_bsp.a(ipstart.o)
 .debug_aranges
                0x00000fe0       0x20 ../projeto_final_bsp/\libucosii_bsp.a(igmp_cmn.o)
 .debug_aranges
                0x00001000       0x20 ../projeto_final_bsp/\libucosii_bsp.a(bsdsock.o)
 .debug_aranges
                0x00001020       0x20 ../projeto_final_bsp/\libucosii_bsp.a(cksum.o)
 .debug_aranges
                0x00001040       0x20 ../projeto_final_bsp/\libucosii_bsp.a(in_utils.o)
 .debug_aranges
                0x00001060       0x20 ../projeto_final_bsp/\libucosii_bsp.a(netmain.o)
 .debug_aranges
                0x00001080       0x20 ../projeto_final_bsp/\libucosii_bsp.a(parseip.o)
 .debug_aranges
                0x000010a0       0x20 ../projeto_final_bsp/\libucosii_bsp.a(tk_crnos.o)
 .debug_aranges
                0x000010c0       0x20 ../projeto_final_bsp/\libucosii_bsp.a(dhcpclnt.o)
 .debug_aranges
                0x000010e0       0x20 ../projeto_final_bsp/\libucosii_bsp.a(dhcputil.o)
 .debug_aranges
                0x00001100       0x20 ../projeto_final_bsp/\libucosii_bsp.a(pktalloc.o)
 .debug_aranges
                0x00001120       0x20 ../projeto_final_bsp/\libucosii_bsp.a(q.o)
 .debug_aranges
                0x00001140       0x20 ../projeto_final_bsp/\libucosii_bsp.a(udp_open.o)
 .debug_aranges
                0x00001160       0x20 ../projeto_final_bsp/\libucosii_bsp.a(asm_cksum.o)
 .debug_aranges
                0x00001180       0x20 ../projeto_final_bsp/\libucosii_bsp.a(brdutils.o)
 .debug_aranges
                0x000011a0       0x20 ../projeto_final_bsp/\libucosii_bsp.a(osportco.o)
 .debug_aranges
                0x000011c0       0x20 ../projeto_final_bsp/\libucosii_bsp.a(targnios.o)
 .debug_aranges
                0x000011e0       0x20 ../projeto_final_bsp/\libucosii_bsp.a(nptcp.o)
 .debug_aranges
                0x00001200       0x20 ../projeto_final_bsp/\libucosii_bsp.a(rawsock.o)
 .debug_aranges
                0x00001220       0x20 ../projeto_final_bsp/\libucosii_bsp.a(sockcall.o)
 .debug_aranges
                0x00001240       0x20 ../projeto_final_bsp/\libucosii_bsp.a(socket.o)
 .debug_aranges
                0x00001260       0x20 ../projeto_final_bsp/\libucosii_bsp.a(socket2.o)
 .debug_aranges
                0x00001280       0x20 ../projeto_final_bsp/\libucosii_bsp.a(soselect.o)
 .debug_aranges
                0x000012a0       0x20 ../projeto_final_bsp/\libucosii_bsp.a(tcp_in.o)
 .debug_aranges
                0x000012c0       0x20 ../projeto_final_bsp/\libucosii_bsp.a(tcp_out.o)
 .debug_aranges
                0x000012e0       0x20 ../projeto_final_bsp/\libucosii_bsp.a(tcp_subr.o)
 .debug_aranges
                0x00001300       0x20 ../projeto_final_bsp/\libucosii_bsp.a(tcp_timr.o)
 .debug_aranges
                0x00001320       0x20 ../projeto_final_bsp/\libucosii_bsp.a(tcp_usr.o)
 .debug_aranges
                0x00001340       0x20 ../projeto_final_bsp/\libucosii_bsp.a(tcpport.o)
 .debug_aranges
                0x00001360       0x20 ../projeto_final_bsp/\libucosii_bsp.a(udpsock.o)
 .debug_aranges
                0x00001380       0x20 ../projeto_final_bsp/\libucosii_bsp.a(alt_alarm_start.o)
 .debug_aranges
                0x000013a0       0x20 ../projeto_final_bsp/\libucosii_bsp.a(alt_busy_sleep.o)
 .debug_aranges
                0x000013c0       0x20 ../projeto_final_bsp/\libucosii_bsp.a(alt_close.o)
 .debug_aranges
                0x000013e0       0x20 ../projeto_final_bsp/\libucosii_bsp.a(alt_dcache_flush.o)
 .debug_aranges
                0x00001400       0x20 ../projeto_final_bsp/\libucosii_bsp.a(alt_dev.o)
 .debug_aranges
                0x00001420       0x20 ../projeto_final_bsp/\libucosii_bsp.a(alt_dev_llist_insert.o)
 .debug_aranges
                0x00001440       0x20 ../projeto_final_bsp/\libucosii_bsp.a(alt_do_ctors.o)
 .debug_aranges
                0x00001460       0x20 ../projeto_final_bsp/\libucosii_bsp.a(alt_do_dtors.o)
 .debug_aranges
                0x00001480       0x20 ../projeto_final_bsp/\libucosii_bsp.a(alt_find_dev.o)
 .debug_aranges
                0x000014a0       0x20 ../projeto_final_bsp/\libucosii_bsp.a(alt_iic.o)
 .debug_aranges
                0x000014c0       0x20 ../projeto_final_bsp/\libucosii_bsp.a(alt_iic_isr_register.o)
 .debug_aranges
                0x000014e0       0x20 ../projeto_final_bsp/\libucosii_bsp.a(alt_io_redirect.o)
 .debug_aranges
                0x00001500       0x30 ../projeto_final_bsp/\libucosii_bsp.a(alt_irq_entry.o)
 .debug_aranges
                0x00001530       0x28 ../projeto_final_bsp/\libucosii_bsp.a(alt_irq_handler.o)
 .debug_aranges
                0x00001558       0x20 ../projeto_final_bsp/\libucosii_bsp.a(alt_open.o)
 .debug_aranges
                0x00001578       0x20 ../projeto_final_bsp/\libucosii_bsp.a(alt_read.o)
 .debug_aranges
                0x00001598       0x20 ../projeto_final_bsp/\libucosii_bsp.a(alt_release_fd.o)
 .debug_aranges
                0x000015b8       0x20 ../projeto_final_bsp/\libucosii_bsp.a(alt_remap_cached.o)
 .debug_aranges
                0x000015d8       0x20 ../projeto_final_bsp/\libucosii_bsp.a(alt_remap_uncached.o)
 .debug_aranges
                0x000015f8       0x20 ../projeto_final_bsp/\libucosii_bsp.a(alt_tick.o)
 .debug_aranges
                0x00001618       0x20 ../projeto_final_bsp/\libucosii_bsp.a(alt_write.o)
 .debug_aranges
                0x00001638       0x20 ../projeto_final_bsp/\libucosii_bsp.a(altera_nios2_qsys_irq.o)
 .debug_aranges
                0x00001658       0x20 ../projeto_final_bsp/\libucosii_bsp.a(os_cpu_a.o)
 .debug_aranges
                0x00001678       0x20 ../projeto_final_bsp/\libucosii_bsp.a(os_cpu_c.o)
 .debug_aranges
                0x00001698       0x20 ../projeto_final_bsp/\libucosii_bsp.a(altera_avalon_cfi_flash_amd.o)
 .debug_aranges
                0x000016b8       0x20 ../projeto_final_bsp/\libucosii_bsp.a(altera_avalon_cfi_flash_intel.o)
 .debug_aranges
                0x000016d8       0x20 ../projeto_final_bsp/\libucosii_bsp.a(altera_avalon_spi.o)
 .debug_aranges
                0x000016f8       0x20 ../projeto_final_bsp/\libucosii_bsp.a(allports.o)
 .debug_aranges
                0x00001718       0x20 ../projeto_final_bsp/\libucosii_bsp.a(timeouts.o)
 .debug_aranges
                0x00001738       0x20 ../projeto_final_bsp/\libucosii_bsp.a(tk_misc.o)
 .debug_aranges
                0x00001758       0x20 ../projeto_final_bsp/\libucosii_bsp.a(alt_iniche_fcntl.o)
 .debug_aranges
                0x00001778       0x20 ../projeto_final_bsp/\libucosii_bsp.a(et_arp.o)
 .debug_aranges
                0x00001798       0x20 ../projeto_final_bsp/\libucosii_bsp.a(iface.o)
 .debug_aranges
                0x000017b8       0x20 ../projeto_final_bsp/\libucosii_bsp.a(ip.o)
 .debug_aranges
                0x000017d8       0x20 ../projeto_final_bsp/\libucosii_bsp.a(ip_reasm.o)
 .debug_aranges
                0x000017f8       0x20 ../projeto_final_bsp/\libucosii_bsp.a(ipdemux.o)
 .debug_aranges
                0x00001818       0x20 ../projeto_final_bsp/\libucosii_bsp.a(ipmc.o)
 .debug_aranges
                0x00001838       0x20 ../projeto_final_bsp/\libucosii_bsp.a(ipport.o)
 .debug_aranges
                0x00001858       0x20 ../projeto_final_bsp/\libucosii_bsp.a(ipraw.o)
 .debug_aranges
                0x00001878       0x20 ../projeto_final_bsp/\libucosii_bsp.a(iproute.o)
 .debug_aranges
                0x00001898       0x20 ../projeto_final_bsp/\libucosii_bsp.a(udp.o)
 .debug_aranges
                0x000018b8       0x20 ../projeto_final_bsp/\libucosii_bsp.a(igmp.o)
 .debug_aranges
                0x000018d8       0x20 ../projeto_final_bsp/\libucosii_bsp.a(igmp2.o)
 .debug_aranges
                0x000018f8       0x20 ../projeto_final_bsp/\libucosii_bsp.a(ipopt.o)
 .debug_aranges
                0x00001918       0x20 ../projeto_final_bsp/\libucosii_bsp.a(dhcsetup.o)
 .debug_aranges
                0x00001938       0x20 ../projeto_final_bsp/\libucosii_bsp.a(memdev.o)
 .debug_aranges
                0x00001958       0x20 ../projeto_final_bsp/\libucosii_bsp.a(tcpcksum.o)
 .debug_aranges
                0x00001978       0x20 ../projeto_final_bsp/\libucosii_bsp.a(in_pcb.o)
 .debug_aranges
                0x00001998       0x20 ../projeto_final_bsp/\libucosii_bsp.a(vfsfiles.o)
 .debug_aranges
                0x000019b8       0x20 ../projeto_final_bsp/\libucosii_bsp.a(vfsport.o)
 .debug_aranges
                0x000019d8       0x38 ../projeto_final_bsp/\libucosii_bsp.a(alt_exception_entry.o)
 .debug_aranges
                0x00001a10       0x20 ../projeto_final_bsp/\libucosii_bsp.a(alt_fcntl.o)
 .debug_aranges
                0x00001a30       0x20 ../projeto_final_bsp/\libucosii_bsp.a(alt_find_file.o)
 .debug_aranges
                0x00001a50       0x20 ../projeto_final_bsp/\libucosii_bsp.a(alt_get_fd.o)
 .debug_aranges
                0x00001a70       0x20 ../projeto_final_bsp/\libucosii_bsp.a(icmp.o)
 .debug_aranges
                0x00001a90       0x20 d:/altera/13.0sp1/nios2eds/bin/gnu/h-i686-mingw32/bin/../lib/gcc/nios2-elf/4.1.2/../../../../nios2-elf/lib\libc.a(lib_a-atexit.o)
 .debug_aranges
                0x00001ab0       0x20 d:/altera/13.0sp1/nios2eds/bin/gnu/h-i686-mingw32/bin/../lib/gcc/nios2-elf/4.1.2/../../../../nios2-elf/lib\libc.a(lib_a-calloc.o)
 .debug_aranges
                0x00001ad0       0x20 d:/altera/13.0sp1/nios2eds/bin/gnu/h-i686-mingw32/bin/../lib/gcc/nios2-elf/4.1.2/../../../../nios2-elf/lib\libc.a(lib_a-malloc.o)
 .debug_aranges
                0x00001af0       0x20 d:/altera/13.0sp1/nios2eds/bin/gnu/h-i686-mingw32/bin/../lib/gcc/nios2-elf/4.1.2/../../../../nios2-elf/lib\libc.a(lib_a-memcmp.o)
 .debug_aranges
                0x00001b10       0x20 d:/altera/13.0sp1/nios2eds/bin/gnu/h-i686-mingw32/bin/../lib/gcc/nios2-elf/4.1.2/../../../../nios2-elf/lib\libc.a(lib_a-strcpy.o)
 .debug_aranges
                0x00001b30       0x20 d:/altera/13.0sp1/nios2eds/bin/gnu/h-i686-mingw32/bin/../lib/gcc/nios2-elf/4.1.2/../../../../nios2-elf/lib\libc.a(lib_a-strncmp.o)
 .debug_aranges
                0x00001b50       0x20 d:/altera/13.0sp1/nios2eds/bin/gnu/h-i686-mingw32/bin/../lib/gcc/nios2-elf/4.1.2/../../../../nios2-elf/lib\libc.a(lib_a-strncpy.o)
 .debug_aranges
                0x00001b70       0x20 d:/altera/13.0sp1/nios2eds/bin/gnu/h-i686-mingw32/bin/../lib/gcc/nios2-elf/4.1.2/../../../../nios2-elf/lib\libc.a(lib_a-vprintf.o)
 .debug_aranges
                0x00001b90       0x20 d:/altera/13.0sp1/nios2eds/bin/gnu/h-i686-mingw32/bin/../lib/gcc/nios2-elf/4.1.2/../../../../nios2-elf/lib\libc.a(lib_a-vsprintf.o)
 .debug_aranges
                0x00001bb0       0x20 d:/altera/13.0sp1/nios2eds/bin/gnu/h-i686-mingw32/bin/../lib/gcc/nios2-elf/4.1.2/../../../../nios2-elf/lib\libc.a(lib_a-__atexit.o)

.debug_pubnames
                0x00000000     0x5650
 *(.debug_pubnames)
 .debug_pubnames
                0x00000000       0x68 obj/default/LCD.o
 .debug_pubnames
                0x00000068       0x7c obj/default/SSS_DE2_115.o
 .debug_pubnames
                0x000000e4       0x61 obj/default/alt_error_handler.o
 .debug_pubnames
                0x00000145      0x102 obj/default/dm9000a.o
 .debug_pubnames
                0x00000247       0x82 obj/default/iniche_init.o
 .debug_pubnames
                0x000002c9       0x54 obj/default/led.o
 .debug_pubnames
                0x0000031d       0xc9 obj/default/network_utilities.o
 .debug_pubnames
                0x000003e6      0x154 obj/default/simple_socket_server.o
 .debug_pubnames
                0x0000053a       0x23 d:/altera/13.0sp1/nios2eds/bin/gnu/h-i686-mingw32/bin/../lib/gcc/nios2-elf/4.1.2\libgcc.a(_fixunsdfsi.o)
 .debug_pubnames
                0x0000055d       0x2c d:/altera/13.0sp1/nios2eds/bin/gnu/h-i686-mingw32/bin/../lib/gcc/nios2-elf/4.1.2\libgcc.a(_addsub_df.o)
 .debug_pubnames
                0x00000589       0x1f d:/altera/13.0sp1/nios2eds/bin/gnu/h-i686-mingw32/bin/../lib/gcc/nios2-elf/4.1.2\libgcc.a(_mul_df.o)
 .debug_pubnames
                0x000005a8       0x1e d:/altera/13.0sp1/nios2eds/bin/gnu/h-i686-mingw32/bin/../lib/gcc/nios2-elf/4.1.2\libgcc.a(_ge_df.o)
 .debug_pubnames
                0x000005c6       0x20 d:/altera/13.0sp1/nios2eds/bin/gnu/h-i686-mingw32/bin/../lib/gcc/nios2-elf/4.1.2\libgcc.a(_df_to_si.o)
 .debug_pubnames
                0x000005e6       0x22 d:/altera/13.0sp1/nios2eds/bin/gnu/h-i686-mingw32/bin/../lib/gcc/nios2-elf/4.1.2\libgcc.a(_thenan_df.o)
 .debug_pubnames
                0x00000608       0x24 d:/altera/13.0sp1/nios2eds/bin/gnu/h-i686-mingw32/bin/../lib/gcc/nios2-elf/4.1.2\libgcc.a(_usi_to_df.o)
 .debug_pubnames
                0x0000062c       0x1f d:/altera/13.0sp1/nios2eds/bin/gnu/h-i686-mingw32/bin/../lib/gcc/nios2-elf/4.1.2\libgcc.a(_muldi3.o)
 .debug_pubnames
                0x0000064b       0x1f d:/altera/13.0sp1/nios2eds/bin/gnu/h-i686-mingw32/bin/../lib/gcc/nios2-elf/4.1.2\libgcc.a(_clzsi2.o)
 .debug_pubnames
                0x0000066a       0x1f d:/altera/13.0sp1/nios2eds/bin/gnu/h-i686-mingw32/bin/../lib/gcc/nios2-elf/4.1.2\libgcc.a(_pack_df.o)
 .debug_pubnames
                0x00000689       0x21 d:/altera/13.0sp1/nios2eds/bin/gnu/h-i686-mingw32/bin/../lib/gcc/nios2-elf/4.1.2\libgcc.a(_unpack_df.o)
 .debug_pubnames
                0x000006aa       0x26 d:/altera/13.0sp1/nios2eds/bin/gnu/h-i686-mingw32/bin/../lib/gcc/nios2-elf/4.1.2\libgcc.a(_fpcmp_parts_df.o)
 .debug_pubnames
                0x000006d0       0x20 d:/altera/13.0sp1/nios2eds/bin/gnu/h-i686-mingw32/bin/../lib/gcc/nios2-elf/4.1.2\libgcc.a(_clz.o)
 .debug_pubnames
                0x000006f0       0x27 d:/altera/13.0sp1/nios2eds/bin/gnu/h-i686-mingw32/bin/../lib/gcc/nios2-elf/4.1.2/../../../../nios2-elf/lib\libc.a(lib_a-atoi.o)
 .debug_pubnames
                0x00000717       0x2e d:/altera/13.0sp1/nios2eds/bin/gnu/h-i686-mingw32/bin/../lib/gcc/nios2-elf/4.1.2/../../../../nios2-elf/lib\libc.a(lib_a-ctype_.o)
 .debug_pubnames
                0x00000745       0x1e d:/altera/13.0sp1/nios2eds/bin/gnu/h-i686-mingw32/bin/../lib/gcc/nios2-elf/4.1.2/../../../../nios2-elf/lib\libc.a(lib_a-errno.o)
 .debug_pubnames
                0x00000763       0x1b d:/altera/13.0sp1/nios2eds/bin/gnu/h-i686-mingw32/bin/../lib/gcc/nios2-elf/4.1.2/../../../../nios2-elf/lib\libc.a(lib_a-exit.o)
 .debug_pubnames
                0x0000077e       0x2d d:/altera/13.0sp1/nios2eds/bin/gnu/h-i686-mingw32/bin/../lib/gcc/nios2-elf/4.1.2/../../../../nios2-elf/lib\libc.a(lib_a-fprintf.o)
 .debug_pubnames
                0x000007ab       0x2b d:/altera/13.0sp1/nios2eds/bin/gnu/h-i686-mingw32/bin/../lib/gcc/nios2-elf/4.1.2/../../../../nios2-elf/lib\libc.a(lib_a-fwrite.o)
 .debug_pubnames
                0x000007d6       0x27 d:/altera/13.0sp1/nios2eds/bin/gnu/h-i686-mingw32/bin/../lib/gcc/nios2-elf/4.1.2/../../../../nios2-elf/lib\libc.a(lib_a-getc.o)
 .debug_pubnames
                0x000007fd       0x39 d:/altera/13.0sp1/nios2eds/bin/gnu/h-i686-mingw32/bin/../lib/gcc/nios2-elf/4.1.2/../../../../nios2-elf/lib\libc.a(lib_a-impure.o)
 .debug_pubnames
                0x00000836       0x1d d:/altera/13.0sp1/nios2eds/bin/gnu/h-i686-mingw32/bin/../lib/gcc/nios2-elf/4.1.2/../../../../nios2-elf/lib\libc.a(lib_a-memcpy.o)
 .debug_pubnames
                0x00000853       0x1e d:/altera/13.0sp1/nios2eds/bin/gnu/h-i686-mingw32/bin/../lib/gcc/nios2-elf/4.1.2/../../../../nios2-elf/lib\libc.a(lib_a-memmove.o)
 .debug_pubnames
                0x00000871       0x1d d:/altera/13.0sp1/nios2eds/bin/gnu/h-i686-mingw32/bin/../lib/gcc/nios2-elf/4.1.2/../../../../nios2-elf/lib\libc.a(lib_a-memset.o)
 .debug_pubnames
                0x0000088e       0x2b d:/altera/13.0sp1/nios2eds/bin/gnu/h-i686-mingw32/bin/../lib/gcc/nios2-elf/4.1.2/../../../../nios2-elf/lib\libc.a(lib_a-perror.o)
 .debug_pubnames
                0x000008b9       0x2b d:/altera/13.0sp1/nios2eds/bin/gnu/h-i686-mingw32/bin/../lib/gcc/nios2-elf/4.1.2/../../../../nios2-elf/lib\libc.a(lib_a-printf.o)
 .debug_pubnames
                0x000008e4       0x27 d:/altera/13.0sp1/nios2eds/bin/gnu/h-i686-mingw32/bin/../lib/gcc/nios2-elf/4.1.2/../../../../nios2-elf/lib\libc.a(lib_a-putc.o)
 .debug_pubnames
                0x0000090b       0x2d d:/altera/13.0sp1/nios2eds/bin/gnu/h-i686-mingw32/bin/../lib/gcc/nios2-elf/4.1.2/../../../../nios2-elf/lib\libc.a(lib_a-putchar.o)
 .debug_pubnames
                0x00000938       0x27 d:/altera/13.0sp1/nios2eds/bin/gnu/h-i686-mingw32/bin/../lib/gcc/nios2-elf/4.1.2/../../../../nios2-elf/lib\libc.a(lib_a-puts.o)
 .debug_pubnames
                0x0000095f       0x2c d:/altera/13.0sp1/nios2eds/bin/gnu/h-i686-mingw32/bin/../lib/gcc/nios2-elf/4.1.2/../../../../nios2-elf/lib\libc.a(lib_a-rget.o)
 .debug_pubnames
                0x0000098b       0x2f d:/altera/13.0sp1/nios2eds/bin/gnu/h-i686-mingw32/bin/../lib/gcc/nios2-elf/4.1.2/../../../../nios2-elf/lib\libc.a(lib_a-snprintf.o)
 .debug_pubnames
                0x000009ba       0x2d d:/altera/13.0sp1/nios2eds/bin/gnu/h-i686-mingw32/bin/../lib/gcc/nios2-elf/4.1.2/../../../../nios2-elf/lib\libc.a(lib_a-sprintf.o)
 .debug_pubnames
                0x000009e7       0x1d d:/altera/13.0sp1/nios2eds/bin/gnu/h-i686-mingw32/bin/../lib/gcc/nios2-elf/4.1.2/../../../../nios2-elf/lib\libc.a(lib_a-strchr.o)
 .debug_pubnames
                0x00000a04       0x1d d:/altera/13.0sp1/nios2eds/bin/gnu/h-i686-mingw32/bin/../lib/gcc/nios2-elf/4.1.2/../../../../nios2-elf/lib\libc.a(lib_a-strcmp.o)
 .debug_pubnames
                0x00000a21       0x1f d:/altera/13.0sp1/nios2eds/bin/gnu/h-i686-mingw32/bin/../lib/gcc/nios2-elf/4.1.2/../../../../nios2-elf/lib\libc.a(lib_a-strerror.o)
 .debug_pubnames
                0x00000a40       0x1d d:/altera/13.0sp1/nios2eds/bin/gnu/h-i686-mingw32/bin/../lib/gcc/nios2-elf/4.1.2/../../../../nios2-elf/lib\libc.a(lib_a-strlen.o)
 .debug_pubnames
                0x00000a5d       0x1d d:/altera/13.0sp1/nios2eds/bin/gnu/h-i686-mingw32/bin/../lib/gcc/nios2-elf/4.1.2/../../../../nios2-elf/lib\libc.a(lib_a-strtok.o)
 .debug_pubnames
                0x00000a7a       0x2e d:/altera/13.0sp1/nios2eds/bin/gnu/h-i686-mingw32/bin/../lib/gcc/nios2-elf/4.1.2/../../../../nios2-elf/lib\libc.a(lib_a-strtok_r.o)
 .debug_pubnames
                0x00000aa8       0x2b d:/altera/13.0sp1/nios2eds/bin/gnu/h-i686-mingw32/bin/../lib/gcc/nios2-elf/4.1.2/../../../../nios2-elf/lib\libc.a(lib_a-strtol.o)
 .debug_pubnames
                0x00000ad3       0x25 d:/altera/13.0sp1/nios2eds/bin/gnu/h-i686-mingw32/bin/../lib/gcc/nios2-elf/4.1.2/../../../../nios2-elf/lib\libc.a(lib_a-u_strerr.o)
 .debug_pubnames
                0x00000af8       0x45 d:/altera/13.0sp1/nios2eds/bin/gnu/h-i686-mingw32/bin/../lib/gcc/nios2-elf/4.1.2/../../../../nios2-elf/lib\libc.a(lib_a-vfprintf.o)
 .debug_pubnames
                0x00000b3d       0x2c d:/altera/13.0sp1/nios2eds/bin/gnu/h-i686-mingw32/bin/../lib/gcc/nios2-elf/4.1.2/../../../../nios2-elf/lib\libc.a(lib_a-wbuf.o)
 .debug_pubnames
                0x00000b69       0x22 d:/altera/13.0sp1/nios2eds/bin/gnu/h-i686-mingw32/bin/../lib/gcc/nios2-elf/4.1.2/../../../../nios2-elf/lib\libc.a(lib_a-wsetup.o)
 .debug_pubnames
                0x00000b8b       0x27 d:/altera/13.0sp1/nios2eds/bin/gnu/h-i686-mingw32/bin/../lib/gcc/nios2-elf/4.1.2/../../../../nios2-elf/lib\libc.a(lib_a-__call_atexit.o)
 .debug_pubnames
                0x00000bb2       0x1e d:/altera/13.0sp1/nios2eds/bin/gnu/h-i686-mingw32/bin/../lib/gcc/nios2-elf/4.1.2/../../../../nios2-elf/lib\libc.a(lib_a-dtoa.o)
 .debug_pubnames
                0x00000bd0       0x2b d:/altera/13.0sp1/nios2eds/bin/gnu/h-i686-mingw32/bin/../lib/gcc/nios2-elf/4.1.2/../../../../nios2-elf/lib\libc.a(lib_a-fflush.o)
 .debug_pubnames
                0x00000bfb       0xdb d:/altera/13.0sp1/nios2eds/bin/gnu/h-i686-mingw32/bin/../lib/gcc/nios2-elf/4.1.2/../../../../nios2-elf/lib\libc.a(lib_a-findfp.o)
 .debug_pubnames
                0x00000cd6       0x29 d:/altera/13.0sp1/nios2eds/bin/gnu/h-i686-mingw32/bin/../lib/gcc/nios2-elf/4.1.2/../../../../nios2-elf/lib\libc.a(lib_a-fputc.o)
 .debug_pubnames
                0x00000cff       0x29 d:/altera/13.0sp1/nios2eds/bin/gnu/h-i686-mingw32/bin/../lib/gcc/nios2-elf/4.1.2/../../../../nios2-elf/lib\libc.a(lib_a-fputs.o)
 .debug_pubnames
                0x00000d28       0x31 d:/altera/13.0sp1/nios2eds/bin/gnu/h-i686-mingw32/bin/../lib/gcc/nios2-elf/4.1.2/../../../../nios2-elf/lib\libc.a(lib_a-freer.o)
 .debug_pubnames
                0x00000d59       0x23 d:/altera/13.0sp1/nios2eds/bin/gnu/h-i686-mingw32/bin/../lib/gcc/nios2-elf/4.1.2/../../../../nios2-elf/lib\libc.a(lib_a-fvwrite.o)
 .debug_pubnames
                0x00000d7c       0x2e d:/altera/13.0sp1/nios2eds/bin/gnu/h-i686-mingw32/bin/../lib/gcc/nios2-elf/4.1.2/../../../../nios2-elf/lib\libc.a(lib_a-fwalk.o)
 .debug_pubnames
                0x00000daa       0xc3 d:/altera/13.0sp1/nios2eds/bin/gnu/h-i686-mingw32/bin/../lib/gcc/nios2-elf/4.1.2/../../../../nios2-elf/lib\libc.a(lib_a-locale.o)
 .debug_pubnames
                0x00000e6d       0x23 d:/altera/13.0sp1/nios2eds/bin/gnu/h-i686-mingw32/bin/../lib/gcc/nios2-elf/4.1.2/../../../../nios2-elf/lib\libc.a(lib_a-makebuf.o)
 .debug_pubnames
                0x00000e90       0xce d:/altera/13.0sp1/nios2eds/bin/gnu/h-i686-mingw32/bin/../lib/gcc/nios2-elf/4.1.2/../../../../nios2-elf/lib\libc.a(lib_a-mallocr.o)
 .debug_pubnames
                0x00000f5e       0x1d d:/altera/13.0sp1/nios2eds/bin/gnu/h-i686-mingw32/bin/../lib/gcc/nios2-elf/4.1.2/../../../../nios2-elf/lib\libc.a(lib_a-memchr.o)
 .debug_pubnames
                0x00000f7b      0x13a d:/altera/13.0sp1/nios2eds/bin/gnu/h-i686-mingw32/bin/../lib/gcc/nios2-elf/4.1.2/../../../../nios2-elf/lib\libc.a(lib_a-mprec.o)
 .debug_pubnames
                0x000010b5       0x21 d:/altera/13.0sp1/nios2eds/bin/gnu/h-i686-mingw32/bin/../lib/gcc/nios2-elf/4.1.2/../../../../nios2-elf/lib\libc.a(lib_a-reallocr.o)
 .debug_pubnames
                0x000010d6       0x22 d:/altera/13.0sp1/nios2eds/bin/gnu/h-i686-mingw32/bin/../lib/gcc/nios2-elf/4.1.2/../../../../nios2-elf/lib\libc.a(lib_a-refill.o)
 .debug_pubnames
                0x000010f8       0x1f d:/altera/13.0sp1/nios2eds/bin/gnu/h-i686-mingw32/bin/../lib/gcc/nios2-elf/4.1.2/../../../../nios2-elf/lib\libc.a(lib_a-s_isinfd.o)
 .debug_pubnames
                0x00001117       0x1f d:/altera/13.0sp1/nios2eds/bin/gnu/h-i686-mingw32/bin/../lib/gcc/nios2-elf/4.1.2/../../../../nios2-elf/lib\libc.a(lib_a-s_isnand.o)
 .debug_pubnames
                0x00001136       0x1e d:/altera/13.0sp1/nios2eds/bin/gnu/h-i686-mingw32/bin/../lib/gcc/nios2-elf/4.1.2/../../../../nios2-elf/lib\libc.a(lib_a-sbrkr.o)
 .debug_pubnames
                0x00001154       0x44 d:/altera/13.0sp1/nios2eds/bin/gnu/h-i686-mingw32/bin/../lib/gcc/nios2-elf/4.1.2/../../../../nios2-elf/lib\libc.a(lib_a-stdio.o)
 .debug_pubnames
                0x00001198       0x1f d:/altera/13.0sp1/nios2eds/bin/gnu/h-i686-mingw32/bin/../lib/gcc/nios2-elf/4.1.2/../../../../nios2-elf/lib\libc.a(lib_a-writer.o)
 .debug_pubnames
                0x000011b7       0x20 d:/altera/13.0sp1/nios2eds/bin/gnu/h-i686-mingw32/bin/../lib/gcc/nios2-elf/4.1.2/../../../../nios2-elf/lib\libc.a(lib_a-callocr.o)
 .debug_pubnames
                0x000011d7       0x1f d:/altera/13.0sp1/nios2eds/bin/gnu/h-i686-mingw32/bin/../lib/gcc/nios2-elf/4.1.2/../../../../nios2-elf/lib\libc.a(lib_a-closer.o)
 .debug_pubnames
                0x000011f6       0x2b d:/altera/13.0sp1/nios2eds/bin/gnu/h-i686-mingw32/bin/../lib/gcc/nios2-elf/4.1.2/../../../../nios2-elf/lib\libc.a(lib_a-fclose.o)
 .debug_pubnames
                0x00001221       0x1f d:/altera/13.0sp1/nios2eds/bin/gnu/h-i686-mingw32/bin/../lib/gcc/nios2-elf/4.1.2/../../../../nios2-elf/lib\libc.a(lib_a-fstatr.o)
 .debug_pubnames
                0x00001240       0x1c d:/altera/13.0sp1/nios2eds/bin/gnu/h-i686-mingw32/bin/../lib/gcc/nios2-elf/4.1.2/../../../../nios2-elf/lib\libc.a(lib_a-int_errno.o)
 .debug_pubnames
                0x0000125c       0x20 d:/altera/13.0sp1/nios2eds/bin/gnu/h-i686-mingw32/bin/../lib/gcc/nios2-elf/4.1.2/../../../../nios2-elf/lib\libc.a(lib_a-isattyr.o)
 .debug_pubnames
                0x0000127c       0x1f d:/altera/13.0sp1/nios2eds/bin/gnu/h-i686-mingw32/bin/../lib/gcc/nios2-elf/4.1.2/../../../../nios2-elf/lib\libc.a(lib_a-lseekr.o)
 .debug_pubnames
                0x0000129b       0x1e d:/altera/13.0sp1/nios2eds/bin/gnu/h-i686-mingw32/bin/../lib/gcc/nios2-elf/4.1.2/../../../../nios2-elf/lib\libc.a(lib_a-readr.o)
 .debug_pubnames
                0x000012b9       0x20 d:/altera/13.0sp1/nios2eds/bin/gnu/h-i686-mingw32/bin/../lib/gcc/nios2-elf/4.1.2\libgcc.a(_udivdi3.o)
 .debug_pubnames
                0x000012d9       0x20 d:/altera/13.0sp1/nios2eds/bin/gnu/h-i686-mingw32/bin/../lib/gcc/nios2-elf/4.1.2\libgcc.a(_umoddi3.o)
 .debug_pubnames
                0x000012f9       0x1f d:/altera/13.0sp1/nios2eds/bin/gnu/h-i686-mingw32/bin/../lib/gcc/nios2-elf/4.1.2\libgcc.a(_div_df.o)
 .debug_pubnames
                0x00001318       0x1e d:/altera/13.0sp1/nios2eds/bin/gnu/h-i686-mingw32/bin/../lib/gcc/nios2-elf/4.1.2\libgcc.a(_eq_df.o)
 .debug_pubnames
                0x00001336       0x1e d:/altera/13.0sp1/nios2eds/bin/gnu/h-i686-mingw32/bin/../lib/gcc/nios2-elf/4.1.2\libgcc.a(_ne_df.o)
 .debug_pubnames
                0x00001354       0x1e d:/altera/13.0sp1/nios2eds/bin/gnu/h-i686-mingw32/bin/../lib/gcc/nios2-elf/4.1.2\libgcc.a(_gt_df.o)
 .debug_pubnames
                0x00001372       0x1e d:/altera/13.0sp1/nios2eds/bin/gnu/h-i686-mingw32/bin/../lib/gcc/nios2-elf/4.1.2\libgcc.a(_lt_df.o)
 .debug_pubnames
                0x00001390       0x22 d:/altera/13.0sp1/nios2eds/bin/gnu/h-i686-mingw32/bin/../lib/gcc/nios2-elf/4.1.2\libgcc.a(_si_to_df.o)
 .debug_pubnames
                0x000013b2       0x48 d:/altera/13.0sp1/nios2eds/bin/gnu/h-i686-mingw32/bin/../lib/gcc/nios2-elf/4.1.2\libgcc.a(lib2-divmod.o)
 .debug_pubnames
                0x000013fa       0x1c ../projeto_final_bsp/\libucosii_bsp.a(alt_exit.o)
 .debug_pubnames
                0x00001416       0x58 ../projeto_final_bsp/\libucosii_bsp.a(alt_flash_dev.o)
 .debug_pubnames
                0x0000146e       0x1c ../projeto_final_bsp/\libucosii_bsp.a(alt_fstat.o)
 .debug_pubnames
                0x0000148a       0x27 ../projeto_final_bsp/\libucosii_bsp.a(alt_irq_register.o)
 .debug_pubnames
                0x000014b1       0x3b ../projeto_final_bsp/\libucosii_bsp.a(alt_irq_vars.o)
 .debug_pubnames
                0x000014ec       0x1d ../projeto_final_bsp/\libucosii_bsp.a(alt_isatty.o)
 .debug_pubnames
                0x00001509       0x1c ../projeto_final_bsp/\libucosii_bsp.a(alt_lseek.o)
 .debug_pubnames
                0x00001525       0x46 ../projeto_final_bsp/\libucosii_bsp.a(alt_main.o)
 .debug_pubnames
                0x0000156b       0x1b ../projeto_final_bsp/\libucosii_bsp.a(alt_sbrk.o)
 .debug_pubnames
                0x00001586       0x1d ../projeto_final_bsp/\libucosii_bsp.a(alt_usleep.o)
 .debug_pubnames
                0x000015a3       0x41 ../projeto_final_bsp/\libucosii_bsp.a(alt_env_lock.o)
 .debug_pubnames
                0x000015e4       0x48 ../projeto_final_bsp/\libucosii_bsp.a(alt_malloc_lock.o)
 .debug_pubnames
                0x0000162c      0x3f8 ../projeto_final_bsp/\libucosii_bsp.a(os_core.o)
 .debug_pubnames
                0x00001a24      0x3c5 ../projeto_final_bsp/\libucosii_bsp.a(os_dbg.o)
 .debug_pubnames
                0x00001de9       0xd0 ../projeto_final_bsp/\libucosii_bsp.a(os_flag.o)
 .debug_pubnames
                0x00001eb9       0x7c ../projeto_final_bsp/\libucosii_bsp.a(os_mem.o)
 .debug_pubnames
                0x00001f35       0xa9 ../projeto_final_bsp/\libucosii_bsp.a(os_q.o)
 .debug_pubnames
                0x00001fde       0x8a ../projeto_final_bsp/\libucosii_bsp.a(os_sem.o)
 .debug_pubnames
                0x00002068       0xe5 ../projeto_final_bsp/\libucosii_bsp.a(os_task.o)
 .debug_pubnames
                0x0000214d       0x62 ../projeto_final_bsp/\libucosii_bsp.a(os_time.o)
 .debug_pubnames
                0x000021af       0x34 ../projeto_final_bsp/\libucosii_bsp.a(alt_sys_init.o)
 .debug_pubnames
                0x000021e3       0xac ../projeto_final_bsp/\libucosii_bsp.a(altera_avalon_cfi_flash.o)
 .debug_pubnames
                0x0000228f      0x27a ../projeto_final_bsp/\libucosii_bsp.a(altera_avalon_cfi_flash_table.o)
 .debug_pubnames
                0x00002509       0xb5 ../projeto_final_bsp/\libucosii_bsp.a(altera_avalon_epcs_flash_controller.o)
 .debug_pubnames
                0x000025be       0xa5 ../projeto_final_bsp/\libucosii_bsp.a(altera_avalon_jtag_uart_fd.o)
 .debug_pubnames
                0x00002663       0x55 ../projeto_final_bsp/\libucosii_bsp.a(altera_avalon_jtag_uart_init.o)
 .debug_pubnames
                0x000026b8       0x34 ../projeto_final_bsp/\libucosii_bsp.a(altera_avalon_jtag_uart_ioctl.o)
 .debug_pubnames
                0x000026ec       0x33 ../projeto_final_bsp/\libucosii_bsp.a(altera_avalon_jtag_uart_read.o)
 .debug_pubnames
                0x0000271f       0x34 ../projeto_final_bsp/\libucosii_bsp.a(altera_avalon_jtag_uart_write.o)
 .debug_pubnames
                0x00002753       0x55 ../projeto_final_bsp/\libucosii_bsp.a(altera_avalon_lcd_16207.o)
 .debug_pubnames
                0x000027a8       0x37 ../projeto_final_bsp/\libucosii_bsp.a(altera_avalon_lcd_16207_fd.o)
 .debug_pubnames
                0x000027df       0x2f ../projeto_final_bsp/\libucosii_bsp.a(altera_avalon_timer_sc.o)
 .debug_pubnames
                0x0000280e       0x71 ../projeto_final_bsp/\libucosii_bsp.a(altera_avalon_uart_fd.o)
 .debug_pubnames
                0x0000287f       0x4b ../projeto_final_bsp/\libucosii_bsp.a(altera_avalon_uart_init.o)
 .debug_pubnames
                0x000028ca       0x2e ../projeto_final_bsp/\libucosii_bsp.a(altera_avalon_uart_read.o)
 .debug_pubnames
                0x000028f8       0x2f ../projeto_final_bsp/\libucosii_bsp.a(altera_avalon_uart_write.o)
 .debug_pubnames
                0x00002927      0x118 ../projeto_final_bsp/\libucosii_bsp.a(epcs_commands.o)
 .debug_pubnames
                0x00002a3f       0x1c ../projeto_final_bsp/\libucosii_bsp.a(alt_iniche_close.o)
 .debug_pubnames
                0x00002a5b       0x42 ../projeto_final_bsp/\libucosii_bsp.a(alt_iniche_dev.o)
 .debug_pubnames
                0x00002a9d       0x1b ../projeto_final_bsp/\libucosii_bsp.a(alt_iniche_read.o)
 .debug_pubnames
                0x00002ab8       0x1c ../projeto_final_bsp/\libucosii_bsp.a(alt_iniche_write.o)
 .debug_pubnames
                0x00002ad4       0x90 ../projeto_final_bsp/\libucosii_bsp.a(ipnet.o)
 .debug_pubnames
                0x00002b64       0x81 ../projeto_final_bsp/\libucosii_bsp.a(ipstart.o)
 .debug_pubnames
                0x00002be5      0x108 ../projeto_final_bsp/\libucosii_bsp.a(igmp_cmn.o)
 .debug_pubnames
                0x00002ced       0xc4 ../projeto_final_bsp/\libucosii_bsp.a(bsdsock.o)
 .debug_pubnames
                0x00002db1       0x27 ../projeto_final_bsp/\libucosii_bsp.a(cksum.o)
 .debug_pubnames
                0x00002dd8       0xcc ../projeto_final_bsp/\libucosii_bsp.a(in_utils.o)
 .debug_pubnames
                0x00002ea4       0xb2 ../projeto_final_bsp/\libucosii_bsp.a(netmain.o)
 .debug_pubnames
                0x00002f56       0xa6 ../projeto_final_bsp/\libucosii_bsp.a(parseip.o)
 .debug_pubnames
                0x00002ffc       0x97 ../projeto_final_bsp/\libucosii_bsp.a(tk_crnos.o)
 .debug_pubnames
                0x00003093      0x252 ../projeto_final_bsp/\libucosii_bsp.a(dhcpclnt.o)
 .debug_pubnames
                0x000032e5       0x1f ../projeto_final_bsp/\libucosii_bsp.a(dhcputil.o)
 .debug_pubnames
                0x00003304       0xe2 ../projeto_final_bsp/\libucosii_bsp.a(pktalloc.o)
 .debug_pubnames
                0x000033e6       0x2d ../projeto_final_bsp/\libucosii_bsp.a(q.o)
 .debug_pubnames
                0x00003413       0x3a ../projeto_final_bsp/\libucosii_bsp.a(udp_open.o)
 .debug_pubnames
                0x0000344d       0xc5 ../projeto_final_bsp/\libucosii_bsp.a(brdutils.o)
 .debug_pubnames
                0x00003512      0x10c ../projeto_final_bsp/\libucosii_bsp.a(osportco.o)
 .debug_pubnames
                0x0000361e       0xf5 ../projeto_final_bsp/\libucosii_bsp.a(targnios.o)
 .debug_pubnames
                0x00003713      0x190 ../projeto_final_bsp/\libucosii_bsp.a(nptcp.o)
 .debug_pubnames
                0x000038a3       0x46 ../projeto_final_bsp/\libucosii_bsp.a(rawsock.o)
 .debug_pubnames
                0x000038e9      0x108 ../projeto_final_bsp/\libucosii_bsp.a(sockcall.o)
 .debug_pubnames
                0x000039f1       0xfc ../projeto_final_bsp/\libucosii_bsp.a(socket.o)
 .debug_pubnames
                0x00003aed      0x178 ../projeto_final_bsp/\libucosii_bsp.a(socket2.o)
 .debug_pubnames
                0x00003c65       0x92 ../projeto_final_bsp/\libucosii_bsp.a(soselect.o)
 .debug_pubnames
                0x00003cf7       0xc2 ../projeto_final_bsp/\libucosii_bsp.a(tcp_in.o)
 .debug_pubnames
                0x00003db9       0x57 ../projeto_final_bsp/\libucosii_bsp.a(tcp_out.o)
 .debug_pubnames
                0x00003e10       0xb9 ../projeto_final_bsp/\libucosii_bsp.a(tcp_subr.o)
 .debug_pubnames
                0x00003ec9       0x96 ../projeto_final_bsp/\libucosii_bsp.a(tcp_timr.o)
 .debug_pubnames
                0x00003f5f       0x79 ../projeto_final_bsp/\libucosii_bsp.a(tcp_usr.o)
 .debug_pubnames
                0x00003fd8       0x1e ../projeto_final_bsp/\libucosii_bsp.a(tcpport.o)
 .debug_pubnames
                0x00003ff6       0x76 ../projeto_final_bsp/\libucosii_bsp.a(udpsock.o)
 .debug_pubnames
                0x0000406c       0x26 ../projeto_final_bsp/\libucosii_bsp.a(alt_alarm_start.o)
 .debug_pubnames
                0x00004092       0x25 ../projeto_final_bsp/\libucosii_bsp.a(alt_busy_sleep.o)
 .debug_pubnames
                0x000040b7       0x20 ../projeto_final_bsp/\libucosii_bsp.a(alt_close.o)
 .debug_pubnames
                0x000040d7       0x27 ../projeto_final_bsp/\libucosii_bsp.a(alt_dcache_flush.o)
 .debug_pubnames
                0x000040fe       0x78 ../projeto_final_bsp/\libucosii_bsp.a(alt_dev.o)
 .debug_pubnames
                0x00004176       0x2b ../projeto_final_bsp/\libucosii_bsp.a(alt_dev_llist_insert.o)
 .debug_pubnames
                0x000041a1       0x20 ../projeto_final_bsp/\libucosii_bsp.a(alt_do_ctors.o)
 .debug_pubnames
                0x000041c1       0x20 ../projeto_final_bsp/\libucosii_bsp.a(alt_do_dtors.o)
 .debug_pubnames
                0x000041e1       0x20 ../projeto_final_bsp/\libucosii_bsp.a(alt_errno.o)
 .debug_pubnames
                0x00004201       0x23 ../projeto_final_bsp/\libucosii_bsp.a(alt_find_dev.o)
 .debug_pubnames
                0x00004224       0x6e ../projeto_final_bsp/\libucosii_bsp.a(alt_iic.o)
 .debug_pubnames
                0x00004292       0x2b ../projeto_final_bsp/\libucosii_bsp.a(alt_iic_isr_register.o)
 .debug_pubnames
                0x000042bd       0x26 ../projeto_final_bsp/\libucosii_bsp.a(alt_io_redirect.o)
 .debug_pubnames
                0x000042e3       0x32 ../projeto_final_bsp/\libucosii_bsp.a(alt_irq_handler.o)
 .debug_pubnames
                0x00004315       0x1b ../projeto_final_bsp/\libucosii_bsp.a(alt_open.o)
 .debug_pubnames
                0x00004330       0x1f ../projeto_final_bsp/\libucosii_bsp.a(alt_read.o)
 .debug_pubnames
                0x0000434f       0x25 ../projeto_final_bsp/\libucosii_bsp.a(alt_release_fd.o)
 .debug_pubnames
                0x00004374       0x27 ../projeto_final_bsp/\libucosii_bsp.a(alt_remap_cached.o)
 .debug_pubnames
                0x0000439b       0x29 ../projeto_final_bsp/\libucosii_bsp.a(alt_remap_uncached.o)
 .debug_pubnames
                0x000043c4       0x68 ../projeto_final_bsp/\libucosii_bsp.a(alt_tick.o)
 .debug_pubnames
                0x0000442c       0x20 ../projeto_final_bsp/\libucosii_bsp.a(alt_write.o)
 .debug_pubnames
                0x0000444c       0x31 ../projeto_final_bsp/\libucosii_bsp.a(altera_nios2_qsys_irq.o)
 .debug_pubnames
                0x0000447d       0xcd ../projeto_final_bsp/\libucosii_bsp.a(os_cpu_c.o)
 .debug_pubnames
                0x0000454a       0x3e ../projeto_final_bsp/\libucosii_bsp.a(altera_avalon_cfi_flash_amd.o)
 .debug_pubnames
                0x00004588       0x42 ../projeto_final_bsp/\libucosii_bsp.a(altera_avalon_cfi_flash_intel.o)
 .debug_pubnames
                0x000045ca       0x2d ../projeto_final_bsp/\libucosii_bsp.a(altera_avalon_spi.o)
 .debug_pubnames
                0x000045f7       0xd4 ../projeto_final_bsp/\libucosii_bsp.a(allports.o)
 .debug_pubnames
                0x000046cb       0x6f ../projeto_final_bsp/\libucosii_bsp.a(timeouts.o)
 .debug_pubnames
                0x0000473a       0x35 ../projeto_final_bsp/\libucosii_bsp.a(tk_misc.o)
 .debug_pubnames
                0x0000476f       0x1c ../projeto_final_bsp/\libucosii_bsp.a(alt_iniche_fcntl.o)
 .debug_pubnames
                0x0000478b      0x134 ../projeto_final_bsp/\libucosii_bsp.a(et_arp.o)
 .debug_pubnames
                0x000048bf       0x58 ../projeto_final_bsp/\libucosii_bsp.a(iface.o)
 .debug_pubnames
                0x00004917       0xea ../projeto_final_bsp/\libucosii_bsp.a(ip.o)
 .debug_pubnames
                0x00004a01      0x22e ../projeto_final_bsp/\libucosii_bsp.a(ip_reasm.o)
 .debug_pubnames
                0x00004c2f       0x3c ../projeto_final_bsp/\libucosii_bsp.a(ipdemux.o)
 .debug_pubnames
                0x00004c6b       0x43 ../projeto_final_bsp/\libucosii_bsp.a(ipmc.o)
 .debug_pubnames
                0x00004cae       0x99 ../projeto_final_bsp/\libucosii_bsp.a(ipport.o)
 .debug_pubnames
                0x00004d47       0x87 ../projeto_final_bsp/\libucosii_bsp.a(ipraw.o)
 .debug_pubnames
                0x00004dce       0x5d ../projeto_final_bsp/\libucosii_bsp.a(iproute.o)
 .debug_pubnames
                0x00004e2b       0x7f ../projeto_final_bsp/\libucosii_bsp.a(udp.o)
 .debug_pubnames
                0x00004eaa       0x23 ../projeto_final_bsp/\libucosii_bsp.a(igmp.o)
 .debug_pubnames
                0x00004ecd       0x8d ../projeto_final_bsp/\libucosii_bsp.a(igmp2.o)
 .debug_pubnames
                0x00004f5a       0x5f ../projeto_final_bsp/\libucosii_bsp.a(ipopt.o)
 .debug_pubnames
                0x00004fb9       0x33 ../projeto_final_bsp/\libucosii_bsp.a(dhcsetup.o)
 .debug_pubnames
                0x00004fec       0xb1 ../projeto_final_bsp/\libucosii_bsp.a(memdev.o)
 .debug_pubnames
                0x0000509d       0x20 ../projeto_final_bsp/\libucosii_bsp.a(tcpcksum.o)
 .debug_pubnames
                0x000050bd       0xc8 ../projeto_final_bsp/\libucosii_bsp.a(in_pcb.o)
 .debug_pubnames
                0x00005185      0x278 ../projeto_final_bsp/\libucosii_bsp.a(vfsfiles.o)
 .debug_pubnames
                0x000053fd       0x1f ../projeto_final_bsp/\libucosii_bsp.a(vfsport.o)
 .debug_pubnames
                0x0000541c       0x20 ../projeto_final_bsp/\libucosii_bsp.a(alt_fcntl.o)
 .debug_pubnames
                0x0000543c       0x24 ../projeto_final_bsp/\libucosii_bsp.a(alt_find_file.o)
 .debug_pubnames
                0x00005460       0x21 ../projeto_final_bsp/\libucosii_bsp.a(alt_get_fd.o)
 .debug_pubnames
                0x00005481       0x66 ../projeto_final_bsp/\libucosii_bsp.a(icmp.o)
 .debug_pubnames
                0x000054e7       0x2a d:/altera/13.0sp1/nios2eds/bin/gnu/h-i686-mingw32/bin/../lib/gcc/nios2-elf/4.1.2/../../../../nios2-elf/lib\libc.a(lib_a-atexit.o)
 .debug_pubnames
                0x00005511       0x1d d:/altera/13.0sp1/nios2eds/bin/gnu/h-i686-mingw32/bin/../lib/gcc/nios2-elf/4.1.2/../../../../nios2-elf/lib\libc.a(lib_a-calloc.o)
 .debug_pubnames
                0x0000552e       0x26 d:/altera/13.0sp1/nios2eds/bin/gnu/h-i686-mingw32/bin/../lib/gcc/nios2-elf/4.1.2/../../../../nios2-elf/lib\libc.a(lib_a-malloc.o)
 .debug_pubnames
                0x00005554       0x1d d:/altera/13.0sp1/nios2eds/bin/gnu/h-i686-mingw32/bin/../lib/gcc/nios2-elf/4.1.2/../../../../nios2-elf/lib\libc.a(lib_a-memcmp.o)
 .debug_pubnames
                0x00005571       0x1d d:/altera/13.0sp1/nios2eds/bin/gnu/h-i686-mingw32/bin/../lib/gcc/nios2-elf/4.1.2/../../../../nios2-elf/lib\libc.a(lib_a-strcpy.o)
 .debug_pubnames
                0x0000558e       0x1e d:/altera/13.0sp1/nios2eds/bin/gnu/h-i686-mingw32/bin/../lib/gcc/nios2-elf/4.1.2/../../../../nios2-elf/lib\libc.a(lib_a-strncmp.o)
 .debug_pubnames
                0x000055ac       0x1e d:/altera/13.0sp1/nios2eds/bin/gnu/h-i686-mingw32/bin/../lib/gcc/nios2-elf/4.1.2/../../../../nios2-elf/lib\libc.a(lib_a-strncpy.o)
 .debug_pubnames
                0x000055ca       0x2d d:/altera/13.0sp1/nios2eds/bin/gnu/h-i686-mingw32/bin/../lib/gcc/nios2-elf/4.1.2/../../../../nios2-elf/lib\libc.a(lib_a-vprintf.o)
 .debug_pubnames
                0x000055f7       0x2f d:/altera/13.0sp1/nios2eds/bin/gnu/h-i686-mingw32/bin/../lib/gcc/nios2-elf/4.1.2/../../../../nios2-elf/lib\libc.a(lib_a-vsprintf.o)
 .debug_pubnames
                0x00005626       0x2a d:/altera/13.0sp1/nios2eds/bin/gnu/h-i686-mingw32/bin/../lib/gcc/nios2-elf/4.1.2/../../../../nios2-elf/lib\libc.a(lib_a-__atexit.o)

.debug_info     0x00000000    0x7e36f
 *(.debug_info .gnu.linkonce.wi.*)
 .debug_info    0x00000000       0x69 ../projeto_final_bsp//obj/HAL/src/crt0.o
 .debug_info    0x00000069      0x21a obj/default/LCD.o
 .debug_info    0x00000283      0x713 obj/default/SSS_DE2_115.o
 .debug_info    0x00000996      0xd5a obj/default/alt_error_handler.o
 .debug_info    0x000016f0     0x1247 obj/default/dm9000a.o
 .debug_info    0x00002937     0x1183 obj/default/iniche_init.o
 .debug_info    0x00003aba      0x460 obj/default/led.o
 .debug_info    0x00003f1a     0x1b87 obj/default/network_utilities.o
 .debug_info    0x00005aa1      0x9be obj/default/simple_socket_server.o
 .debug_info    0x0000645f        0x0 obj/default/tse_my_system.o
 .debug_info    0x0000645f       0xce d:/altera/13.0sp1/nios2eds/bin/gnu/h-i686-mingw32/bin/../lib/gcc/nios2-elf/4.1.2\libgcc.a(_fixunsdfsi.o)
 .debug_info    0x0000652d      0x493 d:/altera/13.0sp1/nios2eds/bin/gnu/h-i686-mingw32/bin/../lib/gcc/nios2-elf/4.1.2\libgcc.a(_addsub_df.o)
 .debug_info    0x000069c0      0x488 d:/altera/13.0sp1/nios2eds/bin/gnu/h-i686-mingw32/bin/../lib/gcc/nios2-elf/4.1.2\libgcc.a(_mul_df.o)
 .debug_info    0x00006e48      0x29d d:/altera/13.0sp1/nios2eds/bin/gnu/h-i686-mingw32/bin/../lib/gcc/nios2-elf/4.1.2\libgcc.a(_ge_df.o)
 .debug_info    0x000070e5      0x2cd d:/altera/13.0sp1/nios2eds/bin/gnu/h-i686-mingw32/bin/../lib/gcc/nios2-elf/4.1.2\libgcc.a(_df_to_si.o)
 .debug_info    0x000073b2      0x164 d:/altera/13.0sp1/nios2eds/bin/gnu/h-i686-mingw32/bin/../lib/gcc/nios2-elf/4.1.2\libgcc.a(_thenan_df.o)
 .debug_info    0x00007516      0x213 d:/altera/13.0sp1/nios2eds/bin/gnu/h-i686-mingw32/bin/../lib/gcc/nios2-elf/4.1.2\libgcc.a(_usi_to_df.o)
 .debug_info    0x00007729      0x215 d:/altera/13.0sp1/nios2eds/bin/gnu/h-i686-mingw32/bin/../lib/gcc/nios2-elf/4.1.2\libgcc.a(_muldi3.o)
 .debug_info    0x0000793e      0x130 d:/altera/13.0sp1/nios2eds/bin/gnu/h-i686-mingw32/bin/../lib/gcc/nios2-elf/4.1.2\libgcc.a(_clzsi2.o)
 .debug_info    0x00007a6e      0x2fc d:/altera/13.0sp1/nios2eds/bin/gnu/h-i686-mingw32/bin/../lib/gcc/nios2-elf/4.1.2\libgcc.a(_pack_df.o)
 .debug_info    0x00007d6a      0x268 d:/altera/13.0sp1/nios2eds/bin/gnu/h-i686-mingw32/bin/../lib/gcc/nios2-elf/4.1.2\libgcc.a(_unpack_df.o)
 .debug_info    0x00007fd2      0x21b d:/altera/13.0sp1/nios2eds/bin/gnu/h-i686-mingw32/bin/../lib/gcc/nios2-elf/4.1.2\libgcc.a(_fpcmp_parts_df.o)
 .debug_info    0x000081ed       0xc9 d:/altera/13.0sp1/nios2eds/bin/gnu/h-i686-mingw32/bin/../lib/gcc/nios2-elf/4.1.2\libgcc.a(_clz.o)
 .debug_info    0x000082b6      0x960 d:/altera/13.0sp1/nios2eds/bin/gnu/h-i686-mingw32/bin/../lib/gcc/nios2-elf/4.1.2/../../../../nios2-elf/lib\libc.a(lib_a-atoi.o)
 .debug_info    0x00008c16       0xa0 d:/altera/13.0sp1/nios2eds/bin/gnu/h-i686-mingw32/bin/../lib/gcc/nios2-elf/4.1.2/../../../../nios2-elf/lib\libc.a(lib_a-ctype_.o)
 .debug_info    0x00008cb6      0x92e d:/altera/13.0sp1/nios2eds/bin/gnu/h-i686-mingw32/bin/../lib/gcc/nios2-elf/4.1.2/../../../../nios2-elf/lib\libc.a(lib_a-errno.o)
 .debug_info    0x000095e4      0x93f d:/altera/13.0sp1/nios2eds/bin/gnu/h-i686-mingw32/bin/../lib/gcc/nios2-elf/4.1.2/../../../../nios2-elf/lib\libc.a(lib_a-exit.o)
 .debug_info    0x00009f23      0x9e1 d:/altera/13.0sp1/nios2eds/bin/gnu/h-i686-mingw32/bin/../lib/gcc/nios2-elf/4.1.2/../../../../nios2-elf/lib\libc.a(lib_a-fprintf.o)
 .debug_info    0x0000a904      0xa83 d:/altera/13.0sp1/nios2eds/bin/gnu/h-i686-mingw32/bin/../lib/gcc/nios2-elf/4.1.2/../../../../nios2-elf/lib\libc.a(lib_a-fwrite.o)
 .debug_info    0x0000b387      0x9a7 d:/altera/13.0sp1/nios2eds/bin/gnu/h-i686-mingw32/bin/../lib/gcc/nios2-elf/4.1.2/../../../../nios2-elf/lib\libc.a(lib_a-getc.o)
 .debug_info    0x0000bd2e      0x93d d:/altera/13.0sp1/nios2eds/bin/gnu/h-i686-mingw32/bin/../lib/gcc/nios2-elf/4.1.2/../../../../nios2-elf/lib\libc.a(lib_a-impure.o)
 .debug_info    0x0000c66b      0x106 d:/altera/13.0sp1/nios2eds/bin/gnu/h-i686-mingw32/bin/../lib/gcc/nios2-elf/4.1.2/../../../../nios2-elf/lib\libc.a(lib_a-memcpy.o)
 .debug_info    0x0000c771      0x13e d:/altera/13.0sp1/nios2eds/bin/gnu/h-i686-mingw32/bin/../lib/gcc/nios2-elf/4.1.2/../../../../nios2-elf/lib\libc.a(lib_a-memmove.o)
 .debug_info    0x0000c8af      0x113 d:/altera/13.0sp1/nios2eds/bin/gnu/h-i686-mingw32/bin/../lib/gcc/nios2-elf/4.1.2/../../../../nios2-elf/lib\libc.a(lib_a-memset.o)
 .debug_info    0x0000c9c2      0x97b d:/altera/13.0sp1/nios2eds/bin/gnu/h-i686-mingw32/bin/../lib/gcc/nios2-elf/4.1.2/../../../../nios2-elf/lib\libc.a(lib_a-perror.o)
 .debug_info    0x0000d33d      0x9d1 d:/altera/13.0sp1/nios2eds/bin/gnu/h-i686-mingw32/bin/../lib/gcc/nios2-elf/4.1.2/../../../../nios2-elf/lib\libc.a(lib_a-printf.o)
 .debug_info    0x0000dd0e      0x9c1 d:/altera/13.0sp1/nios2eds/bin/gnu/h-i686-mingw32/bin/../lib/gcc/nios2-elf/4.1.2/../../../../nios2-elf/lib\libc.a(lib_a-putc.o)
 .debug_info    0x0000e6cf      0x972 d:/altera/13.0sp1/nios2eds/bin/gnu/h-i686-mingw32/bin/../lib/gcc/nios2-elf/4.1.2/../../../../nios2-elf/lib\libc.a(lib_a-putchar.o)
 .debug_info    0x0000f041      0xa25 d:/altera/13.0sp1/nios2eds/bin/gnu/h-i686-mingw32/bin/../lib/gcc/nios2-elf/4.1.2/../../../../nios2-elf/lib\libc.a(lib_a-puts.o)
 .debug_info    0x0000fa66      0x987 d:/altera/13.0sp1/nios2eds/bin/gnu/h-i686-mingw32/bin/../lib/gcc/nios2-elf/4.1.2/../../../../nios2-elf/lib\libc.a(lib_a-rget.o)
 .debug_info    0x000103ed      0xa49 d:/altera/13.0sp1/nios2eds/bin/gnu/h-i686-mingw32/bin/../lib/gcc/nios2-elf/4.1.2/../../../../nios2-elf/lib\libc.a(lib_a-snprintf.o)
 .debug_info    0x00010e36      0xa16 d:/altera/13.0sp1/nios2eds/bin/gnu/h-i686-mingw32/bin/../lib/gcc/nios2-elf/4.1.2/../../../../nios2-elf/lib\libc.a(lib_a-sprintf.o)
 .debug_info    0x0001184c      0x118 d:/altera/13.0sp1/nios2eds/bin/gnu/h-i686-mingw32/bin/../lib/gcc/nios2-elf/4.1.2/../../../../nios2-elf/lib\libc.a(lib_a-strchr.o)
 .debug_info    0x00011964       0xdd d:/altera/13.0sp1/nios2eds/bin/gnu/h-i686-mingw32/bin/../lib/gcc/nios2-elf/4.1.2/../../../../nios2-elf/lib\libc.a(lib_a-strcmp.o)
 .debug_info    0x00011a41       0xbb d:/altera/13.0sp1/nios2eds/bin/gnu/h-i686-mingw32/bin/../lib/gcc/nios2-elf/4.1.2/../../../../nios2-elf/lib\libc.a(lib_a-strerror.o)
 .debug_info    0x00011afc       0xdb d:/altera/13.0sp1/nios2eds/bin/gnu/h-i686-mingw32/bin/../lib/gcc/nios2-elf/4.1.2/../../../../nios2-elf/lib\libc.a(lib_a-strlen.o)
 .debug_info    0x00011bd7      0x949 d:/altera/13.0sp1/nios2eds/bin/gnu/h-i686-mingw32/bin/../lib/gcc/nios2-elf/4.1.2/../../../../nios2-elf/lib\libc.a(lib_a-strtok.o)
 .debug_info    0x00012520      0x15e d:/altera/13.0sp1/nios2eds/bin/gnu/h-i686-mingw32/bin/../lib/gcc/nios2-elf/4.1.2/../../../../nios2-elf/lib\libc.a(lib_a-strtok_r.o)
 .debug_info    0x0001267e      0xa2a d:/altera/13.0sp1/nios2eds/bin/gnu/h-i686-mingw32/bin/../lib/gcc/nios2-elf/4.1.2/../../../../nios2-elf/lib\libc.a(lib_a-strtol.o)
 .debug_info    0x000130a8       0x63 d:/altera/13.0sp1/nios2eds/bin/gnu/h-i686-mingw32/bin/../lib/gcc/nios2-elf/4.1.2/../../../../nios2-elf/lib\libc.a(lib_a-u_strerr.o)
 .debug_info    0x0001310b     0x10d5 d:/altera/13.0sp1/nios2eds/bin/gnu/h-i686-mingw32/bin/../lib/gcc/nios2-elf/4.1.2/../../../../nios2-elf/lib\libc.a(lib_a-vfprintf.o)
 .debug_info    0x000141e0      0x9ae d:/altera/13.0sp1/nios2eds/bin/gnu/h-i686-mingw32/bin/../lib/gcc/nios2-elf/4.1.2/../../../../nios2-elf/lib\libc.a(lib_a-wbuf.o)
 .debug_info    0x00014b8e      0x95d d:/altera/13.0sp1/nios2eds/bin/gnu/h-i686-mingw32/bin/../lib/gcc/nios2-elf/4.1.2/../../../../nios2-elf/lib\libc.a(lib_a-wsetup.o)
 .debug_info    0x000154eb      0x9e2 d:/altera/13.0sp1/nios2eds/bin/gnu/h-i686-mingw32/bin/../lib/gcc/nios2-elf/4.1.2/../../../../nios2-elf/lib\libc.a(lib_a-__call_atexit.o)
 .debug_info    0x00015ecd      0xd6f d:/altera/13.0sp1/nios2eds/bin/gnu/h-i686-mingw32/bin/../lib/gcc/nios2-elf/4.1.2/../../../../nios2-elf/lib\libc.a(lib_a-dtoa.o)
 .debug_info    0x00016c3c      0x9fe d:/altera/13.0sp1/nios2eds/bin/gnu/h-i686-mingw32/bin/../lib/gcc/nios2-elf/4.1.2/../../../../nios2-elf/lib\libc.a(lib_a-fflush.o)
 .debug_info    0x0001763a      0xb72 d:/altera/13.0sp1/nios2eds/bin/gnu/h-i686-mingw32/bin/../lib/gcc/nios2-elf/4.1.2/../../../../nios2-elf/lib\libc.a(lib_a-findfp.o)
 .debug_info    0x000181ac      0x9bd d:/altera/13.0sp1/nios2eds/bin/gnu/h-i686-mingw32/bin/../lib/gcc/nios2-elf/4.1.2/../../../../nios2-elf/lib\libc.a(lib_a-fputc.o)
 .debug_info    0x00018b69      0xa40 d:/altera/13.0sp1/nios2eds/bin/gnu/h-i686-mingw32/bin/../lib/gcc/nios2-elf/4.1.2/../../../../nios2-elf/lib\libc.a(lib_a-fputs.o)
 .debug_info    0x000195a9      0xbc9 d:/altera/13.0sp1/nios2eds/bin/gnu/h-i686-mingw32/bin/../lib/gcc/nios2-elf/4.1.2/../../../../nios2-elf/lib\libc.a(lib_a-freer.o)
 .debug_info    0x0001a172      0xa88 d:/altera/13.0sp1/nios2eds/bin/gnu/h-i686-mingw32/bin/../lib/gcc/nios2-elf/4.1.2/../../../../nios2-elf/lib\libc.a(lib_a-fvwrite.o)
 .debug_info    0x0001abfa      0xaed d:/altera/13.0sp1/nios2eds/bin/gnu/h-i686-mingw32/bin/../lib/gcc/nios2-elf/4.1.2/../../../../nios2-elf/lib\libc.a(lib_a-fwalk.o)
 .debug_info    0x0001b6e7      0xb97 d:/altera/13.0sp1/nios2eds/bin/gnu/h-i686-mingw32/bin/../lib/gcc/nios2-elf/4.1.2/../../../../nios2-elf/lib\libc.a(lib_a-locale.o)
 .debug_info    0x0001c27e      0xb1a d:/altera/13.0sp1/nios2eds/bin/gnu/h-i686-mingw32/bin/../lib/gcc/nios2-elf/4.1.2/../../../../nios2-elf/lib\libc.a(lib_a-makebuf.o)
 .debug_info    0x0001cd98      0xcd0 d:/altera/13.0sp1/nios2eds/bin/gnu/h-i686-mingw32/bin/../lib/gcc/nios2-elf/4.1.2/../../../../nios2-elf/lib\libc.a(lib_a-mallocr.o)
 .debug_info    0x0001da68      0x138 d:/altera/13.0sp1/nios2eds/bin/gnu/h-i686-mingw32/bin/../lib/gcc/nios2-elf/4.1.2/../../../../nios2-elf/lib\libc.a(lib_a-memchr.o)
 .debug_info    0x0001dba0     0x1437 d:/altera/13.0sp1/nios2eds/bin/gnu/h-i686-mingw32/bin/../lib/gcc/nios2-elf/4.1.2/../../../../nios2-elf/lib\libc.a(lib_a-mprec.o)
 .debug_info    0x0001efd7      0xbd7 d:/altera/13.0sp1/nios2eds/bin/gnu/h-i686-mingw32/bin/../lib/gcc/nios2-elf/4.1.2/../../../../nios2-elf/lib\libc.a(lib_a-reallocr.o)
 .debug_info    0x0001fbae      0x98b d:/altera/13.0sp1/nios2eds/bin/gnu/h-i686-mingw32/bin/../lib/gcc/nios2-elf/4.1.2/../../../../nios2-elf/lib\libc.a(lib_a-refill.o)
 .debug_info    0x00020539       0xd7 d:/altera/13.0sp1/nios2eds/bin/gnu/h-i686-mingw32/bin/../lib/gcc/nios2-elf/4.1.2/../../../../nios2-elf/lib\libc.a(lib_a-s_isinfd.o)
 .debug_info    0x00020610       0xd5 d:/altera/13.0sp1/nios2eds/bin/gnu/h-i686-mingw32/bin/../lib/gcc/nios2-elf/4.1.2/../../../../nios2-elf/lib\libc.a(lib_a-s_isnand.o)
 .debug_info    0x000206e5      0x962 d:/altera/13.0sp1/nios2eds/bin/gnu/h-i686-mingw32/bin/../lib/gcc/nios2-elf/4.1.2/../../../../nios2-elf/lib\libc.a(lib_a-sbrkr.o)
 .debug_info    0x00021047      0xaac d:/altera/13.0sp1/nios2eds/bin/gnu/h-i686-mingw32/bin/../lib/gcc/nios2-elf/4.1.2/../../../../nios2-elf/lib\libc.a(lib_a-stdio.o)
 .debug_info    0x00021af3      0x993 d:/altera/13.0sp1/nios2eds/bin/gnu/h-i686-mingw32/bin/../lib/gcc/nios2-elf/4.1.2/../../../../nios2-elf/lib\libc.a(lib_a-writer.o)
 .debug_info    0x00022486      0xa1b d:/altera/13.0sp1/nios2eds/bin/gnu/h-i686-mingw32/bin/../lib/gcc/nios2-elf/4.1.2/../../../../nios2-elf/lib\libc.a(lib_a-callocr.o)
 .debug_info    0x00022ea1      0x958 d:/altera/13.0sp1/nios2eds/bin/gnu/h-i686-mingw32/bin/../lib/gcc/nios2-elf/4.1.2/../../../../nios2-elf/lib\libc.a(lib_a-closer.o)
 .debug_info    0x000237f9      0x994 d:/altera/13.0sp1/nios2eds/bin/gnu/h-i686-mingw32/bin/../lib/gcc/nios2-elf/4.1.2/../../../../nios2-elf/lib\libc.a(lib_a-fclose.o)
 .debug_info    0x0002418d      0xafc d:/altera/13.0sp1/nios2eds/bin/gnu/h-i686-mingw32/bin/../lib/gcc/nios2-elf/4.1.2/../../../../nios2-elf/lib\libc.a(lib_a-fstatr.o)
 .debug_info    0x00024c89       0x8c d:/altera/13.0sp1/nios2eds/bin/gnu/h-i686-mingw32/bin/../lib/gcc/nios2-elf/4.1.2/../../../../nios2-elf/lib\libc.a(lib_a-int_errno.o)
 .debug_info    0x00024d15      0x958 d:/altera/13.0sp1/nios2eds/bin/gnu/h-i686-mingw32/bin/../lib/gcc/nios2-elf/4.1.2/../../../../nios2-elf/lib\libc.a(lib_a-isattyr.o)
 .debug_info    0x0002566d      0x981 d:/altera/13.0sp1/nios2eds/bin/gnu/h-i686-mingw32/bin/../lib/gcc/nios2-elf/4.1.2/../../../../nios2-elf/lib\libc.a(lib_a-lseekr.o)
 .debug_info    0x00025fee      0x98c d:/altera/13.0sp1/nios2eds/bin/gnu/h-i686-mingw32/bin/../lib/gcc/nios2-elf/4.1.2/../../../../nios2-elf/lib\libc.a(lib_a-readr.o)
 .debug_info    0x0002697a      0x724 d:/altera/13.0sp1/nios2eds/bin/gnu/h-i686-mingw32/bin/../lib/gcc/nios2-elf/4.1.2\libgcc.a(_udivdi3.o)
 .debug_info    0x0002709e      0x751 d:/altera/13.0sp1/nios2eds/bin/gnu/h-i686-mingw32/bin/../lib/gcc/nios2-elf/4.1.2\libgcc.a(_umoddi3.o)
 .debug_info    0x000277ef      0x39b d:/altera/13.0sp1/nios2eds/bin/gnu/h-i686-mingw32/bin/../lib/gcc/nios2-elf/4.1.2\libgcc.a(_div_df.o)
 .debug_info    0x00027b8a      0x29d d:/altera/13.0sp1/nios2eds/bin/gnu/h-i686-mingw32/bin/../lib/gcc/nios2-elf/4.1.2\libgcc.a(_eq_df.o)
 .debug_info    0x00027e27      0x29d d:/altera/13.0sp1/nios2eds/bin/gnu/h-i686-mingw32/bin/../lib/gcc/nios2-elf/4.1.2\libgcc.a(_ne_df.o)
 .debug_info    0x000280c4      0x29d d:/altera/13.0sp1/nios2eds/bin/gnu/h-i686-mingw32/bin/../lib/gcc/nios2-elf/4.1.2\libgcc.a(_gt_df.o)
 .debug_info    0x00028361      0x29d d:/altera/13.0sp1/nios2eds/bin/gnu/h-i686-mingw32/bin/../lib/gcc/nios2-elf/4.1.2\libgcc.a(_lt_df.o)
 .debug_info    0x000285fe      0x218 d:/altera/13.0sp1/nios2eds/bin/gnu/h-i686-mingw32/bin/../lib/gcc/nios2-elf/4.1.2\libgcc.a(_si_to_df.o)
 .debug_info    0x00028816      0x21c d:/altera/13.0sp1/nios2eds/bin/gnu/h-i686-mingw32/bin/../lib/gcc/nios2-elf/4.1.2\libgcc.a(lib2-divmod.o)
 .debug_info    0x00028a32      0x1f2 ../projeto_final_bsp/\libucosii_bsp.a(alt_exit.o)
 .debug_info    0x00028c24      0x5d7 ../projeto_final_bsp/\libucosii_bsp.a(alt_flash_dev.o)
 .debug_info    0x000291fb      0x69e ../projeto_final_bsp/\libucosii_bsp.a(alt_fstat.o)
 .debug_info    0x00029899      0x454 ../projeto_final_bsp/\libucosii_bsp.a(alt_irq_register.o)
 .debug_info    0x00029ced      0x151 ../projeto_final_bsp/\libucosii_bsp.a(alt_irq_vars.o)
 .debug_info    0x00029e3e      0x6a4 ../projeto_final_bsp/\libucosii_bsp.a(alt_isatty.o)
 .debug_info    0x0002a4e2      0x4d8 ../projeto_final_bsp/\libucosii_bsp.a(alt_lseek.o)
 .debug_info    0x0002a9ba      0x3c7 ../projeto_final_bsp/\libucosii_bsp.a(alt_main.o)
 .debug_info    0x0002ad81      0x2a1 ../projeto_final_bsp/\libucosii_bsp.a(alt_sbrk.o)
 .debug_info    0x0002b022      0x21e ../projeto_final_bsp/\libucosii_bsp.a(alt_usleep.o)
 .debug_info    0x0002b240     0x11bd ../projeto_final_bsp/\libucosii_bsp.a(alt_env_lock.o)
 .debug_info    0x0002c3fd     0x1319 ../projeto_final_bsp/\libucosii_bsp.a(alt_malloc_lock.o)
 .debug_info    0x0002d716     0x1bd3 ../projeto_final_bsp/\libucosii_bsp.a(os_core.o)
 .debug_info    0x0002f2e9     0x1118 ../projeto_final_bsp/\libucosii_bsp.a(os_dbg.o)
 .debug_info    0x00030401     0x122e ../projeto_final_bsp/\libucosii_bsp.a(os_flag.o)
 .debug_info    0x0003162f      0x7f8 ../projeto_final_bsp/\libucosii_bsp.a(os_mem.o)
 .debug_info    0x00031e27     0x1068 ../projeto_final_bsp/\libucosii_bsp.a(os_q.o)
 .debug_info    0x00032e8f      0xcd0 ../projeto_final_bsp/\libucosii_bsp.a(os_sem.o)
 .debug_info    0x00033b5f     0x1346 ../projeto_final_bsp/\libucosii_bsp.a(os_task.o)
 .debug_info    0x00034ea5      0x9ca ../projeto_final_bsp/\libucosii_bsp.a(os_time.o)
 .debug_info    0x0003586f     0x128a ../projeto_final_bsp/\libucosii_bsp.a(alt_sys_init.o)
 .debug_info    0x00036af9      0xb33 ../projeto_final_bsp/\libucosii_bsp.a(altera_avalon_cfi_flash.o)
 .debug_info    0x0003762c      0xe1f ../projeto_final_bsp/\libucosii_bsp.a(altera_avalon_cfi_flash_table.o)
 .debug_info    0x0003844b      0xb93 ../projeto_final_bsp/\libucosii_bsp.a(altera_avalon_epcs_flash_controller.o)
 .debug_info    0x00038fde      0x9bc ../projeto_final_bsp/\libucosii_bsp.a(altera_avalon_jtag_uart_fd.o)
 .debug_info    0x0003999a      0x93a ../projeto_final_bsp/\libucosii_bsp.a(altera_avalon_jtag_uart_init.o)
 .debug_info    0x0003a2d4      0x626 ../projeto_final_bsp/\libucosii_bsp.a(altera_avalon_jtag_uart_ioctl.o)
 .debug_info    0x0003a8fa      0x7e2 ../projeto_final_bsp/\libucosii_bsp.a(altera_avalon_jtag_uart_read.o)
 .debug_info    0x0003b0dc      0x7d9 ../projeto_final_bsp/\libucosii_bsp.a(altera_avalon_jtag_uart_write.o)
 .debug_info    0x0003b8b5      0xa88 ../projeto_final_bsp/\libucosii_bsp.a(altera_avalon_lcd_16207.o)
 .debug_info    0x0003c33d      0x820 ../projeto_final_bsp/\libucosii_bsp.a(altera_avalon_lcd_16207_fd.o)
 .debug_info    0x0003cb5d      0x375 ../projeto_final_bsp/\libucosii_bsp.a(altera_avalon_timer_sc.o)
 .debug_info    0x0003ced2      0x85c ../projeto_final_bsp/\libucosii_bsp.a(altera_avalon_uart_fd.o)
 .debug_info    0x0003d72e      0x828 ../projeto_final_bsp/\libucosii_bsp.a(altera_avalon_uart_init.o)
 .debug_info    0x0003df56      0x7aa ../projeto_final_bsp/\libucosii_bsp.a(altera_avalon_uart_read.o)
 .debug_info    0x0003e700      0x799 ../projeto_final_bsp/\libucosii_bsp.a(altera_avalon_uart_write.o)
 .debug_info    0x0003ee99      0x626 ../projeto_final_bsp/\libucosii_bsp.a(epcs_commands.o)
 .debug_info    0x0003f4bf      0x1a0 ../projeto_final_bsp/\libucosii_bsp.a(alt_iniche_close.o)
 .debug_info    0x0003f65f      0xb47 ../projeto_final_bsp/\libucosii_bsp.a(alt_iniche_dev.o)
 .debug_info    0x000401a6      0x1ca ../projeto_final_bsp/\libucosii_bsp.a(alt_iniche_read.o)
 .debug_info    0x00040370      0x1d1 ../projeto_final_bsp/\libucosii_bsp.a(alt_iniche_write.o)
 .debug_info    0x00040541      0xc33 ../projeto_final_bsp/\libucosii_bsp.a(ipnet.o)
 .debug_info    0x00041174      0xb86 ../projeto_final_bsp/\libucosii_bsp.a(ipstart.o)
 .debug_info    0x00041cfa     0x151a ../projeto_final_bsp/\libucosii_bsp.a(igmp_cmn.o)
 .debug_info    0x00043214     0x144a ../projeto_final_bsp/\libucosii_bsp.a(bsdsock.o)
 .debug_info    0x0004465e      0x23c ../projeto_final_bsp/\libucosii_bsp.a(cksum.o)
 .debug_info    0x0004489a      0x72e ../projeto_final_bsp/\libucosii_bsp.a(in_utils.o)
 .debug_info    0x00044fc8      0x548 ../projeto_final_bsp/\libucosii_bsp.a(netmain.o)
 .debug_info    0x00045510      0x6d4 ../projeto_final_bsp/\libucosii_bsp.a(parseip.o)
 .debug_info    0x00045be4      0x955 ../projeto_final_bsp/\libucosii_bsp.a(tk_crnos.o)
 .debug_info    0x00046539     0x15e3 ../projeto_final_bsp/\libucosii_bsp.a(dhcpclnt.o)
 .debug_info    0x00047b1c      0x1c6 ../projeto_final_bsp/\libucosii_bsp.a(dhcputil.o)
 .debug_info    0x00047ce2      0xc92 ../projeto_final_bsp/\libucosii_bsp.a(pktalloc.o)
 .debug_info    0x00048974      0x2d6 ../projeto_final_bsp/\libucosii_bsp.a(q.o)
 .debug_info    0x00048c4a      0xb11 ../projeto_final_bsp/\libucosii_bsp.a(udp_open.o)
 .debug_info    0x0004975b       0x77 ../projeto_final_bsp/\libucosii_bsp.a(asm_cksum.o)
 .debug_info    0x000497d2      0xe97 ../projeto_final_bsp/\libucosii_bsp.a(brdutils.o)
 .debug_info    0x0004a669      0x6c9 ../projeto_final_bsp/\libucosii_bsp.a(osportco.o)
 .debug_info    0x0004ad32      0x646 ../projeto_final_bsp/\libucosii_bsp.a(targnios.o)
 .debug_info    0x0004b378     0x250d ../projeto_final_bsp/\libucosii_bsp.a(nptcp.o)
 .debug_info    0x0004d885     0x11c5 ../projeto_final_bsp/\libucosii_bsp.a(rawsock.o)
 .debug_info    0x0004ea4a     0x1c83 ../projeto_final_bsp/\libucosii_bsp.a(sockcall.o)
 .debug_info    0x000506cd     0x1a89 ../projeto_final_bsp/\libucosii_bsp.a(socket.o)
 .debug_info    0x00052156     0x154f ../projeto_final_bsp/\libucosii_bsp.a(socket2.o)
 .debug_info    0x000536a5     0x1268 ../projeto_final_bsp/\libucosii_bsp.a(soselect.o)
 .debug_info    0x0005490d     0x211a ../projeto_final_bsp/\libucosii_bsp.a(tcp_in.o)
 .debug_info    0x00056a27     0x1e09 ../projeto_final_bsp/\libucosii_bsp.a(tcp_out.o)
 .debug_info    0x00058830     0x1e71 ../projeto_final_bsp/\libucosii_bsp.a(tcp_subr.o)
 .debug_info    0x0005a6a1     0x1c8c ../projeto_final_bsp/\libucosii_bsp.a(tcp_timr.o)
 .debug_info    0x0005c32d     0x1c49 ../projeto_final_bsp/\libucosii_bsp.a(tcp_usr.o)
 .debug_info    0x0005df76      0x19c ../projeto_final_bsp/\libucosii_bsp.a(tcpport.o)
 .debug_info    0x0005e112     0x131f ../projeto_final_bsp/\libucosii_bsp.a(udpsock.o)
 .debug_info    0x0005f431      0x42c ../projeto_final_bsp/\libucosii_bsp.a(alt_alarm_start.o)
 .debug_info    0x0005f85d      0x195 ../projeto_final_bsp/\libucosii_bsp.a(alt_busy_sleep.o)
 .debug_info    0x0005f9f2      0x4a9 ../projeto_final_bsp/\libucosii_bsp.a(alt_close.o)
 .debug_info    0x0005fe9b      0x18e ../projeto_final_bsp/\libucosii_bsp.a(alt_dcache_flush.o)
 .debug_info    0x00060029      0x7c7 ../projeto_final_bsp/\libucosii_bsp.a(alt_dev.o)
 .debug_info    0x000607f0      0x2a1 ../projeto_final_bsp/\libucosii_bsp.a(alt_dev_llist_insert.o)
 .debug_info    0x00060a91       0xf9 ../projeto_final_bsp/\libucosii_bsp.a(alt_do_ctors.o)
 .debug_info    0x00060b8a       0xf8 ../projeto_final_bsp/\libucosii_bsp.a(alt_do_dtors.o)
 .debug_info    0x00060c82      0x14e ../projeto_final_bsp/\libucosii_bsp.a(alt_errno.o)
 .debug_info    0x00060dd0      0x456 ../projeto_final_bsp/\libucosii_bsp.a(alt_find_dev.o)
 .debug_info    0x00061226      0x47d ../projeto_final_bsp/\libucosii_bsp.a(alt_iic.o)
 .debug_info    0x000616a3      0x2fe ../projeto_final_bsp/\libucosii_bsp.a(alt_iic_isr_register.o)
 .debug_info    0x000619a1      0x6d3 ../projeto_final_bsp/\libucosii_bsp.a(alt_io_redirect.o)
 .debug_info    0x00062074       0x6e ../projeto_final_bsp/\libucosii_bsp.a(alt_irq_entry.o)
 .debug_info    0x000620e2      0x2a4 ../projeto_final_bsp/\libucosii_bsp.a(alt_irq_handler.o)
 .debug_info    0x00062386      0x554 ../projeto_final_bsp/\libucosii_bsp.a(alt_open.o)
 .debug_info    0x000628da      0x6cc ../projeto_final_bsp/\libucosii_bsp.a(alt_read.o)
 .debug_info    0x00062fa6      0x439 ../projeto_final_bsp/\libucosii_bsp.a(alt_release_fd.o)
 .debug_info    0x000633df      0x17b ../projeto_final_bsp/\libucosii_bsp.a(alt_remap_cached.o)
 .debug_info    0x0006355a      0x17f ../projeto_final_bsp/\libucosii_bsp.a(alt_remap_uncached.o)
 .debug_info    0x000636d9      0x3fb ../projeto_final_bsp/\libucosii_bsp.a(alt_tick.o)
 .debug_info    0x00063ad4      0x6d5 ../projeto_final_bsp/\libucosii_bsp.a(alt_write.o)
 .debug_info    0x000641a9      0x14d ../projeto_final_bsp/\libucosii_bsp.a(altera_nios2_qsys_irq.o)
 .debug_info    0x000642f6       0x6d ../projeto_final_bsp/\libucosii_bsp.a(os_cpu_a.o)
 .debug_info    0x00064363     0x12bd ../projeto_final_bsp/\libucosii_bsp.a(os_cpu_c.o)
 .debug_info    0x00065620      0x8d3 ../projeto_final_bsp/\libucosii_bsp.a(altera_avalon_cfi_flash_amd.o)
 .debug_info    0x00065ef3      0x8c9 ../projeto_final_bsp/\libucosii_bsp.a(altera_avalon_cfi_flash_intel.o)
 .debug_info    0x000667bc      0x293 ../projeto_final_bsp/\libucosii_bsp.a(altera_avalon_spi.o)
 .debug_info    0x00066a4f      0xd89 ../projeto_final_bsp/\libucosii_bsp.a(allports.o)
 .debug_info    0x000677d8      0x3ab ../projeto_final_bsp/\libucosii_bsp.a(timeouts.o)
 .debug_info    0x00067b83      0x20a ../projeto_final_bsp/\libucosii_bsp.a(tk_misc.o)
 .debug_info    0x00067d8d      0x1f7 ../projeto_final_bsp/\libucosii_bsp.a(alt_iniche_fcntl.o)
 .debug_info    0x00067f84     0x1263 ../projeto_final_bsp/\libucosii_bsp.a(et_arp.o)
 .debug_info    0x000691e7      0xf81 ../projeto_final_bsp/\libucosii_bsp.a(iface.o)
 .debug_info    0x0006a168     0x16ee ../projeto_final_bsp/\libucosii_bsp.a(ip.o)
 .debug_info    0x0006b856     0x1852 ../projeto_final_bsp/\libucosii_bsp.a(ip_reasm.o)
 .debug_info    0x0006d0a8      0xdd3 ../projeto_final_bsp/\libucosii_bsp.a(ipdemux.o)
 .debug_info    0x0006de7b      0xa2f ../projeto_final_bsp/\libucosii_bsp.a(ipmc.o)
 .debug_info    0x0006e8aa      0x2cd ../projeto_final_bsp/\libucosii_bsp.a(ipport.o)
 .debug_info    0x0006eb77      0xf40 ../projeto_final_bsp/\libucosii_bsp.a(ipraw.o)
 .debug_info    0x0006fab7      0xeeb ../projeto_final_bsp/\libucosii_bsp.a(iproute.o)
 .debug_info    0x000709a2     0x1282 ../projeto_final_bsp/\libucosii_bsp.a(udp.o)
 .debug_info    0x00071c24     0x111c ../projeto_final_bsp/\libucosii_bsp.a(igmp.o)
 .debug_info    0x00072d40     0x1350 ../projeto_final_bsp/\libucosii_bsp.a(igmp2.o)
 .debug_info    0x00074090     0x10cb ../projeto_final_bsp/\libucosii_bsp.a(ipopt.o)
 .debug_info    0x0007515b      0xa41 ../projeto_final_bsp/\libucosii_bsp.a(dhcsetup.o)
 .debug_info    0x00075b9c      0x729 ../projeto_final_bsp/\libucosii_bsp.a(memdev.o)
 .debug_info    0x000762c5      0x3ce ../projeto_final_bsp/\libucosii_bsp.a(tcpcksum.o)
 .debug_info    0x00076693     0x129d ../projeto_final_bsp/\libucosii_bsp.a(in_pcb.o)
 .debug_info    0x00077930      0xfce ../projeto_final_bsp/\libucosii_bsp.a(vfsfiles.o)
 .debug_info    0x000788fe      0x19d ../projeto_final_bsp/\libucosii_bsp.a(vfsport.o)
 .debug_info    0x00078a9b       0x74 ../projeto_final_bsp/\libucosii_bsp.a(alt_exception_entry.o)
 .debug_info    0x00078b0f      0x6ea ../projeto_final_bsp/\libucosii_bsp.a(alt_fcntl.o)
 .debug_info    0x000791f9      0x45d ../projeto_final_bsp/\libucosii_bsp.a(alt_find_file.o)
 .debug_info    0x00079656      0x5ef ../projeto_final_bsp/\libucosii_bsp.a(alt_get_fd.o)
 .debug_info    0x00079c45     0x1170 ../projeto_final_bsp/\libucosii_bsp.a(icmp.o)
 .debug_info    0x0007adb5      0x181 d:/altera/13.0sp1/nios2eds/bin/gnu/h-i686-mingw32/bin/../lib/gcc/nios2-elf/4.1.2/../../../../nios2-elf/lib\libc.a(lib_a-atexit.o)
 .debug_info    0x0007af36      0x954 d:/altera/13.0sp1/nios2eds/bin/gnu/h-i686-mingw32/bin/../lib/gcc/nios2-elf/4.1.2/../../../../nios2-elf/lib\libc.a(lib_a-calloc.o)
 .debug_info    0x0007b88a      0x96e d:/altera/13.0sp1/nios2eds/bin/gnu/h-i686-mingw32/bin/../lib/gcc/nios2-elf/4.1.2/../../../../nios2-elf/lib\libc.a(lib_a-malloc.o)
 .debug_info    0x0007c1f8      0x115 d:/altera/13.0sp1/nios2eds/bin/gnu/h-i686-mingw32/bin/../lib/gcc/nios2-elf/4.1.2/../../../../nios2-elf/lib\libc.a(lib_a-memcmp.o)
 .debug_info    0x0007c30d      0x110 d:/altera/13.0sp1/nios2eds/bin/gnu/h-i686-mingw32/bin/../lib/gcc/nios2-elf/4.1.2/../../../../nios2-elf/lib\libc.a(lib_a-strcpy.o)
 .debug_info    0x0007c41d       0xf5 d:/altera/13.0sp1/nios2eds/bin/gnu/h-i686-mingw32/bin/../lib/gcc/nios2-elf/4.1.2/../../../../nios2-elf/lib\libc.a(lib_a-strncmp.o)
 .debug_info    0x0007c512      0x12a d:/altera/13.0sp1/nios2eds/bin/gnu/h-i686-mingw32/bin/../lib/gcc/nios2-elf/4.1.2/../../../../nios2-elf/lib\libc.a(lib_a-strncpy.o)
 .debug_info    0x0007c63c      0x9aa d:/altera/13.0sp1/nios2eds/bin/gnu/h-i686-mingw32/bin/../lib/gcc/nios2-elf/4.1.2/../../../../nios2-elf/lib\libc.a(lib_a-vprintf.o)
 .debug_info    0x0007cfe6      0x9ed d:/altera/13.0sp1/nios2eds/bin/gnu/h-i686-mingw32/bin/../lib/gcc/nios2-elf/4.1.2/../../../../nios2-elf/lib\libc.a(lib_a-vsprintf.o)
 .debug_info    0x0007d9d3      0x99c d:/altera/13.0sp1/nios2eds/bin/gnu/h-i686-mingw32/bin/../lib/gcc/nios2-elf/4.1.2/../../../../nios2-elf/lib\libc.a(lib_a-__atexit.o)

.debug_abbrev   0x00000000    0x129c6
 *(.debug_abbrev)
 .debug_abbrev  0x00000000       0x14 ../projeto_final_bsp//obj/HAL/src/crt0.o
 .debug_abbrev  0x00000014       0xa9 obj/default/LCD.o
 .debug_abbrev  0x000000bd      0x15c obj/default/SSS_DE2_115.o
 .debug_abbrev  0x00000219      0x1f1 obj/default/alt_error_handler.o
 .debug_abbrev  0x0000040a      0x231 obj/default/dm9000a.o
 .debug_abbrev  0x0000063b      0x1be obj/default/iniche_init.o
 .debug_abbrev  0x000007f9       0xf5 obj/default/led.o
 .debug_abbrev  0x000008ee      0x282 obj/default/network_utilities.o
 .debug_abbrev  0x00000b70      0x1c4 obj/default/simple_socket_server.o
 .debug_abbrev  0x00000d34        0x1 obj/default/tse_my_system.o
 .debug_abbrev  0x00000d35       0x5d d:/altera/13.0sp1/nios2eds/bin/gnu/h-i686-mingw32/bin/../lib/gcc/nios2-elf/4.1.2\libgcc.a(_fixunsdfsi.o)
 .debug_abbrev  0x00000d92      0x1d2 d:/altera/13.0sp1/nios2eds/bin/gnu/h-i686-mingw32/bin/../lib/gcc/nios2-elf/4.1.2\libgcc.a(_addsub_df.o)
 .debug_abbrev  0x00000f64      0x204 d:/altera/13.0sp1/nios2eds/bin/gnu/h-i686-mingw32/bin/../lib/gcc/nios2-elf/4.1.2\libgcc.a(_mul_df.o)
 .debug_abbrev  0x00001168      0x151 d:/altera/13.0sp1/nios2eds/bin/gnu/h-i686-mingw32/bin/../lib/gcc/nios2-elf/4.1.2\libgcc.a(_ge_df.o)
 .debug_abbrev  0x000012b9      0x176 d:/altera/13.0sp1/nios2eds/bin/gnu/h-i686-mingw32/bin/../lib/gcc/nios2-elf/4.1.2\libgcc.a(_df_to_si.o)
 .debug_abbrev  0x0000142f       0xba d:/altera/13.0sp1/nios2eds/bin/gnu/h-i686-mingw32/bin/../lib/gcc/nios2-elf/4.1.2\libgcc.a(_thenan_df.o)
 .debug_abbrev  0x000014e9      0x155 d:/altera/13.0sp1/nios2eds/bin/gnu/h-i686-mingw32/bin/../lib/gcc/nios2-elf/4.1.2\libgcc.a(_usi_to_df.o)
 .debug_abbrev  0x0000163e       0xee d:/altera/13.0sp1/nios2eds/bin/gnu/h-i686-mingw32/bin/../lib/gcc/nios2-elf/4.1.2\libgcc.a(_muldi3.o)
 .debug_abbrev  0x0000172c       0xb9 d:/altera/13.0sp1/nios2eds/bin/gnu/h-i686-mingw32/bin/../lib/gcc/nios2-elf/4.1.2\libgcc.a(_clzsi2.o)
 .debug_abbrev  0x000017e5      0x1b1 d:/altera/13.0sp1/nios2eds/bin/gnu/h-i686-mingw32/bin/../lib/gcc/nios2-elf/4.1.2\libgcc.a(_pack_df.o)
 .debug_abbrev  0x00001996      0x149 d:/altera/13.0sp1/nios2eds/bin/gnu/h-i686-mingw32/bin/../lib/gcc/nios2-elf/4.1.2\libgcc.a(_unpack_df.o)
 .debug_abbrev  0x00001adf      0x132 d:/altera/13.0sp1/nios2eds/bin/gnu/h-i686-mingw32/bin/../lib/gcc/nios2-elf/4.1.2\libgcc.a(_fpcmp_parts_df.o)
 .debug_abbrev  0x00001c11       0x61 d:/altera/13.0sp1/nios2eds/bin/gnu/h-i686-mingw32/bin/../lib/gcc/nios2-elf/4.1.2\libgcc.a(_clz.o)
 .debug_abbrev  0x00001c72      0x176 d:/altera/13.0sp1/nios2eds/bin/gnu/h-i686-mingw32/bin/../lib/gcc/nios2-elf/4.1.2/../../../../nios2-elf/lib\libc.a(lib_a-atoi.o)
 .debug_abbrev  0x00001de8       0x61 d:/altera/13.0sp1/nios2eds/bin/gnu/h-i686-mingw32/bin/../lib/gcc/nios2-elf/4.1.2/../../../../nios2-elf/lib\libc.a(lib_a-ctype_.o)
 .debug_abbrev  0x00001e49      0x15f d:/altera/13.0sp1/nios2eds/bin/gnu/h-i686-mingw32/bin/../lib/gcc/nios2-elf/4.1.2/../../../../nios2-elf/lib\libc.a(lib_a-errno.o)
 .debug_abbrev  0x00001fa8      0x16e d:/altera/13.0sp1/nios2eds/bin/gnu/h-i686-mingw32/bin/../lib/gcc/nios2-elf/4.1.2/../../../../nios2-elf/lib\libc.a(lib_a-exit.o)
 .debug_abbrev  0x00002116      0x197 d:/altera/13.0sp1/nios2eds/bin/gnu/h-i686-mingw32/bin/../lib/gcc/nios2-elf/4.1.2/../../../../nios2-elf/lib\libc.a(lib_a-fprintf.o)
 .debug_abbrev  0x000022ad      0x1b1 d:/altera/13.0sp1/nios2eds/bin/gnu/h-i686-mingw32/bin/../lib/gcc/nios2-elf/4.1.2/../../../../nios2-elf/lib\libc.a(lib_a-fwrite.o)
 .debug_abbrev  0x0000245e      0x17f d:/altera/13.0sp1/nios2eds/bin/gnu/h-i686-mingw32/bin/../lib/gcc/nios2-elf/4.1.2/../../../../nios2-elf/lib\libc.a(lib_a-getc.o)
 .debug_abbrev  0x000025dd      0x157 d:/altera/13.0sp1/nios2eds/bin/gnu/h-i686-mingw32/bin/../lib/gcc/nios2-elf/4.1.2/../../../../nios2-elf/lib\libc.a(lib_a-impure.o)
 .debug_abbrev  0x00002734       0xb5 d:/altera/13.0sp1/nios2eds/bin/gnu/h-i686-mingw32/bin/../lib/gcc/nios2-elf/4.1.2/../../../../nios2-elf/lib\libc.a(lib_a-memcpy.o)
 .debug_abbrev  0x000027e9       0xb5 d:/altera/13.0sp1/nios2eds/bin/gnu/h-i686-mingw32/bin/../lib/gcc/nios2-elf/4.1.2/../../../../nios2-elf/lib\libc.a(lib_a-memmove.o)
 .debug_abbrev  0x0000289e       0xb8 d:/altera/13.0sp1/nios2eds/bin/gnu/h-i686-mingw32/bin/../lib/gcc/nios2-elf/4.1.2/../../../../nios2-elf/lib\libc.a(lib_a-memset.o)
 .debug_abbrev  0x00002956      0x194 d:/altera/13.0sp1/nios2eds/bin/gnu/h-i686-mingw32/bin/../lib/gcc/nios2-elf/4.1.2/../../../../nios2-elf/lib\libc.a(lib_a-perror.o)
 .debug_abbrev  0x00002aea      0x191 d:/altera/13.0sp1/nios2eds/bin/gnu/h-i686-mingw32/bin/../lib/gcc/nios2-elf/4.1.2/../../../../nios2-elf/lib\libc.a(lib_a-printf.o)
 .debug_abbrev  0x00002c7b      0x17f d:/altera/13.0sp1/nios2eds/bin/gnu/h-i686-mingw32/bin/../lib/gcc/nios2-elf/4.1.2/../../../../nios2-elf/lib\libc.a(lib_a-putc.o)
 .debug_abbrev  0x00002dfa      0x170 d:/altera/13.0sp1/nios2eds/bin/gnu/h-i686-mingw32/bin/../lib/gcc/nios2-elf/4.1.2/../../../../nios2-elf/lib\libc.a(lib_a-putchar.o)
 .debug_abbrev  0x00002f6a      0x1ac d:/altera/13.0sp1/nios2eds/bin/gnu/h-i686-mingw32/bin/../lib/gcc/nios2-elf/4.1.2/../../../../nios2-elf/lib\libc.a(lib_a-puts.o)
 .debug_abbrev  0x00003116      0x189 d:/altera/13.0sp1/nios2eds/bin/gnu/h-i686-mingw32/bin/../lib/gcc/nios2-elf/4.1.2/../../../../nios2-elf/lib\libc.a(lib_a-rget.o)
 .debug_abbrev  0x0000329f      0x1a2 d:/altera/13.0sp1/nios2eds/bin/gnu/h-i686-mingw32/bin/../lib/gcc/nios2-elf/4.1.2/../../../../nios2-elf/lib\libc.a(lib_a-snprintf.o)
 .debug_abbrev  0x00003441      0x191 d:/altera/13.0sp1/nios2eds/bin/gnu/h-i686-mingw32/bin/../lib/gcc/nios2-elf/4.1.2/../../../../nios2-elf/lib\libc.a(lib_a-sprintf.o)
 .debug_abbrev  0x000035d2       0x80 d:/altera/13.0sp1/nios2eds/bin/gnu/h-i686-mingw32/bin/../lib/gcc/nios2-elf/4.1.2/../../../../nios2-elf/lib\libc.a(lib_a-strchr.o)
 .debug_abbrev  0x00003652       0x80 d:/altera/13.0sp1/nios2eds/bin/gnu/h-i686-mingw32/bin/../lib/gcc/nios2-elf/4.1.2/../../../../nios2-elf/lib\libc.a(lib_a-strcmp.o)
 .debug_abbrev  0x000036d2       0x68 d:/altera/13.0sp1/nios2eds/bin/gnu/h-i686-mingw32/bin/../lib/gcc/nios2-elf/4.1.2/../../../../nios2-elf/lib\libc.a(lib_a-strerror.o)
 .debug_abbrev  0x0000373a       0x8b d:/altera/13.0sp1/nios2eds/bin/gnu/h-i686-mingw32/bin/../lib/gcc/nios2-elf/4.1.2/../../../../nios2-elf/lib\libc.a(lib_a-strlen.o)
 .debug_abbrev  0x000037c5      0x17f d:/altera/13.0sp1/nios2eds/bin/gnu/h-i686-mingw32/bin/../lib/gcc/nios2-elf/4.1.2/../../../../nios2-elf/lib\libc.a(lib_a-strtok.o)
 .debug_abbrev  0x00003944       0xcd d:/altera/13.0sp1/nios2eds/bin/gnu/h-i686-mingw32/bin/../lib/gcc/nios2-elf/4.1.2/../../../../nios2-elf/lib\libc.a(lib_a-strtok_r.o)
 .debug_abbrev  0x00003a11      0x1c7 d:/altera/13.0sp1/nios2eds/bin/gnu/h-i686-mingw32/bin/../lib/gcc/nios2-elf/4.1.2/../../../../nios2-elf/lib\libc.a(lib_a-strtol.o)
 .debug_abbrev  0x00003bd8       0x5b d:/altera/13.0sp1/nios2eds/bin/gnu/h-i686-mingw32/bin/../lib/gcc/nios2-elf/4.1.2/../../../../nios2-elf/lib\libc.a(lib_a-u_strerr.o)
 .debug_abbrev  0x00003c33      0x30a d:/altera/13.0sp1/nios2eds/bin/gnu/h-i686-mingw32/bin/../lib/gcc/nios2-elf/4.1.2/../../../../nios2-elf/lib\libc.a(lib_a-vfprintf.o)
 .debug_abbrev  0x00003f3d      0x198 d:/altera/13.0sp1/nios2eds/bin/gnu/h-i686-mingw32/bin/../lib/gcc/nios2-elf/4.1.2/../../../../nios2-elf/lib\libc.a(lib_a-wbuf.o)
 .debug_abbrev  0x000040d5      0x170 d:/altera/13.0sp1/nios2eds/bin/gnu/h-i686-mingw32/bin/../lib/gcc/nios2-elf/4.1.2/../../../../nios2-elf/lib\libc.a(lib_a-wsetup.o)
 .debug_abbrev  0x00004245      0x1de d:/altera/13.0sp1/nios2eds/bin/gnu/h-i686-mingw32/bin/../lib/gcc/nios2-elf/4.1.2/../../../../nios2-elf/lib\libc.a(lib_a-__call_atexit.o)
 .debug_abbrev  0x00004423      0x232 d:/altera/13.0sp1/nios2eds/bin/gnu/h-i686-mingw32/bin/../lib/gcc/nios2-elf/4.1.2/../../../../nios2-elf/lib\libc.a(lib_a-dtoa.o)
 .debug_abbrev  0x00004655      0x1c6 d:/altera/13.0sp1/nios2eds/bin/gnu/h-i686-mingw32/bin/../lib/gcc/nios2-elf/4.1.2/../../../../nios2-elf/lib\libc.a(lib_a-fflush.o)
 .debug_abbrev  0x0000481b      0x24c d:/altera/13.0sp1/nios2eds/bin/gnu/h-i686-mingw32/bin/../lib/gcc/nios2-elf/4.1.2/../../../../nios2-elf/lib\libc.a(lib_a-findfp.o)
 .debug_abbrev  0x00004a67      0x18c d:/altera/13.0sp1/nios2eds/bin/gnu/h-i686-mingw32/bin/../lib/gcc/nios2-elf/4.1.2/../../../../nios2-elf/lib\libc.a(lib_a-fputc.o)
 .debug_abbrev  0x00004bf3      0x1aa d:/altera/13.0sp1/nios2eds/bin/gnu/h-i686-mingw32/bin/../lib/gcc/nios2-elf/4.1.2/../../../../nios2-elf/lib\libc.a(lib_a-fputs.o)
 .debug_abbrev  0x00004d9d      0x1d9 d:/altera/13.0sp1/nios2eds/bin/gnu/h-i686-mingw32/bin/../lib/gcc/nios2-elf/4.1.2/../../../../nios2-elf/lib\libc.a(lib_a-freer.o)
 .debug_abbrev  0x00004f76      0x1a3 d:/altera/13.0sp1/nios2eds/bin/gnu/h-i686-mingw32/bin/../lib/gcc/nios2-elf/4.1.2/../../../../nios2-elf/lib\libc.a(lib_a-fvwrite.o)
 .debug_abbrev  0x00005119      0x1e3 d:/altera/13.0sp1/nios2eds/bin/gnu/h-i686-mingw32/bin/../lib/gcc/nios2-elf/4.1.2/../../../../nios2-elf/lib\libc.a(lib_a-fwalk.o)
 .debug_abbrev  0x000052fc      0x1ed d:/altera/13.0sp1/nios2eds/bin/gnu/h-i686-mingw32/bin/../lib/gcc/nios2-elf/4.1.2/../../../../nios2-elf/lib\libc.a(lib_a-locale.o)
 .debug_abbrev  0x000054e9      0x197 d:/altera/13.0sp1/nios2eds/bin/gnu/h-i686-mingw32/bin/../lib/gcc/nios2-elf/4.1.2/../../../../nios2-elf/lib\libc.a(lib_a-makebuf.o)
 .debug_abbrev  0x00005680      0x216 d:/altera/13.0sp1/nios2eds/bin/gnu/h-i686-mingw32/bin/../lib/gcc/nios2-elf/4.1.2/../../../../nios2-elf/lib\libc.a(lib_a-mallocr.o)
 .debug_abbrev  0x00005896       0xb5 d:/altera/13.0sp1/nios2eds/bin/gnu/h-i686-mingw32/bin/../lib/gcc/nios2-elf/4.1.2/../../../../nios2-elf/lib\libc.a(lib_a-memchr.o)
 .debug_abbrev  0x0000594b      0x297 d:/altera/13.0sp1/nios2eds/bin/gnu/h-i686-mingw32/bin/../lib/gcc/nios2-elf/4.1.2/../../../../nios2-elf/lib\libc.a(lib_a-mprec.o)
 .debug_abbrev  0x00005be2      0x1c3 d:/altera/13.0sp1/nios2eds/bin/gnu/h-i686-mingw32/bin/../lib/gcc/nios2-elf/4.1.2/../../../../nios2-elf/lib\libc.a(lib_a-reallocr.o)
 .debug_abbrev  0x00005da5      0x187 d:/altera/13.0sp1/nios2eds/bin/gnu/h-i686-mingw32/bin/../lib/gcc/nios2-elf/4.1.2/../../../../nios2-elf/lib\libc.a(lib_a-refill.o)
 .debug_abbrev  0x00005f2c       0x79 d:/altera/13.0sp1/nios2eds/bin/gnu/h-i686-mingw32/bin/../lib/gcc/nios2-elf/4.1.2/../../../../nios2-elf/lib\libc.a(lib_a-s_isinfd.o)
 .debug_abbrev  0x00005fa5       0x79 d:/altera/13.0sp1/nios2eds/bin/gnu/h-i686-mingw32/bin/../lib/gcc/nios2-elf/4.1.2/../../../../nios2-elf/lib\libc.a(lib_a-s_isnand.o)
 .debug_abbrev  0x0000601e      0x18c d:/altera/13.0sp1/nios2eds/bin/gnu/h-i686-mingw32/bin/../lib/gcc/nios2-elf/4.1.2/../../../../nios2-elf/lib\libc.a(lib_a-sbrkr.o)
 .debug_abbrev  0x000061aa      0x1c9 d:/altera/13.0sp1/nios2eds/bin/gnu/h-i686-mingw32/bin/../lib/gcc/nios2-elf/4.1.2/../../../../nios2-elf/lib\libc.a(lib_a-stdio.o)
 .debug_abbrev  0x00006373      0x184 d:/altera/13.0sp1/nios2eds/bin/gnu/h-i686-mingw32/bin/../lib/gcc/nios2-elf/4.1.2/../../../../nios2-elf/lib\libc.a(lib_a-writer.o)
 .debug_abbrev  0x000064f7      0x1b8 d:/altera/13.0sp1/nios2eds/bin/gnu/h-i686-mingw32/bin/../lib/gcc/nios2-elf/4.1.2/../../../../nios2-elf/lib\libc.a(lib_a-callocr.o)
 .debug_abbrev  0x000066af      0x17f d:/altera/13.0sp1/nios2eds/bin/gnu/h-i686-mingw32/bin/../lib/gcc/nios2-elf/4.1.2/../../../../nios2-elf/lib\libc.a(lib_a-closer.o)
 .debug_abbrev  0x0000682e      0x1a7 d:/altera/13.0sp1/nios2eds/bin/gnu/h-i686-mingw32/bin/../lib/gcc/nios2-elf/4.1.2/../../../../nios2-elf/lib\libc.a(lib_a-fclose.o)
 .debug_abbrev  0x000069d5      0x18e d:/altera/13.0sp1/nios2eds/bin/gnu/h-i686-mingw32/bin/../lib/gcc/nios2-elf/4.1.2/../../../../nios2-elf/lib\libc.a(lib_a-fstatr.o)
 .debug_abbrev  0x00006b63       0x3b d:/altera/13.0sp1/nios2eds/bin/gnu/h-i686-mingw32/bin/../lib/gcc/nios2-elf/4.1.2/../../../../nios2-elf/lib\libc.a(lib_a-int_errno.o)
 .debug_abbrev  0x00006b9e      0x17f d:/altera/13.0sp1/nios2eds/bin/gnu/h-i686-mingw32/bin/../lib/gcc/nios2-elf/4.1.2/../../../../nios2-elf/lib\libc.a(lib_a-isattyr.o)
 .debug_abbrev  0x00006d1d      0x18e d:/altera/13.0sp1/nios2eds/bin/gnu/h-i686-mingw32/bin/../lib/gcc/nios2-elf/4.1.2/../../../../nios2-elf/lib\libc.a(lib_a-lseekr.o)
 .debug_abbrev  0x00006eab      0x17f d:/altera/13.0sp1/nios2eds/bin/gnu/h-i686-mingw32/bin/../lib/gcc/nios2-elf/4.1.2/../../../../nios2-elf/lib\libc.a(lib_a-readr.o)
 .debug_abbrev  0x0000702a      0x16b d:/altera/13.0sp1/nios2eds/bin/gnu/h-i686-mingw32/bin/../lib/gcc/nios2-elf/4.1.2\libgcc.a(_udivdi3.o)
 .debug_abbrev  0x00007195      0x18e d:/altera/13.0sp1/nios2eds/bin/gnu/h-i686-mingw32/bin/../lib/gcc/nios2-elf/4.1.2\libgcc.a(_umoddi3.o)
 .debug_abbrev  0x00007323      0x1e3 d:/altera/13.0sp1/nios2eds/bin/gnu/h-i686-mingw32/bin/../lib/gcc/nios2-elf/4.1.2\libgcc.a(_div_df.o)
 .debug_abbrev  0x00007506      0x151 d:/altera/13.0sp1/nios2eds/bin/gnu/h-i686-mingw32/bin/../lib/gcc/nios2-elf/4.1.2\libgcc.a(_eq_df.o)
 .debug_abbrev  0x00007657      0x151 d:/altera/13.0sp1/nios2eds/bin/gnu/h-i686-mingw32/bin/../lib/gcc/nios2-elf/4.1.2\libgcc.a(_ne_df.o)
 .debug_abbrev  0x000077a8      0x151 d:/altera/13.0sp1/nios2eds/bin/gnu/h-i686-mingw32/bin/../lib/gcc/nios2-elf/4.1.2\libgcc.a(_gt_df.o)
 .debug_abbrev  0x000078f9      0x151 d:/altera/13.0sp1/nios2eds/bin/gnu/h-i686-mingw32/bin/../lib/gcc/nios2-elf/4.1.2\libgcc.a(_lt_df.o)
 .debug_abbrev  0x00007a4a      0x13f d:/altera/13.0sp1/nios2eds/bin/gnu/h-i686-mingw32/bin/../lib/gcc/nios2-elf/4.1.2\libgcc.a(_si_to_df.o)
 .debug_abbrev  0x00007b89       0xe0 d:/altera/13.0sp1/nios2eds/bin/gnu/h-i686-mingw32/bin/../lib/gcc/nios2-elf/4.1.2\libgcc.a(lib2-divmod.o)
 .debug_abbrev  0x00007c69       0xaa ../projeto_final_bsp/\libucosii_bsp.a(alt_exit.o)
 .debug_abbrev  0x00007d13      0x128 ../projeto_final_bsp/\libucosii_bsp.a(alt_flash_dev.o)
 .debug_abbrev  0x00007e3b      0x102 ../projeto_final_bsp/\libucosii_bsp.a(alt_fstat.o)
 .debug_abbrev  0x00007f3d      0x180 ../projeto_final_bsp/\libucosii_bsp.a(alt_irq_register.o)
 .debug_abbrev  0x000080bd       0x44 ../projeto_final_bsp/\libucosii_bsp.a(alt_irq_vars.o)
 .debug_abbrev  0x00008101      0x102 ../projeto_final_bsp/\libucosii_bsp.a(alt_isatty.o)
 .debug_abbrev  0x00008203      0x102 ../projeto_final_bsp/\libucosii_bsp.a(alt_lseek.o)
 .debug_abbrev  0x00008305      0x120 ../projeto_final_bsp/\libucosii_bsp.a(alt_main.o)
 .debug_abbrev  0x00008425      0x115 ../projeto_final_bsp/\libucosii_bsp.a(alt_sbrk.o)
 .debug_abbrev  0x0000853a       0xb7 ../projeto_final_bsp/\libucosii_bsp.a(alt_usleep.o)
 .debug_abbrev  0x000085f1      0x1b3 ../projeto_final_bsp/\libucosii_bsp.a(alt_env_lock.o)
 .debug_abbrev  0x000087a4      0x234 ../projeto_final_bsp/\libucosii_bsp.a(alt_malloc_lock.o)
 .debug_abbrev  0x000089d8      0x2aa ../projeto_final_bsp/\libucosii_bsp.a(os_core.o)
 .debug_abbrev  0x00008c82      0x114 ../projeto_final_bsp/\libucosii_bsp.a(os_dbg.o)
 .debug_abbrev  0x00008d96      0x21b ../projeto_final_bsp/\libucosii_bsp.a(os_flag.o)
 .debug_abbrev  0x00008fb1      0x235 ../projeto_final_bsp/\libucosii_bsp.a(os_mem.o)
 .debug_abbrev  0x000091e6      0x20d ../projeto_final_bsp/\libucosii_bsp.a(os_q.o)
 .debug_abbrev  0x000093f3      0x20d ../projeto_final_bsp/\libucosii_bsp.a(os_sem.o)
 .debug_abbrev  0x00009600      0x20e ../projeto_final_bsp/\libucosii_bsp.a(os_task.o)
 .debug_abbrev  0x0000980e      0x1de ../projeto_final_bsp/\libucosii_bsp.a(os_time.o)
 .debug_abbrev  0x000099ec      0x1c8 ../projeto_final_bsp/\libucosii_bsp.a(alt_sys_init.o)
 .debug_abbrev  0x00009bb4      0x1bf ../projeto_final_bsp/\libucosii_bsp.a(altera_avalon_cfi_flash.o)
 .debug_abbrev  0x00009d73      0x185 ../projeto_final_bsp/\libucosii_bsp.a(altera_avalon_cfi_flash_table.o)
 .debug_abbrev  0x00009ef8      0x1bf ../projeto_final_bsp/\libucosii_bsp.a(altera_avalon_epcs_flash_controller.o)
 .debug_abbrev  0x0000a0b7      0x13c ../projeto_final_bsp/\libucosii_bsp.a(altera_avalon_jtag_uart_fd.o)
 .debug_abbrev  0x0000a1f3      0x21e ../projeto_final_bsp/\libucosii_bsp.a(altera_avalon_jtag_uart_init.o)
 .debug_abbrev  0x0000a411      0x135 ../projeto_final_bsp/\libucosii_bsp.a(altera_avalon_jtag_uart_ioctl.o)
 .debug_abbrev  0x0000a546      0x1ee ../projeto_final_bsp/\libucosii_bsp.a(altera_avalon_jtag_uart_read.o)
 .debug_abbrev  0x0000a734      0x1ea ../projeto_final_bsp/\libucosii_bsp.a(altera_avalon_jtag_uart_write.o)
 .debug_abbrev  0x0000a91e      0x235 ../projeto_final_bsp/\libucosii_bsp.a(altera_avalon_lcd_16207.o)
 .debug_abbrev  0x0000ab53      0x12f ../projeto_final_bsp/\libucosii_bsp.a(altera_avalon_lcd_16207_fd.o)
 .debug_abbrev  0x0000ac82      0x137 ../projeto_final_bsp/\libucosii_bsp.a(altera_avalon_timer_sc.o)
 .debug_abbrev  0x0000adb9      0x124 ../projeto_final_bsp/\libucosii_bsp.a(altera_avalon_uart_fd.o)
 .debug_abbrev  0x0000aedd      0x204 ../projeto_final_bsp/\libucosii_bsp.a(altera_avalon_uart_init.o)
 .debug_abbrev  0x0000b0e1      0x1b9 ../projeto_final_bsp/\libucosii_bsp.a(altera_avalon_uart_read.o)
 .debug_abbrev  0x0000b29a      0x1c0 ../projeto_final_bsp/\libucosii_bsp.a(altera_avalon_uart_write.o)
 .debug_abbrev  0x0000b45a      0x145 ../projeto_final_bsp/\libucosii_bsp.a(epcs_commands.o)
 .debug_abbrev  0x0000b59f       0x77 ../projeto_final_bsp/\libucosii_bsp.a(alt_iniche_close.o)
 .debug_abbrev  0x0000b616      0x11f ../projeto_final_bsp/\libucosii_bsp.a(alt_iniche_dev.o)
 .debug_abbrev  0x0000b735       0x7e ../projeto_final_bsp/\libucosii_bsp.a(alt_iniche_read.o)
 .debug_abbrev  0x0000b7b3       0x85 ../projeto_final_bsp/\libucosii_bsp.a(alt_iniche_write.o)
 .debug_abbrev  0x0000b838      0x184 ../projeto_final_bsp/\libucosii_bsp.a(ipnet.o)
 .debug_abbrev  0x0000b9bc      0x18b ../projeto_final_bsp/\libucosii_bsp.a(ipstart.o)
 .debug_abbrev  0x0000bb47      0x191 ../projeto_final_bsp/\libucosii_bsp.a(igmp_cmn.o)
 .debug_abbrev  0x0000bcd8      0x1a3 ../projeto_final_bsp/\libucosii_bsp.a(bsdsock.o)
 .debug_abbrev  0x0000be7b       0x96 ../projeto_final_bsp/\libucosii_bsp.a(cksum.o)
 .debug_abbrev  0x0000bf11      0x18b ../projeto_final_bsp/\libucosii_bsp.a(in_utils.o)
 .debug_abbrev  0x0000c09c      0x152 ../projeto_final_bsp/\libucosii_bsp.a(netmain.o)
 .debug_abbrev  0x0000c1ee      0x154 ../projeto_final_bsp/\libucosii_bsp.a(parseip.o)
 .debug_abbrev  0x0000c342      0x144 ../projeto_final_bsp/\libucosii_bsp.a(tk_crnos.o)
 .debug_abbrev  0x0000c486      0x217 ../projeto_final_bsp/\libucosii_bsp.a(dhcpclnt.o)
 .debug_abbrev  0x0000c69d       0x8f ../projeto_final_bsp/\libucosii_bsp.a(dhcputil.o)
 .debug_abbrev  0x0000c72c      0x196 ../projeto_final_bsp/\libucosii_bsp.a(pktalloc.o)
 .debug_abbrev  0x0000c8c2       0xcb ../projeto_final_bsp/\libucosii_bsp.a(q.o)
 .debug_abbrev  0x0000c98d      0x144 ../projeto_final_bsp/\libucosii_bsp.a(udp_open.o)
 .debug_abbrev  0x0000cad1       0x14 ../projeto_final_bsp/\libucosii_bsp.a(asm_cksum.o)
 .debug_abbrev  0x0000cae5      0x242 ../projeto_final_bsp/\libucosii_bsp.a(brdutils.o)
 .debug_abbrev  0x0000cd27      0x194 ../projeto_final_bsp/\libucosii_bsp.a(osportco.o)
 .debug_abbrev  0x0000cebb      0x199 ../projeto_final_bsp/\libucosii_bsp.a(targnios.o)
 .debug_abbrev  0x0000d054      0x1dc ../projeto_final_bsp/\libucosii_bsp.a(nptcp.o)
 .debug_abbrev  0x0000d230      0x136 ../projeto_final_bsp/\libucosii_bsp.a(rawsock.o)
 .debug_abbrev  0x0000d366      0x1de ../projeto_final_bsp/\libucosii_bsp.a(sockcall.o)
 .debug_abbrev  0x0000d544      0x1ef ../projeto_final_bsp/\libucosii_bsp.a(socket.o)
 .debug_abbrev  0x0000d733      0x1ac ../projeto_final_bsp/\libucosii_bsp.a(socket2.o)
 .debug_abbrev  0x0000d8df      0x17f ../projeto_final_bsp/\libucosii_bsp.a(soselect.o)
 .debug_abbrev  0x0000da5e      0x1ca ../projeto_final_bsp/\libucosii_bsp.a(tcp_in.o)
 .debug_abbrev  0x0000dc28      0x1a4 ../projeto_final_bsp/\libucosii_bsp.a(tcp_out.o)
 .debug_abbrev  0x0000ddcc      0x1c3 ../projeto_final_bsp/\libucosii_bsp.a(tcp_subr.o)
 .debug_abbrev  0x0000df8f      0x19e ../projeto_final_bsp/\libucosii_bsp.a(tcp_timr.o)
 .debug_abbrev  0x0000e12d      0x175 ../projeto_final_bsp/\libucosii_bsp.a(tcp_usr.o)
 .debug_abbrev  0x0000e2a2       0x77 ../projeto_final_bsp/\libucosii_bsp.a(tcpport.o)
 .debug_abbrev  0x0000e319      0x190 ../projeto_final_bsp/\libucosii_bsp.a(udpsock.o)
 .debug_abbrev  0x0000e4a9      0x172 ../projeto_final_bsp/\libucosii_bsp.a(alt_alarm_start.o)
 .debug_abbrev  0x0000e61b       0x6c ../projeto_final_bsp/\libucosii_bsp.a(alt_busy_sleep.o)
 .debug_abbrev  0x0000e687      0x102 ../projeto_final_bsp/\libucosii_bsp.a(alt_close.o)
 .debug_abbrev  0x0000e789       0x7a ../projeto_final_bsp/\libucosii_bsp.a(alt_dcache_flush.o)
 .debug_abbrev  0x0000e803      0x10a ../projeto_final_bsp/\libucosii_bsp.a(alt_dev.o)
 .debug_abbrev  0x0000e90d       0xf6 ../projeto_final_bsp/\libucosii_bsp.a(alt_dev_llist_insert.o)
 .debug_abbrev  0x0000ea03       0x76 ../projeto_final_bsp/\libucosii_bsp.a(alt_do_ctors.o)
 .debug_abbrev  0x0000ea79       0x76 ../projeto_final_bsp/\libucosii_bsp.a(alt_do_dtors.o)
 .debug_abbrev  0x0000eaef       0x5e ../projeto_final_bsp/\libucosii_bsp.a(alt_errno.o)
 .debug_abbrev  0x0000eb4d       0xd6 ../projeto_final_bsp/\libucosii_bsp.a(alt_find_dev.o)
 .debug_abbrev  0x0000ec23      0x134 ../projeto_final_bsp/\libucosii_bsp.a(alt_iic.o)
 .debug_abbrev  0x0000ed57      0x14e ../projeto_final_bsp/\libucosii_bsp.a(alt_iic_isr_register.o)
 .debug_abbrev  0x0000eea5       0xf7 ../projeto_final_bsp/\libucosii_bsp.a(alt_io_redirect.o)
 .debug_abbrev  0x0000ef9c       0x12 ../projeto_final_bsp/\libucosii_bsp.a(alt_irq_entry.o)
 .debug_abbrev  0x0000efae      0x124 ../projeto_final_bsp/\libucosii_bsp.a(alt_irq_handler.o)
 .debug_abbrev  0x0000f0d2      0x119 ../projeto_final_bsp/\libucosii_bsp.a(alt_open.o)
 .debug_abbrev  0x0000f1eb      0x102 ../projeto_final_bsp/\libucosii_bsp.a(alt_read.o)
 .debug_abbrev  0x0000f2ed       0xd3 ../projeto_final_bsp/\libucosii_bsp.a(alt_release_fd.o)
 .debug_abbrev  0x0000f3c0       0x74 ../projeto_final_bsp/\libucosii_bsp.a(alt_remap_cached.o)
 .debug_abbrev  0x0000f434       0x74 ../projeto_final_bsp/\libucosii_bsp.a(alt_remap_uncached.o)
 .debug_abbrev  0x0000f4a8      0x150 ../projeto_final_bsp/\libucosii_bsp.a(alt_tick.o)
 .debug_abbrev  0x0000f5f8      0x107 ../projeto_final_bsp/\libucosii_bsp.a(alt_write.o)
 .debug_abbrev  0x0000f6ff       0x3f ../projeto_final_bsp/\libucosii_bsp.a(altera_nios2_qsys_irq.o)
 .debug_abbrev  0x0000f73e       0x14 ../projeto_final_bsp/\libucosii_bsp.a(os_cpu_a.o)
 .debug_abbrev  0x0000f752      0x1d0 ../projeto_final_bsp/\libucosii_bsp.a(os_cpu_c.o)
 .debug_abbrev  0x0000f922      0x14d ../projeto_final_bsp/\libucosii_bsp.a(altera_avalon_cfi_flash_amd.o)
 .debug_abbrev  0x0000fa6f      0x14d ../projeto_final_bsp/\libucosii_bsp.a(altera_avalon_cfi_flash_intel.o)
 .debug_abbrev  0x0000fbbc       0x7c ../projeto_final_bsp/\libucosii_bsp.a(altera_avalon_spi.o)
 .debug_abbrev  0x0000fc38      0x173 ../projeto_final_bsp/\libucosii_bsp.a(allports.o)
 .debug_abbrev  0x0000fdab      0x151 ../projeto_final_bsp/\libucosii_bsp.a(timeouts.o)
 .debug_abbrev  0x0000fefc       0xa4 ../projeto_final_bsp/\libucosii_bsp.a(tk_misc.o)
 .debug_abbrev  0x0000ffa0       0x92 ../projeto_final_bsp/\libucosii_bsp.a(alt_iniche_fcntl.o)
 .debug_abbrev  0x00010032      0x1eb ../projeto_final_bsp/\libucosii_bsp.a(et_arp.o)
 .debug_abbrev  0x0001021d      0x13d ../projeto_final_bsp/\libucosii_bsp.a(iface.o)
 .debug_abbrev  0x0001035a      0x1ed ../projeto_final_bsp/\libucosii_bsp.a(ip.o)
 .debug_abbrev  0x00010547      0x1ca ../projeto_final_bsp/\libucosii_bsp.a(ip_reasm.o)
 .debug_abbrev  0x00010711      0x166 ../projeto_final_bsp/\libucosii_bsp.a(ipdemux.o)
 .debug_abbrev  0x00010877      0x114 ../projeto_final_bsp/\libucosii_bsp.a(ipmc.o)
 .debug_abbrev  0x0001098b       0xe9 ../projeto_final_bsp/\libucosii_bsp.a(ipport.o)
 .debug_abbrev  0x00010a74      0x19c ../projeto_final_bsp/\libucosii_bsp.a(ipraw.o)
 .debug_abbrev  0x00010c10      0x156 ../projeto_final_bsp/\libucosii_bsp.a(iproute.o)
 .debug_abbrev  0x00010d66      0x1c0 ../projeto_final_bsp/\libucosii_bsp.a(udp.o)
 .debug_abbrev  0x00010f26      0x10e ../projeto_final_bsp/\libucosii_bsp.a(igmp.o)
 .debug_abbrev  0x00011034      0x17a ../projeto_final_bsp/\libucosii_bsp.a(igmp2.o)
 .debug_abbrev  0x000111ae      0x189 ../projeto_final_bsp/\libucosii_bsp.a(ipopt.o)
 .debug_abbrev  0x00011337      0x12e ../projeto_final_bsp/\libucosii_bsp.a(dhcsetup.o)
 .debug_abbrev  0x00011465      0x175 ../projeto_final_bsp/\libucosii_bsp.a(memdev.o)
 .debug_abbrev  0x000115da       0xad ../projeto_final_bsp/\libucosii_bsp.a(tcpcksum.o)
 .debug_abbrev  0x00011687      0x19f ../projeto_final_bsp/\libucosii_bsp.a(in_pcb.o)
 .debug_abbrev  0x00011826      0x1b6 ../projeto_final_bsp/\libucosii_bsp.a(vfsfiles.o)
 .debug_abbrev  0x000119dc       0x77 ../projeto_final_bsp/\libucosii_bsp.a(vfsport.o)
 .debug_abbrev  0x00011a53       0x12 ../projeto_final_bsp/\libucosii_bsp.a(alt_exception_entry.o)
 .debug_abbrev  0x00011a65      0x107 ../projeto_final_bsp/\libucosii_bsp.a(alt_fcntl.o)
 .debug_abbrev  0x00011b6c       0xd6 ../projeto_final_bsp/\libucosii_bsp.a(alt_find_file.o)
 .debug_abbrev  0x00011c42      0x173 ../projeto_final_bsp/\libucosii_bsp.a(alt_get_fd.o)
 .debug_abbrev  0x00011db5      0x15d ../projeto_final_bsp/\libucosii_bsp.a(icmp.o)
 .debug_abbrev  0x00011f12       0xb7 d:/altera/13.0sp1/nios2eds/bin/gnu/h-i686-mingw32/bin/../lib/gcc/nios2-elf/4.1.2/../../../../nios2-elf/lib\libc.a(lib_a-atexit.o)
 .debug_abbrev  0x00011fc9      0x17f d:/altera/13.0sp1/nios2eds/bin/gnu/h-i686-mingw32/bin/../lib/gcc/nios2-elf/4.1.2/../../../../nios2-elf/lib\libc.a(lib_a-calloc.o)
 .debug_abbrev  0x00012148      0x187 d:/altera/13.0sp1/nios2eds/bin/gnu/h-i686-mingw32/bin/../lib/gcc/nios2-elf/4.1.2/../../../../nios2-elf/lib\libc.a(lib_a-malloc.o)
 .debug_abbrev  0x000122cf       0x7c d:/altera/13.0sp1/nios2eds/bin/gnu/h-i686-mingw32/bin/../lib/gcc/nios2-elf/4.1.2/../../../../nios2-elf/lib\libc.a(lib_a-memcmp.o)
 .debug_abbrev  0x0001234b       0x8f d:/altera/13.0sp1/nios2eds/bin/gnu/h-i686-mingw32/bin/../lib/gcc/nios2-elf/4.1.2/../../../../nios2-elf/lib\libc.a(lib_a-strcpy.o)
 .debug_abbrev  0x000123da       0x8d d:/altera/13.0sp1/nios2eds/bin/gnu/h-i686-mingw32/bin/../lib/gcc/nios2-elf/4.1.2/../../../../nios2-elf/lib\libc.a(lib_a-strncmp.o)
 .debug_abbrev  0x00012467       0x9c d:/altera/13.0sp1/nios2eds/bin/gnu/h-i686-mingw32/bin/../lib/gcc/nios2-elf/4.1.2/../../../../nios2-elf/lib\libc.a(lib_a-strncpy.o)
 .debug_abbrev  0x00012503      0x170 d:/altera/13.0sp1/nios2eds/bin/gnu/h-i686-mingw32/bin/../lib/gcc/nios2-elf/4.1.2/../../../../nios2-elf/lib\libc.a(lib_a-vprintf.o)
 .debug_abbrev  0x00012673      0x1a5 d:/altera/13.0sp1/nios2eds/bin/gnu/h-i686-mingw32/bin/../lib/gcc/nios2-elf/4.1.2/../../../../nios2-elf/lib\libc.a(lib_a-vsprintf.o)
 .debug_abbrev  0x00012818      0x1ae d:/altera/13.0sp1/nios2eds/bin/gnu/h-i686-mingw32/bin/../lib/gcc/nios2-elf/4.1.2/../../../../nios2-elf/lib\libc.a(lib_a-__atexit.o)

.debug_line     0x00000000    0x428d5
 *(.debug_line)
 .debug_line    0x00000000       0x57 ../projeto_final_bsp//obj/HAL/src/crt0.o
 .debug_line    0x00000057      0x34b obj/default/LCD.o
 .debug_line    0x000003a2      0x519 obj/default/SSS_DE2_115.o
 .debug_line    0x000008bb      0x71a obj/default/alt_error_handler.o
 .debug_line    0x00000fd5      0xad1 obj/default/dm9000a.o
 .debug_line    0x00001aa6      0xa6d obj/default/iniche_init.o
 .debug_line    0x00002513      0x41a obj/default/led.o
 .debug_line    0x0000292d      0x7e0 obj/default/network_utilities.o
 .debug_line    0x0000310d      0x79b obj/default/simple_socket_server.o
 .debug_line    0x000038a8       0x24 obj/default/tse_my_system.o
 .debug_line    0x000038cc       0xff d:/altera/13.0sp1/nios2eds/bin/gnu/h-i686-mingw32/bin/../lib/gcc/nios2-elf/4.1.2\libgcc.a(_fixunsdfsi.o)
 .debug_line    0x000039cb      0x430 d:/altera/13.0sp1/nios2eds/bin/gnu/h-i686-mingw32/bin/../lib/gcc/nios2-elf/4.1.2\libgcc.a(_addsub_df.o)
 .debug_line    0x00003dfb      0x3e5 d:/altera/13.0sp1/nios2eds/bin/gnu/h-i686-mingw32/bin/../lib/gcc/nios2-elf/4.1.2\libgcc.a(_mul_df.o)
 .debug_line    0x000041e0      0x129 d:/altera/13.0sp1/nios2eds/bin/gnu/h-i686-mingw32/bin/../lib/gcc/nios2-elf/4.1.2\libgcc.a(_ge_df.o)
 .debug_line    0x00004309      0x149 d:/altera/13.0sp1/nios2eds/bin/gnu/h-i686-mingw32/bin/../lib/gcc/nios2-elf/4.1.2\libgcc.a(_df_to_si.o)
 .debug_line    0x00004452       0x94 d:/altera/13.0sp1/nios2eds/bin/gnu/h-i686-mingw32/bin/../lib/gcc/nios2-elf/4.1.2\libgcc.a(_thenan_df.o)
 .debug_line    0x000044e6      0x189 d:/altera/13.0sp1/nios2eds/bin/gnu/h-i686-mingw32/bin/../lib/gcc/nios2-elf/4.1.2\libgcc.a(_usi_to_df.o)
 .debug_line    0x0000466f      0x11f d:/altera/13.0sp1/nios2eds/bin/gnu/h-i686-mingw32/bin/../lib/gcc/nios2-elf/4.1.2\libgcc.a(_muldi3.o)
 .debug_line    0x0000478e      0x105 d:/altera/13.0sp1/nios2eds/bin/gnu/h-i686-mingw32/bin/../lib/gcc/nios2-elf/4.1.2\libgcc.a(_clzsi2.o)
 .debug_line    0x00004893      0x222 d:/altera/13.0sp1/nios2eds/bin/gnu/h-i686-mingw32/bin/../lib/gcc/nios2-elf/4.1.2\libgcc.a(_pack_df.o)
 .debug_line    0x00004ab5      0x1e4 d:/altera/13.0sp1/nios2eds/bin/gnu/h-i686-mingw32/bin/../lib/gcc/nios2-elf/4.1.2\libgcc.a(_unpack_df.o)
 .debug_line    0x00004c99      0x187 d:/altera/13.0sp1/nios2eds/bin/gnu/h-i686-mingw32/bin/../lib/gcc/nios2-elf/4.1.2\libgcc.a(_fpcmp_parts_df.o)
 .debug_line    0x00004e20       0xaa d:/altera/13.0sp1/nios2eds/bin/gnu/h-i686-mingw32/bin/../lib/gcc/nios2-elf/4.1.2\libgcc.a(_clz.o)
 .debug_line    0x00004eca      0x20a d:/altera/13.0sp1/nios2eds/bin/gnu/h-i686-mingw32/bin/../lib/gcc/nios2-elf/4.1.2/../../../../nios2-elf/lib\libc.a(lib_a-atoi.o)
 .debug_line    0x000050d4       0x7e d:/altera/13.0sp1/nios2eds/bin/gnu/h-i686-mingw32/bin/../lib/gcc/nios2-elf/4.1.2/../../../../nios2-elf/lib\libc.a(lib_a-ctype_.o)
 .debug_line    0x00005152      0x1ec d:/altera/13.0sp1/nios2eds/bin/gnu/h-i686-mingw32/bin/../lib/gcc/nios2-elf/4.1.2/../../../../nios2-elf/lib\libc.a(lib_a-errno.o)
 .debug_line    0x0000533e      0x238 d:/altera/13.0sp1/nios2eds/bin/gnu/h-i686-mingw32/bin/../lib/gcc/nios2-elf/4.1.2/../../../../nios2-elf/lib\libc.a(lib_a-exit.o)
 .debug_line    0x00005576      0x284 d:/altera/13.0sp1/nios2eds/bin/gnu/h-i686-mingw32/bin/../lib/gcc/nios2-elf/4.1.2/../../../../nios2-elf/lib\libc.a(lib_a-fprintf.o)
 .debug_line    0x000057fa      0x2d9 d:/altera/13.0sp1/nios2eds/bin/gnu/h-i686-mingw32/bin/../lib/gcc/nios2-elf/4.1.2/../../../../nios2-elf/lib\libc.a(lib_a-fwrite.o)
 .debug_line    0x00005ad3      0x2a4 d:/altera/13.0sp1/nios2eds/bin/gnu/h-i686-mingw32/bin/../lib/gcc/nios2-elf/4.1.2/../../../../nios2-elf/lib\libc.a(lib_a-getc.o)
 .debug_line    0x00005d77      0x22d d:/altera/13.0sp1/nios2eds/bin/gnu/h-i686-mingw32/bin/../lib/gcc/nios2-elf/4.1.2/../../../../nios2-elf/lib\libc.a(lib_a-impure.o)
 .debug_line    0x00005fa4      0x1ac d:/altera/13.0sp1/nios2eds/bin/gnu/h-i686-mingw32/bin/../lib/gcc/nios2-elf/4.1.2/../../../../nios2-elf/lib\libc.a(lib_a-memcpy.o)
 .debug_line    0x00006150      0x30a d:/altera/13.0sp1/nios2eds/bin/gnu/h-i686-mingw32/bin/../lib/gcc/nios2-elf/4.1.2/../../../../nios2-elf/lib\libc.a(lib_a-memmove.o)
 .debug_line    0x0000645a      0x301 d:/altera/13.0sp1/nios2eds/bin/gnu/h-i686-mingw32/bin/../lib/gcc/nios2-elf/4.1.2/../../../../nios2-elf/lib\libc.a(lib_a-memset.o)
 .debug_line    0x0000675b      0x2a4 d:/altera/13.0sp1/nios2eds/bin/gnu/h-i686-mingw32/bin/../lib/gcc/nios2-elf/4.1.2/../../../../nios2-elf/lib\libc.a(lib_a-perror.o)
 .debug_line    0x000069ff      0x29b d:/altera/13.0sp1/nios2eds/bin/gnu/h-i686-mingw32/bin/../lib/gcc/nios2-elf/4.1.2/../../../../nios2-elf/lib\libc.a(lib_a-printf.o)
 .debug_line    0x00006c9a      0x2c4 d:/altera/13.0sp1/nios2eds/bin/gnu/h-i686-mingw32/bin/../lib/gcc/nios2-elf/4.1.2/../../../../nios2-elf/lib\libc.a(lib_a-putc.o)
 .debug_line    0x00006f5e      0x264 d:/altera/13.0sp1/nios2eds/bin/gnu/h-i686-mingw32/bin/../lib/gcc/nios2-elf/4.1.2/../../../../nios2-elf/lib\libc.a(lib_a-putchar.o)
 .debug_line    0x000071c2      0x2f7 d:/altera/13.0sp1/nios2eds/bin/gnu/h-i686-mingw32/bin/../lib/gcc/nios2-elf/4.1.2/../../../../nios2-elf/lib\libc.a(lib_a-puts.o)
 .debug_line    0x000074b9      0x28d d:/altera/13.0sp1/nios2eds/bin/gnu/h-i686-mingw32/bin/../lib/gcc/nios2-elf/4.1.2/../../../../nios2-elf/lib\libc.a(lib_a-rget.o)
 .debug_line    0x00007746      0x3a7 d:/altera/13.0sp1/nios2eds/bin/gnu/h-i686-mingw32/bin/../lib/gcc/nios2-elf/4.1.2/../../../../nios2-elf/lib\libc.a(lib_a-snprintf.o)
 .debug_line    0x00007aed      0x322 d:/altera/13.0sp1/nios2eds/bin/gnu/h-i686-mingw32/bin/../lib/gcc/nios2-elf/4.1.2/../../../../nios2-elf/lib\libc.a(lib_a-sprintf.o)
 .debug_line    0x00007e0f      0x2c7 d:/altera/13.0sp1/nios2eds/bin/gnu/h-i686-mingw32/bin/../lib/gcc/nios2-elf/4.1.2/../../../../nios2-elf/lib\libc.a(lib_a-strchr.o)
 .debug_line    0x000080d6      0x2d5 d:/altera/13.0sp1/nios2eds/bin/gnu/h-i686-mingw32/bin/../lib/gcc/nios2-elf/4.1.2/../../../../nios2-elf/lib\libc.a(lib_a-strcmp.o)
 .debug_line    0x000083ab      0x4e1 d:/altera/13.0sp1/nios2eds/bin/gnu/h-i686-mingw32/bin/../lib/gcc/nios2-elf/4.1.2/../../../../nios2-elf/lib\libc.a(lib_a-strerror.o)
 .debug_line    0x0000888c      0x26d d:/altera/13.0sp1/nios2eds/bin/gnu/h-i686-mingw32/bin/../lib/gcc/nios2-elf/4.1.2/../../../../nios2-elf/lib\libc.a(lib_a-strlen.o)
 .debug_line    0x00008af9      0x250 d:/altera/13.0sp1/nios2eds/bin/gnu/h-i686-mingw32/bin/../lib/gcc/nios2-elf/4.1.2/../../../../nios2-elf/lib\libc.a(lib_a-strtok.o)
 .debug_line    0x00008d49      0x30b d:/altera/13.0sp1/nios2eds/bin/gnu/h-i686-mingw32/bin/../lib/gcc/nios2-elf/4.1.2/../../../../nios2-elf/lib\libc.a(lib_a-strtok_r.o)
 .debug_line    0x00009054      0x403 d:/altera/13.0sp1/nios2eds/bin/gnu/h-i686-mingw32/bin/../lib/gcc/nios2-elf/4.1.2/../../../../nios2-elf/lib\libc.a(lib_a-strtol.o)
 .debug_line    0x00009457       0x91 d:/altera/13.0sp1/nios2eds/bin/gnu/h-i686-mingw32/bin/../lib/gcc/nios2-elf/4.1.2/../../../../nios2-elf/lib\libc.a(lib_a-u_strerr.o)
 .debug_line    0x000094e8     0x110c d:/altera/13.0sp1/nios2eds/bin/gnu/h-i686-mingw32/bin/../lib/gcc/nios2-elf/4.1.2/../../../../nios2-elf/lib\libc.a(lib_a-vfprintf.o)
 .debug_line    0x0000a5f4      0x350 d:/altera/13.0sp1/nios2eds/bin/gnu/h-i686-mingw32/bin/../lib/gcc/nios2-elf/4.1.2/../../../../nios2-elf/lib\libc.a(lib_a-wbuf.o)
 .debug_line    0x0000a944      0x2f0 d:/altera/13.0sp1/nios2eds/bin/gnu/h-i686-mingw32/bin/../lib/gcc/nios2-elf/4.1.2/../../../../nios2-elf/lib\libc.a(lib_a-wsetup.o)
 .debug_line    0x0000ac34      0x367 d:/altera/13.0sp1/nios2eds/bin/gnu/h-i686-mingw32/bin/../lib/gcc/nios2-elf/4.1.2/../../../../nios2-elf/lib\libc.a(lib_a-__call_atexit.o)
 .debug_line    0x0000af9b     0x12c6 d:/altera/13.0sp1/nios2eds/bin/gnu/h-i686-mingw32/bin/../lib/gcc/nios2-elf/4.1.2/../../../../nios2-elf/lib\libc.a(lib_a-dtoa.o)
 .debug_line    0x0000c261      0x40d d:/altera/13.0sp1/nios2eds/bin/gnu/h-i686-mingw32/bin/../lib/gcc/nios2-elf/4.1.2/../../../../nios2-elf/lib\libc.a(lib_a-fflush.o)
 .debug_line    0x0000c66e      0x601 d:/altera/13.0sp1/nios2eds/bin/gnu/h-i686-mingw32/bin/../lib/gcc/nios2-elf/4.1.2/../../../../nios2-elf/lib\libc.a(lib_a-findfp.o)
 .debug_line    0x0000cc6f      0x285 d:/altera/13.0sp1/nios2eds/bin/gnu/h-i686-mingw32/bin/../lib/gcc/nios2-elf/4.1.2/../../../../nios2-elf/lib\libc.a(lib_a-fputc.o)
 .debug_line    0x0000cef4      0x2c8 d:/altera/13.0sp1/nios2eds/bin/gnu/h-i686-mingw32/bin/../lib/gcc/nios2-elf/4.1.2/../../../../nios2-elf/lib\libc.a(lib_a-fputs.o)
 .debug_line    0x0000d1bc      0x5eb d:/altera/13.0sp1/nios2eds/bin/gnu/h-i686-mingw32/bin/../lib/gcc/nios2-elf/4.1.2/../../../../nios2-elf/lib\libc.a(lib_a-freer.o)
 .debug_line    0x0000d7a7      0x641 d:/altera/13.0sp1/nios2eds/bin/gnu/h-i686-mingw32/bin/../lib/gcc/nios2-elf/4.1.2/../../../../nios2-elf/lib\libc.a(lib_a-fvwrite.o)
 .debug_line    0x0000dde8      0x34a d:/altera/13.0sp1/nios2eds/bin/gnu/h-i686-mingw32/bin/../lib/gcc/nios2-elf/4.1.2/../../../../nios2-elf/lib\libc.a(lib_a-fwalk.o)
 .debug_line    0x0000e132      0x2c8 d:/altera/13.0sp1/nios2eds/bin/gnu/h-i686-mingw32/bin/../lib/gcc/nios2-elf/4.1.2/../../../../nios2-elf/lib\libc.a(lib_a-locale.o)
 .debug_line    0x0000e3fa      0x3c3 d:/altera/13.0sp1/nios2eds/bin/gnu/h-i686-mingw32/bin/../lib/gcc/nios2-elf/4.1.2/../../../../nios2-elf/lib\libc.a(lib_a-makebuf.o)
 .debug_line    0x0000e7bd      0x80a d:/altera/13.0sp1/nios2eds/bin/gnu/h-i686-mingw32/bin/../lib/gcc/nios2-elf/4.1.2/../../../../nios2-elf/lib\libc.a(lib_a-mallocr.o)
 .debug_line    0x0000efc7      0x303 d:/altera/13.0sp1/nios2eds/bin/gnu/h-i686-mingw32/bin/../lib/gcc/nios2-elf/4.1.2/../../../../nios2-elf/lib\libc.a(lib_a-memchr.o)
 .debug_line    0x0000f2ca     0x1243 d:/altera/13.0sp1/nios2eds/bin/gnu/h-i686-mingw32/bin/../lib/gcc/nios2-elf/4.1.2/../../../../nios2-elf/lib\libc.a(lib_a-mprec.o)
 .debug_line    0x0001050d      0x58a d:/altera/13.0sp1/nios2eds/bin/gnu/h-i686-mingw32/bin/../lib/gcc/nios2-elf/4.1.2/../../../../nios2-elf/lib\libc.a(lib_a-reallocr.o)
 .debug_line    0x00010a97      0x3c4 d:/altera/13.0sp1/nios2eds/bin/gnu/h-i686-mingw32/bin/../lib/gcc/nios2-elf/4.1.2/../../../../nios2-elf/lib\libc.a(lib_a-refill.o)
 .debug_line    0x00010e5b      0x222 d:/altera/13.0sp1/nios2eds/bin/gnu/h-i686-mingw32/bin/../lib/gcc/nios2-elf/4.1.2/../../../../nios2-elf/lib\libc.a(lib_a-s_isinfd.o)
 .debug_line    0x0001107d      0x21a d:/altera/13.0sp1/nios2eds/bin/gnu/h-i686-mingw32/bin/../lib/gcc/nios2-elf/4.1.2/../../../../nios2-elf/lib\libc.a(lib_a-s_isnand.o)
 .debug_line    0x00011297      0x299 d:/altera/13.0sp1/nios2eds/bin/gnu/h-i686-mingw32/bin/../lib/gcc/nios2-elf/4.1.2/../../../../nios2-elf/lib\libc.a(lib_a-sbrkr.o)
 .debug_line    0x00011530      0x38c d:/altera/13.0sp1/nios2eds/bin/gnu/h-i686-mingw32/bin/../lib/gcc/nios2-elf/4.1.2/../../../../nios2-elf/lib\libc.a(lib_a-stdio.o)
 .debug_line    0x000118bc      0x29a d:/altera/13.0sp1/nios2eds/bin/gnu/h-i686-mingw32/bin/../lib/gcc/nios2-elf/4.1.2/../../../../nios2-elf/lib\libc.a(lib_a-writer.o)
 .debug_line    0x00011b56      0x25c d:/altera/13.0sp1/nios2eds/bin/gnu/h-i686-mingw32/bin/../lib/gcc/nios2-elf/4.1.2/../../../../nios2-elf/lib\libc.a(lib_a-callocr.o)
 .debug_line    0x00011db2      0x29a d:/altera/13.0sp1/nios2eds/bin/gnu/h-i686-mingw32/bin/../lib/gcc/nios2-elf/4.1.2/../../../../nios2-elf/lib\libc.a(lib_a-closer.o)
 .debug_line    0x0001204c      0x2e8 d:/altera/13.0sp1/nios2eds/bin/gnu/h-i686-mingw32/bin/../lib/gcc/nios2-elf/4.1.2/../../../../nios2-elf/lib\libc.a(lib_a-fclose.o)
 .debug_line    0x00012334      0x264 d:/altera/13.0sp1/nios2eds/bin/gnu/h-i686-mingw32/bin/../lib/gcc/nios2-elf/4.1.2/../../../../nios2-elf/lib\libc.a(lib_a-fstatr.o)
 .debug_line    0x00012598      0x1df d:/altera/13.0sp1/nios2eds/bin/gnu/h-i686-mingw32/bin/../lib/gcc/nios2-elf/4.1.2/../../../../nios2-elf/lib\libc.a(lib_a-int_errno.o)
 .debug_line    0x00012777      0x29b d:/altera/13.0sp1/nios2eds/bin/gnu/h-i686-mingw32/bin/../lib/gcc/nios2-elf/4.1.2/../../../../nios2-elf/lib\libc.a(lib_a-isattyr.o)
 .debug_line    0x00012a12      0x29a d:/altera/13.0sp1/nios2eds/bin/gnu/h-i686-mingw32/bin/../lib/gcc/nios2-elf/4.1.2/../../../../nios2-elf/lib\libc.a(lib_a-lseekr.o)
 .debug_line    0x00012cac      0x299 d:/altera/13.0sp1/nios2eds/bin/gnu/h-i686-mingw32/bin/../lib/gcc/nios2-elf/4.1.2/../../../../nios2-elf/lib\libc.a(lib_a-readr.o)
 .debug_line    0x00012f45      0x2f2 d:/altera/13.0sp1/nios2eds/bin/gnu/h-i686-mingw32/bin/../lib/gcc/nios2-elf/4.1.2\libgcc.a(_udivdi3.o)
 .debug_line    0x00013237      0x37d d:/altera/13.0sp1/nios2eds/bin/gnu/h-i686-mingw32/bin/../lib/gcc/nios2-elf/4.1.2\libgcc.a(_umoddi3.o)
 .debug_line    0x000135b4      0x301 d:/altera/13.0sp1/nios2eds/bin/gnu/h-i686-mingw32/bin/../lib/gcc/nios2-elf/4.1.2\libgcc.a(_div_df.o)
 .debug_line    0x000138b5      0x129 d:/altera/13.0sp1/nios2eds/bin/gnu/h-i686-mingw32/bin/../lib/gcc/nios2-elf/4.1.2\libgcc.a(_eq_df.o)
 .debug_line    0x000139de      0x129 d:/altera/13.0sp1/nios2eds/bin/gnu/h-i686-mingw32/bin/../lib/gcc/nios2-elf/4.1.2\libgcc.a(_ne_df.o)
 .debug_line    0x00013b07      0x129 d:/altera/13.0sp1/nios2eds/bin/gnu/h-i686-mingw32/bin/../lib/gcc/nios2-elf/4.1.2\libgcc.a(_gt_df.o)
 .debug_line    0x00013c30      0x129 d:/altera/13.0sp1/nios2eds/bin/gnu/h-i686-mingw32/bin/../lib/gcc/nios2-elf/4.1.2\libgcc.a(_lt_df.o)
 .debug_line    0x00013d59      0x175 d:/altera/13.0sp1/nios2eds/bin/gnu/h-i686-mingw32/bin/../lib/gcc/nios2-elf/4.1.2\libgcc.a(_si_to_df.o)
 .debug_line    0x00013ece      0x24f d:/altera/13.0sp1/nios2eds/bin/gnu/h-i686-mingw32/bin/../lib/gcc/nios2-elf/4.1.2\libgcc.a(lib2-divmod.o)
 .debug_line    0x0001411d      0x276 ../projeto_final_bsp/\libucosii_bsp.a(alt_exit.o)
 .debug_line    0x00014393      0x2c8 ../projeto_final_bsp/\libucosii_bsp.a(alt_flash_dev.o)
 .debug_line    0x0001465b      0x301 ../projeto_final_bsp/\libucosii_bsp.a(alt_fstat.o)
 .debug_line    0x0001495c      0x36d ../projeto_final_bsp/\libucosii_bsp.a(alt_irq_register.o)
 .debug_line    0x00014cc9       0x72 ../projeto_final_bsp/\libucosii_bsp.a(alt_irq_vars.o)
 .debug_line    0x00014d3b      0x302 ../projeto_final_bsp/\libucosii_bsp.a(alt_isatty.o)
 .debug_line    0x0001503d      0x301 ../projeto_final_bsp/\libucosii_bsp.a(alt_lseek.o)
 .debug_line    0x0001533e      0x349 ../projeto_final_bsp/\libucosii_bsp.a(alt_main.o)
 .debug_line    0x00015687      0x261 ../projeto_final_bsp/\libucosii_bsp.a(alt_sbrk.o)
 .debug_line    0x000158e8      0x2ad ../projeto_final_bsp/\libucosii_bsp.a(alt_usleep.o)
 .debug_line    0x00015b95      0x2bf ../projeto_final_bsp/\libucosii_bsp.a(alt_env_lock.o)
 .debug_line    0x00015e54      0x37b ../projeto_final_bsp/\libucosii_bsp.a(alt_malloc_lock.o)
 .debug_line    0x000161cf     0x1663 ../projeto_final_bsp/\libucosii_bsp.a(os_core.o)
 .debug_line    0x00017832      0x388 ../projeto_final_bsp/\libucosii_bsp.a(os_dbg.o)
 .debug_line    0x00017bba     0x11e7 ../projeto_final_bsp/\libucosii_bsp.a(os_flag.o)
 .debug_line    0x00018da1      0x78a ../projeto_final_bsp/\libucosii_bsp.a(os_mem.o)
 .debug_line    0x0001952b      0xe6b ../projeto_final_bsp/\libucosii_bsp.a(os_q.o)
 .debug_line    0x0001a396      0xa23 ../projeto_final_bsp/\libucosii_bsp.a(os_sem.o)
 .debug_line    0x0001adb9     0x112c ../projeto_final_bsp/\libucosii_bsp.a(os_task.o)
 .debug_line    0x0001bee5      0x52f ../projeto_final_bsp/\libucosii_bsp.a(os_time.o)
 .debug_line    0x0001c414      0x404 ../projeto_final_bsp/\libucosii_bsp.a(alt_sys_init.o)
 .debug_line    0x0001c818      0x573 ../projeto_final_bsp/\libucosii_bsp.a(altera_avalon_cfi_flash.o)
 .debug_line    0x0001cd8b      0x979 ../projeto_final_bsp/\libucosii_bsp.a(altera_avalon_cfi_flash_table.o)
 .debug_line    0x0001d704      0x6ef ../projeto_final_bsp/\libucosii_bsp.a(altera_avalon_epcs_flash_controller.o)
 .debug_line    0x0001ddf3      0x319 ../projeto_final_bsp/\libucosii_bsp.a(altera_avalon_jtag_uart_fd.o)
 .debug_line    0x0001e10c      0x598 ../projeto_final_bsp/\libucosii_bsp.a(altera_avalon_jtag_uart_init.o)
 .debug_line    0x0001e6a4      0x356 ../projeto_final_bsp/\libucosii_bsp.a(altera_avalon_jtag_uart_ioctl.o)
 .debug_line    0x0001e9fa      0x494 ../projeto_final_bsp/\libucosii_bsp.a(altera_avalon_jtag_uart_read.o)
 .debug_line    0x0001ee8e      0x4a2 ../projeto_final_bsp/\libucosii_bsp.a(altera_avalon_jtag_uart_write.o)
 .debug_line    0x0001f330      0x940 ../projeto_final_bsp/\libucosii_bsp.a(altera_avalon_lcd_16207.o)
 .debug_line    0x0001fc70      0x2b9 ../projeto_final_bsp/\libucosii_bsp.a(altera_avalon_lcd_16207_fd.o)
 .debug_line    0x0001ff29      0x2b3 ../projeto_final_bsp/\libucosii_bsp.a(altera_avalon_timer_sc.o)
 .debug_line    0x000201dc      0x2f7 ../projeto_final_bsp/\libucosii_bsp.a(altera_avalon_uart_fd.o)
 .debug_line    0x000204d3      0x567 ../projeto_final_bsp/\libucosii_bsp.a(altera_avalon_uart_init.o)
 .debug_line    0x00020a3a      0x4b3 ../projeto_final_bsp/\libucosii_bsp.a(altera_avalon_uart_read.o)
 .debug_line    0x00020eed      0x495 ../projeto_final_bsp/\libucosii_bsp.a(altera_avalon_uart_write.o)
 .debug_line    0x00021382      0x408 ../projeto_final_bsp/\libucosii_bsp.a(epcs_commands.o)
 .debug_line    0x0002178a      0x347 ../projeto_final_bsp/\libucosii_bsp.a(alt_iniche_close.o)
 .debug_line    0x00021ad1      0x3ea ../projeto_final_bsp/\libucosii_bsp.a(alt_iniche_dev.o)
 .debug_line    0x00021ebb      0x346 ../projeto_final_bsp/\libucosii_bsp.a(alt_iniche_read.o)
 .debug_line    0x00022201      0x357 ../projeto_final_bsp/\libucosii_bsp.a(alt_iniche_write.o)
 .debug_line    0x00022558      0x7a6 ../projeto_final_bsp/\libucosii_bsp.a(ipnet.o)
 .debug_line    0x00022cfe      0x4e7 ../projeto_final_bsp/\libucosii_bsp.a(ipstart.o)
 .debug_line    0x000231e5      0x91c ../projeto_final_bsp/\libucosii_bsp.a(igmp_cmn.o)
 .debug_line    0x00023b01      0x6c7 ../projeto_final_bsp/\libucosii_bsp.a(bsdsock.o)
 .debug_line    0x000241c8      0x30a ../projeto_final_bsp/\libucosii_bsp.a(cksum.o)
 .debug_line    0x000244d2      0x7a9 ../projeto_final_bsp/\libucosii_bsp.a(in_utils.o)
 .debug_line    0x00024c7b      0x43f ../projeto_final_bsp/\libucosii_bsp.a(netmain.o)
 .debug_line    0x000250ba      0x64d ../projeto_final_bsp/\libucosii_bsp.a(parseip.o)
 .debug_line    0x00025707      0x5a8 ../projeto_final_bsp/\libucosii_bsp.a(tk_crnos.o)
 .debug_line    0x00025caf     0x1069 ../projeto_final_bsp/\libucosii_bsp.a(dhcpclnt.o)
 .debug_line    0x00026d18      0x2ff ../projeto_final_bsp/\libucosii_bsp.a(dhcputil.o)
 .debug_line    0x00027017      0x649 ../projeto_final_bsp/\libucosii_bsp.a(pktalloc.o)
 .debug_line    0x00027660      0x3db ../projeto_final_bsp/\libucosii_bsp.a(q.o)
 .debug_line    0x00027a3b      0x46e ../projeto_final_bsp/\libucosii_bsp.a(udp_open.o)
 .debug_line    0x00027ea9       0xaf ../projeto_final_bsp/\libucosii_bsp.a(asm_cksum.o)
 .debug_line    0x00027f58      0x472 ../projeto_final_bsp/\libucosii_bsp.a(brdutils.o)
 .debug_line    0x000283ca      0x4ff ../projeto_final_bsp/\libucosii_bsp.a(osportco.o)
 .debug_line    0x000288c9      0x63e ../projeto_final_bsp/\libucosii_bsp.a(targnios.o)
 .debug_line    0x00028f07      0xf23 ../projeto_final_bsp/\libucosii_bsp.a(nptcp.o)
 .debug_line    0x00029e2a      0x848 ../projeto_final_bsp/\libucosii_bsp.a(rawsock.o)
 .debug_line    0x0002a672      0xe36 ../projeto_final_bsp/\libucosii_bsp.a(sockcall.o)
 .debug_line    0x0002b4a8     0x12b8 ../projeto_final_bsp/\libucosii_bsp.a(socket.o)
 .debug_line    0x0002c760      0xbec ../projeto_final_bsp/\libucosii_bsp.a(socket2.o)
 .debug_line    0x0002d34c      0x72d ../projeto_final_bsp/\libucosii_bsp.a(soselect.o)
 .debug_line    0x0002da79     0x15ee ../projeto_final_bsp/\libucosii_bsp.a(tcp_in.o)
 .debug_line    0x0002f067      0xa59 ../projeto_final_bsp/\libucosii_bsp.a(tcp_out.o)
 .debug_line    0x0002fac0      0x7c3 ../projeto_final_bsp/\libucosii_bsp.a(tcp_subr.o)
 .debug_line    0x00030283      0x613 ../projeto_final_bsp/\libucosii_bsp.a(tcp_timr.o)
 .debug_line    0x00030896      0x8a2 ../projeto_final_bsp/\libucosii_bsp.a(tcp_usr.o)
 .debug_line    0x00031138      0x33f ../projeto_final_bsp/\libucosii_bsp.a(tcpport.o)
 .debug_line    0x00031477      0x959 ../projeto_final_bsp/\libucosii_bsp.a(udpsock.o)
 .debug_line    0x00031dd0      0x2dc ../projeto_final_bsp/\libucosii_bsp.a(alt_alarm_start.o)
 .debug_line    0x000320ac      0x25c ../projeto_final_bsp/\libucosii_bsp.a(alt_busy_sleep.o)
 .debug_line    0x00032308      0x2f9 ../projeto_final_bsp/\libucosii_bsp.a(alt_close.o)
 .debug_line    0x00032601      0x1e1 ../projeto_final_bsp/\libucosii_bsp.a(alt_dcache_flush.o)
 .debug_line    0x000327e2      0x2ba ../projeto_final_bsp/\libucosii_bsp.a(alt_dev.o)
 .debug_line    0x00032a9c      0x25a ../projeto_final_bsp/\libucosii_bsp.a(alt_dev_llist_insert.o)
 .debug_line    0x00032cf6       0x83 ../projeto_final_bsp/\libucosii_bsp.a(alt_do_ctors.o)
 .debug_line    0x00032d79       0x83 ../projeto_final_bsp/\libucosii_bsp.a(alt_do_dtors.o)
 .debug_line    0x00032dfc      0x1aa ../projeto_final_bsp/\libucosii_bsp.a(alt_errno.o)
 .debug_line    0x00032fa6      0x2da ../projeto_final_bsp/\libucosii_bsp.a(alt_find_dev.o)
 .debug_line    0x00033280      0x2c8 ../projeto_final_bsp/\libucosii_bsp.a(alt_iic.o)
 .debug_line    0x00033548      0x249 ../projeto_final_bsp/\libucosii_bsp.a(alt_iic_isr_register.o)
 .debug_line    0x00033791      0x323 ../projeto_final_bsp/\libucosii_bsp.a(alt_io_redirect.o)
 .debug_line    0x00033ab4       0x6b ../projeto_final_bsp/\libucosii_bsp.a(alt_irq_entry.o)
 .debug_line    0x00033b1f      0x2c4 ../projeto_final_bsp/\libucosii_bsp.a(alt_irq_handler.o)
 .debug_line    0x00033de3      0x35f ../projeto_final_bsp/\libucosii_bsp.a(alt_open.o)
 .debug_line    0x00034142      0x328 ../projeto_final_bsp/\libucosii_bsp.a(alt_read.o)
 .debug_line    0x0003446a      0x279 ../projeto_final_bsp/\libucosii_bsp.a(alt_release_fd.o)
 .debug_line    0x000346e3      0x1b9 ../projeto_final_bsp/\libucosii_bsp.a(alt_remap_cached.o)
 .debug_line    0x0003489c      0x1c3 ../projeto_final_bsp/\libucosii_bsp.a(alt_remap_uncached.o)
 .debug_line    0x00034a5f      0x316 ../projeto_final_bsp/\libucosii_bsp.a(alt_tick.o)
 .debug_line    0x00034d75      0x329 ../projeto_final_bsp/\libucosii_bsp.a(alt_write.o)
 .debug_line    0x0003509e      0x1ce ../projeto_final_bsp/\libucosii_bsp.a(altera_nios2_qsys_irq.o)
 .debug_line    0x0003526c       0x86 ../projeto_final_bsp/\libucosii_bsp.a(os_cpu_a.o)
 .debug_line    0x000352f2      0x330 ../projeto_final_bsp/\libucosii_bsp.a(os_cpu_c.o)
 .debug_line    0x00035622      0x445 ../projeto_final_bsp/\libucosii_bsp.a(altera_avalon_cfi_flash_amd.o)
 .debug_line    0x00035a67      0x437 ../projeto_final_bsp/\libucosii_bsp.a(altera_avalon_cfi_flash_intel.o)
 .debug_line    0x00035e9e      0x1f2 ../projeto_final_bsp/\libucosii_bsp.a(altera_avalon_spi.o)
 .debug_line    0x00036090      0x51f ../projeto_final_bsp/\libucosii_bsp.a(allports.o)
 .debug_line    0x000365af      0x483 ../projeto_final_bsp/\libucosii_bsp.a(timeouts.o)
 .debug_line    0x00036a32      0x370 ../projeto_final_bsp/\libucosii_bsp.a(tk_misc.o)
 .debug_line    0x00036da2      0x38f ../projeto_final_bsp/\libucosii_bsp.a(alt_iniche_fcntl.o)
 .debug_line    0x00037131      0xca2 ../projeto_final_bsp/\libucosii_bsp.a(et_arp.o)
 .debug_line    0x00037dd3      0x479 ../projeto_final_bsp/\libucosii_bsp.a(iface.o)
 .debug_line    0x0003824c      0xf95 ../projeto_final_bsp/\libucosii_bsp.a(ip.o)
 .debug_line    0x000391e1      0xf7c ../projeto_final_bsp/\libucosii_bsp.a(ip_reasm.o)
 .debug_line    0x0003a15d      0x786 ../projeto_final_bsp/\libucosii_bsp.a(ipdemux.o)
 .debug_line    0x0003a8e3      0x468 ../projeto_final_bsp/\libucosii_bsp.a(ipmc.o)
 .debug_line    0x0003ad4b      0x338 ../projeto_final_bsp/\libucosii_bsp.a(ipport.o)
 .debug_line    0x0003b083      0x5b9 ../projeto_final_bsp/\libucosii_bsp.a(ipraw.o)
 .debug_line    0x0003b63c      0x5bb ../projeto_final_bsp/\libucosii_bsp.a(iproute.o)
 .debug_line    0x0003bbf7      0x7f6 ../projeto_final_bsp/\libucosii_bsp.a(udp.o)
 .debug_line    0x0003c3ed      0x43a ../projeto_final_bsp/\libucosii_bsp.a(igmp.o)
 .debug_line    0x0003c827      0x62d ../projeto_final_bsp/\libucosii_bsp.a(igmp2.o)
 .debug_line    0x0003ce54      0x711 ../projeto_final_bsp/\libucosii_bsp.a(ipopt.o)
 .debug_line    0x0003d565      0x43f ../projeto_final_bsp/\libucosii_bsp.a(dhcsetup.o)
 .debug_line    0x0003d9a4      0x449 ../projeto_final_bsp/\libucosii_bsp.a(memdev.o)
 .debug_line    0x0003dded      0x3b9 ../projeto_final_bsp/\libucosii_bsp.a(tcpcksum.o)
 .debug_line    0x0003e1a6      0x76d ../projeto_final_bsp/\libucosii_bsp.a(in_pcb.o)
 .debug_line    0x0003e913      0xff7 ../projeto_final_bsp/\libucosii_bsp.a(vfsfiles.o)
 .debug_line    0x0003f90a      0x2c4 ../projeto_final_bsp/\libucosii_bsp.a(vfsport.o)
 .debug_line    0x0003fbce       0xab ../projeto_final_bsp/\libucosii_bsp.a(alt_exception_entry.o)
 .debug_line    0x0003fc79      0x358 ../projeto_final_bsp/\libucosii_bsp.a(alt_fcntl.o)
 .debug_line    0x0003ffd1      0x2eb ../projeto_final_bsp/\libucosii_bsp.a(alt_find_file.o)
 .debug_line    0x000402bc      0x31b ../projeto_final_bsp/\libucosii_bsp.a(alt_get_fd.o)
 .debug_line    0x000405d7      0x958 ../projeto_final_bsp/\libucosii_bsp.a(icmp.o)
 .debug_line    0x00040f2f      0x200 d:/altera/13.0sp1/nios2eds/bin/gnu/h-i686-mingw32/bin/../lib/gcc/nios2-elf/4.1.2/../../../../nios2-elf/lib\libc.a(lib_a-atexit.o)
 .debug_line    0x0004112f      0x20c d:/altera/13.0sp1/nios2eds/bin/gnu/h-i686-mingw32/bin/../lib/gcc/nios2-elf/4.1.2/../../../../nios2-elf/lib\libc.a(lib_a-calloc.o)
 .debug_line    0x0004133b      0x24b d:/altera/13.0sp1/nios2eds/bin/gnu/h-i686-mingw32/bin/../lib/gcc/nios2-elf/4.1.2/../../../../nios2-elf/lib\libc.a(lib_a-malloc.o)
 .debug_line    0x00041586      0x29f d:/altera/13.0sp1/nios2eds/bin/gnu/h-i686-mingw32/bin/../lib/gcc/nios2-elf/4.1.2/../../../../nios2-elf/lib\libc.a(lib_a-memcmp.o)
 .debug_line    0x00041825      0x287 d:/altera/13.0sp1/nios2eds/bin/gnu/h-i686-mingw32/bin/../lib/gcc/nios2-elf/4.1.2/../../../../nios2-elf/lib\libc.a(lib_a-strcpy.o)
 .debug_line    0x00041aac      0x2fe d:/altera/13.0sp1/nios2eds/bin/gnu/h-i686-mingw32/bin/../lib/gcc/nios2-elf/4.1.2/../../../../nios2-elf/lib\libc.a(lib_a-strncmp.o)
 .debug_line    0x00041daa      0x2d0 d:/altera/13.0sp1/nios2eds/bin/gnu/h-i686-mingw32/bin/../lib/gcc/nios2-elf/4.1.2/../../../../nios2-elf/lib\libc.a(lib_a-strncpy.o)
 .debug_line    0x0004207a      0x26f d:/altera/13.0sp1/nios2eds/bin/gnu/h-i686-mingw32/bin/../lib/gcc/nios2-elf/4.1.2/../../../../nios2-elf/lib\libc.a(lib_a-vprintf.o)
 .debug_line    0x000422e9      0x2d9 d:/altera/13.0sp1/nios2eds/bin/gnu/h-i686-mingw32/bin/../lib/gcc/nios2-elf/4.1.2/../../../../nios2-elf/lib\libc.a(lib_a-vsprintf.o)
 .debug_line    0x000425c2      0x313 d:/altera/13.0sp1/nios2eds/bin/gnu/h-i686-mingw32/bin/../lib/gcc/nios2-elf/4.1.2/../../../../nios2-elf/lib\libc.a(lib_a-__atexit.o)

.debug_frame    0x00000000     0x67e4
 *(.debug_frame)
 .debug_frame   0x00000000       0xbc obj/default/LCD.o
 .debug_frame   0x000000bc       0x48 obj/default/SSS_DE2_115.o
 .debug_frame   0x00000104       0x64 obj/default/alt_error_handler.o
 .debug_frame   0x00000168      0x19c obj/default/dm9000a.o
 .debug_frame   0x00000304       0x88 obj/default/iniche_init.o
 .debug_frame   0x0000038c       0x64 obj/default/led.o
 .debug_frame   0x000003f0       0xbc obj/default/network_utilities.o
 .debug_frame   0x000004ac       0xfc obj/default/simple_socket_server.o
 .debug_frame   0x000005a8       0x30 d:/altera/13.0sp1/nios2eds/bin/gnu/h-i686-mingw32/bin/../lib/gcc/nios2-elf/4.1.2\libgcc.a(_fixunsdfsi.o)
 .debug_frame   0x000005d8       0x70 d:/altera/13.0sp1/nios2eds/bin/gnu/h-i686-mingw32/bin/../lib/gcc/nios2-elf/4.1.2\libgcc.a(_addsub_df.o)
 .debug_frame   0x00000648       0x3c d:/altera/13.0sp1/nios2eds/bin/gnu/h-i686-mingw32/bin/../lib/gcc/nios2-elf/4.1.2\libgcc.a(_mul_df.o)
 .debug_frame   0x00000684       0x2c d:/altera/13.0sp1/nios2eds/bin/gnu/h-i686-mingw32/bin/../lib/gcc/nios2-elf/4.1.2\libgcc.a(_ge_df.o)
 .debug_frame   0x000006b0       0x28 d:/altera/13.0sp1/nios2eds/bin/gnu/h-i686-mingw32/bin/../lib/gcc/nios2-elf/4.1.2\libgcc.a(_df_to_si.o)
 .debug_frame   0x000006d8       0x38 d:/altera/13.0sp1/nios2eds/bin/gnu/h-i686-mingw32/bin/../lib/gcc/nios2-elf/4.1.2\libgcc.a(_usi_to_df.o)
 .debug_frame   0x00000710       0x2c d:/altera/13.0sp1/nios2eds/bin/gnu/h-i686-mingw32/bin/../lib/gcc/nios2-elf/4.1.2\libgcc.a(_muldi3.o)
 .debug_frame   0x0000073c       0x20 d:/altera/13.0sp1/nios2eds/bin/gnu/h-i686-mingw32/bin/../lib/gcc/nios2-elf/4.1.2\libgcc.a(_clzsi2.o)
 .debug_frame   0x0000075c       0x2c d:/altera/13.0sp1/nios2eds/bin/gnu/h-i686-mingw32/bin/../lib/gcc/nios2-elf/4.1.2\libgcc.a(_pack_df.o)
 .debug_frame   0x00000788       0x20 d:/altera/13.0sp1/nios2eds/bin/gnu/h-i686-mingw32/bin/../lib/gcc/nios2-elf/4.1.2\libgcc.a(_unpack_df.o)
 .debug_frame   0x000007a8       0x20 d:/altera/13.0sp1/nios2eds/bin/gnu/h-i686-mingw32/bin/../lib/gcc/nios2-elf/4.1.2\libgcc.a(_fpcmp_parts_df.o)
 .debug_frame   0x000007c8       0x30 d:/altera/13.0sp1/nios2eds/bin/gnu/h-i686-mingw32/bin/../lib/gcc/nios2-elf/4.1.2/../../../../nios2-elf/lib\libc.a(lib_a-atoi.o)
 .debug_frame   0x000007f8       0x20 d:/altera/13.0sp1/nios2eds/bin/gnu/h-i686-mingw32/bin/../lib/gcc/nios2-elf/4.1.2/../../../../nios2-elf/lib\libc.a(lib_a-errno.o)
 .debug_frame   0x00000818       0x28 d:/altera/13.0sp1/nios2eds/bin/gnu/h-i686-mingw32/bin/../lib/gcc/nios2-elf/4.1.2/../../../../nios2-elf/lib\libc.a(lib_a-exit.o)
 .debug_frame   0x00000840       0x40 d:/altera/13.0sp1/nios2eds/bin/gnu/h-i686-mingw32/bin/../lib/gcc/nios2-elf/4.1.2/../../../../nios2-elf/lib\libc.a(lib_a-fprintf.o)
 .debug_frame   0x00000880       0x48 d:/altera/13.0sp1/nios2eds/bin/gnu/h-i686-mingw32/bin/../lib/gcc/nios2-elf/4.1.2/../../../../nios2-elf/lib\libc.a(lib_a-fwrite.o)
 .debug_frame   0x000008c8       0x48 d:/altera/13.0sp1/nios2eds/bin/gnu/h-i686-mingw32/bin/../lib/gcc/nios2-elf/4.1.2/../../../../nios2-elf/lib\libc.a(lib_a-getc.o)
 .debug_frame   0x00000910       0x20 d:/altera/13.0sp1/nios2eds/bin/gnu/h-i686-mingw32/bin/../lib/gcc/nios2-elf/4.1.2/../../../../nios2-elf/lib\libc.a(lib_a-memcpy.o)
 .debug_frame   0x00000930       0x20 d:/altera/13.0sp1/nios2eds/bin/gnu/h-i686-mingw32/bin/../lib/gcc/nios2-elf/4.1.2/../../../../nios2-elf/lib\libc.a(lib_a-memmove.o)
 .debug_frame   0x00000950       0x20 d:/altera/13.0sp1/nios2eds/bin/gnu/h-i686-mingw32/bin/../lib/gcc/nios2-elf/4.1.2/../../../../nios2-elf/lib\libc.a(lib_a-memset.o)
 .debug_frame   0x00000970       0x38 d:/altera/13.0sp1/nios2eds/bin/gnu/h-i686-mingw32/bin/../lib/gcc/nios2-elf/4.1.2/../../../../nios2-elf/lib\libc.a(lib_a-perror.o)
 .debug_frame   0x000009a8       0x40 d:/altera/13.0sp1/nios2eds/bin/gnu/h-i686-mingw32/bin/../lib/gcc/nios2-elf/4.1.2/../../../../nios2-elf/lib\libc.a(lib_a-printf.o)
 .debug_frame   0x000009e8       0x4c d:/altera/13.0sp1/nios2eds/bin/gnu/h-i686-mingw32/bin/../lib/gcc/nios2-elf/4.1.2/../../../../nios2-elf/lib\libc.a(lib_a-putc.o)
 .debug_frame   0x00000a34       0x30 d:/altera/13.0sp1/nios2eds/bin/gnu/h-i686-mingw32/bin/../lib/gcc/nios2-elf/4.1.2/../../../../nios2-elf/lib\libc.a(lib_a-putchar.o)
 .debug_frame   0x00000a64       0x3c d:/altera/13.0sp1/nios2eds/bin/gnu/h-i686-mingw32/bin/../lib/gcc/nios2-elf/4.1.2/../../../../nios2-elf/lib\libc.a(lib_a-puts.o)
 .debug_frame   0x00000aa0       0x38 d:/altera/13.0sp1/nios2eds/bin/gnu/h-i686-mingw32/bin/../lib/gcc/nios2-elf/4.1.2/../../../../nios2-elf/lib\libc.a(lib_a-rget.o)
 .debug_frame   0x00000ad8       0x48 d:/altera/13.0sp1/nios2eds/bin/gnu/h-i686-mingw32/bin/../lib/gcc/nios2-elf/4.1.2/../../../../nios2-elf/lib\libc.a(lib_a-snprintf.o)
 .debug_frame   0x00000b20       0x40 d:/altera/13.0sp1/nios2eds/bin/gnu/h-i686-mingw32/bin/../lib/gcc/nios2-elf/4.1.2/../../../../nios2-elf/lib\libc.a(lib_a-sprintf.o)
 .debug_frame   0x00000b60       0x20 d:/altera/13.0sp1/nios2eds/bin/gnu/h-i686-mingw32/bin/../lib/gcc/nios2-elf/4.1.2/../../../../nios2-elf/lib\libc.a(lib_a-strchr.o)
 .debug_frame   0x00000b80       0x20 d:/altera/13.0sp1/nios2eds/bin/gnu/h-i686-mingw32/bin/../lib/gcc/nios2-elf/4.1.2/../../../../nios2-elf/lib\libc.a(lib_a-strcmp.o)
 .debug_frame   0x00000ba0       0x28 d:/altera/13.0sp1/nios2eds/bin/gnu/h-i686-mingw32/bin/../lib/gcc/nios2-elf/4.1.2/../../../../nios2-elf/lib\libc.a(lib_a-strerror.o)
 .debug_frame   0x00000bc8       0x20 d:/altera/13.0sp1/nios2eds/bin/gnu/h-i686-mingw32/bin/../lib/gcc/nios2-elf/4.1.2/../../../../nios2-elf/lib\libc.a(lib_a-strlen.o)
 .debug_frame   0x00000be8       0x20 d:/altera/13.0sp1/nios2eds/bin/gnu/h-i686-mingw32/bin/../lib/gcc/nios2-elf/4.1.2/../../../../nios2-elf/lib\libc.a(lib_a-strtok.o)
 .debug_frame   0x00000c08       0x30 d:/altera/13.0sp1/nios2eds/bin/gnu/h-i686-mingw32/bin/../lib/gcc/nios2-elf/4.1.2/../../../../nios2-elf/lib\libc.a(lib_a-strtok_r.o)
 .debug_frame   0x00000c38       0x4c d:/altera/13.0sp1/nios2eds/bin/gnu/h-i686-mingw32/bin/../lib/gcc/nios2-elf/4.1.2/../../../../nios2-elf/lib\libc.a(lib_a-strtol.o)
 .debug_frame   0x00000c84       0x20 d:/altera/13.0sp1/nios2eds/bin/gnu/h-i686-mingw32/bin/../lib/gcc/nios2-elf/4.1.2/../../../../nios2-elf/lib\libc.a(lib_a-u_strerr.o)
 .debug_frame   0x00000ca4       0x64 d:/altera/13.0sp1/nios2eds/bin/gnu/h-i686-mingw32/bin/../lib/gcc/nios2-elf/4.1.2/../../../../nios2-elf/lib\libc.a(lib_a-vfprintf.o)
 .debug_frame   0x00000d08       0x3c d:/altera/13.0sp1/nios2eds/bin/gnu/h-i686-mingw32/bin/../lib/gcc/nios2-elf/4.1.2/../../../../nios2-elf/lib\libc.a(lib_a-wbuf.o)
 .debug_frame   0x00000d44       0x2c d:/altera/13.0sp1/nios2eds/bin/gnu/h-i686-mingw32/bin/../lib/gcc/nios2-elf/4.1.2/../../../../nios2-elf/lib\libc.a(lib_a-wsetup.o)
 .debug_frame   0x00000d70       0x4c d:/altera/13.0sp1/nios2eds/bin/gnu/h-i686-mingw32/bin/../lib/gcc/nios2-elf/4.1.2/../../../../nios2-elf/lib\libc.a(lib_a-__call_atexit.o)
 .debug_frame   0x00000dbc       0x64 d:/altera/13.0sp1/nios2eds/bin/gnu/h-i686-mingw32/bin/../lib/gcc/nios2-elf/4.1.2/../../../../nios2-elf/lib\libc.a(lib_a-dtoa.o)
 .debug_frame   0x00000e20       0x40 d:/altera/13.0sp1/nios2eds/bin/gnu/h-i686-mingw32/bin/../lib/gcc/nios2-elf/4.1.2/../../../../nios2-elf/lib\libc.a(lib_a-fflush.o)
 .debug_frame   0x00000e60      0x118 d:/altera/13.0sp1/nios2eds/bin/gnu/h-i686-mingw32/bin/../lib/gcc/nios2-elf/4.1.2/../../../../nios2-elf/lib\libc.a(lib_a-findfp.o)
 .debug_frame   0x00000f78       0x4c d:/altera/13.0sp1/nios2eds/bin/gnu/h-i686-mingw32/bin/../lib/gcc/nios2-elf/4.1.2/../../../../nios2-elf/lib\libc.a(lib_a-fputc.o)
 .debug_frame   0x00000fc4       0x3c d:/altera/13.0sp1/nios2eds/bin/gnu/h-i686-mingw32/bin/../lib/gcc/nios2-elf/4.1.2/../../../../nios2-elf/lib\libc.a(lib_a-fputs.o)
 .debug_frame   0x00001000       0x4c d:/altera/13.0sp1/nios2eds/bin/gnu/h-i686-mingw32/bin/../lib/gcc/nios2-elf/4.1.2/../../../../nios2-elf/lib\libc.a(lib_a-freer.o)
 .debug_frame   0x0000104c       0x38 d:/altera/13.0sp1/nios2eds/bin/gnu/h-i686-mingw32/bin/../lib/gcc/nios2-elf/4.1.2/../../../../nios2-elf/lib\libc.a(lib_a-fvwrite.o)
 .debug_frame   0x00001084       0x60 d:/altera/13.0sp1/nios2eds/bin/gnu/h-i686-mingw32/bin/../lib/gcc/nios2-elf/4.1.2/../../../../nios2-elf/lib\libc.a(lib_a-fwalk.o)
 .debug_frame   0x000010e4       0x70 d:/altera/13.0sp1/nios2eds/bin/gnu/h-i686-mingw32/bin/../lib/gcc/nios2-elf/4.1.2/../../../../nios2-elf/lib\libc.a(lib_a-locale.o)
 .debug_frame   0x00001154       0x2c d:/altera/13.0sp1/nios2eds/bin/gnu/h-i686-mingw32/bin/../lib/gcc/nios2-elf/4.1.2/../../../../nios2-elf/lib\libc.a(lib_a-makebuf.o)
 .debug_frame   0x00001180       0x38 d:/altera/13.0sp1/nios2eds/bin/gnu/h-i686-mingw32/bin/../lib/gcc/nios2-elf/4.1.2/../../../../nios2-elf/lib\libc.a(lib_a-mallocr.o)
 .debug_frame   0x000011b8       0x20 d:/altera/13.0sp1/nios2eds/bin/gnu/h-i686-mingw32/bin/../lib/gcc/nios2-elf/4.1.2/../../../../nios2-elf/lib\libc.a(lib_a-memchr.o)
 .debug_frame   0x000011d8      0x218 d:/altera/13.0sp1/nios2eds/bin/gnu/h-i686-mingw32/bin/../lib/gcc/nios2-elf/4.1.2/../../../../nios2-elf/lib\libc.a(lib_a-mprec.o)
 .debug_frame   0x000013f0       0x38 d:/altera/13.0sp1/nios2eds/bin/gnu/h-i686-mingw32/bin/../lib/gcc/nios2-elf/4.1.2/../../../../nios2-elf/lib\libc.a(lib_a-reallocr.o)
 .debug_frame   0x00001428       0x3c d:/altera/13.0sp1/nios2eds/bin/gnu/h-i686-mingw32/bin/../lib/gcc/nios2-elf/4.1.2/../../../../nios2-elf/lib\libc.a(lib_a-refill.o)
 .debug_frame   0x00001464       0x20 d:/altera/13.0sp1/nios2eds/bin/gnu/h-i686-mingw32/bin/../lib/gcc/nios2-elf/4.1.2/../../../../nios2-elf/lib\libc.a(lib_a-s_isinfd.o)
 .debug_frame   0x00001484       0x20 d:/altera/13.0sp1/nios2eds/bin/gnu/h-i686-mingw32/bin/../lib/gcc/nios2-elf/4.1.2/../../../../nios2-elf/lib\libc.a(lib_a-s_isnand.o)
 .debug_frame   0x000014a4       0x2c d:/altera/13.0sp1/nios2eds/bin/gnu/h-i686-mingw32/bin/../lib/gcc/nios2-elf/4.1.2/../../../../nios2-elf/lib\libc.a(lib_a-sbrkr.o)
 .debug_frame   0x000014d0       0x78 d:/altera/13.0sp1/nios2eds/bin/gnu/h-i686-mingw32/bin/../lib/gcc/nios2-elf/4.1.2/../../../../nios2-elf/lib\libc.a(lib_a-stdio.o)
 .debug_frame   0x00001548       0x2c d:/altera/13.0sp1/nios2eds/bin/gnu/h-i686-mingw32/bin/../lib/gcc/nios2-elf/4.1.2/../../../../nios2-elf/lib\libc.a(lib_a-writer.o)
 .debug_frame   0x00001574       0x28 d:/altera/13.0sp1/nios2eds/bin/gnu/h-i686-mingw32/bin/../lib/gcc/nios2-elf/4.1.2/../../../../nios2-elf/lib\libc.a(lib_a-callocr.o)
 .debug_frame   0x0000159c       0x2c d:/altera/13.0sp1/nios2eds/bin/gnu/h-i686-mingw32/bin/../lib/gcc/nios2-elf/4.1.2/../../../../nios2-elf/lib\libc.a(lib_a-closer.o)
 .debug_frame   0x000015c8       0x3c d:/altera/13.0sp1/nios2eds/bin/gnu/h-i686-mingw32/bin/../lib/gcc/nios2-elf/4.1.2/../../../../nios2-elf/lib\libc.a(lib_a-fclose.o)
 .debug_frame   0x00001604       0x2c d:/altera/13.0sp1/nios2eds/bin/gnu/h-i686-mingw32/bin/../lib/gcc/nios2-elf/4.1.2/../../../../nios2-elf/lib\libc.a(lib_a-fstatr.o)
 .debug_frame   0x00001630       0x2c d:/altera/13.0sp1/nios2eds/bin/gnu/h-i686-mingw32/bin/../lib/gcc/nios2-elf/4.1.2/../../../../nios2-elf/lib\libc.a(lib_a-isattyr.o)
 .debug_frame   0x0000165c       0x2c d:/altera/13.0sp1/nios2eds/bin/gnu/h-i686-mingw32/bin/../lib/gcc/nios2-elf/4.1.2/../../../../nios2-elf/lib\libc.a(lib_a-lseekr.o)
 .debug_frame   0x00001688       0x2c d:/altera/13.0sp1/nios2eds/bin/gnu/h-i686-mingw32/bin/../lib/gcc/nios2-elf/4.1.2/../../../../nios2-elf/lib\libc.a(lib_a-readr.o)
 .debug_frame   0x000016b4       0x38 d:/altera/13.0sp1/nios2eds/bin/gnu/h-i686-mingw32/bin/../lib/gcc/nios2-elf/4.1.2\libgcc.a(_udivdi3.o)
 .debug_frame   0x000016ec       0x38 d:/altera/13.0sp1/nios2eds/bin/gnu/h-i686-mingw32/bin/../lib/gcc/nios2-elf/4.1.2\libgcc.a(_umoddi3.o)
 .debug_frame   0x00001724       0x30 d:/altera/13.0sp1/nios2eds/bin/gnu/h-i686-mingw32/bin/../lib/gcc/nios2-elf/4.1.2\libgcc.a(_div_df.o)
 .debug_frame   0x00001754       0x2c d:/altera/13.0sp1/nios2eds/bin/gnu/h-i686-mingw32/bin/../lib/gcc/nios2-elf/4.1.2\libgcc.a(_eq_df.o)
 .debug_frame   0x00001780       0x2c d:/altera/13.0sp1/nios2eds/bin/gnu/h-i686-mingw32/bin/../lib/gcc/nios2-elf/4.1.2\libgcc.a(_ne_df.o)
 .debug_frame   0x000017ac       0x2c d:/altera/13.0sp1/nios2eds/bin/gnu/h-i686-mingw32/bin/../lib/gcc/nios2-elf/4.1.2\libgcc.a(_gt_df.o)
 .debug_frame   0x000017d8       0x2c d:/altera/13.0sp1/nios2eds/bin/gnu/h-i686-mingw32/bin/../lib/gcc/nios2-elf/4.1.2\libgcc.a(_lt_df.o)
 .debug_frame   0x00001804       0x30 d:/altera/13.0sp1/nios2eds/bin/gnu/h-i686-mingw32/bin/../lib/gcc/nios2-elf/4.1.2\libgcc.a(_si_to_df.o)
 .debug_frame   0x00001834       0x70 d:/altera/13.0sp1/nios2eds/bin/gnu/h-i686-mingw32/bin/../lib/gcc/nios2-elf/4.1.2\libgcc.a(lib2-divmod.o)
 .debug_frame   0x000018a4       0x48 ../projeto_final_bsp/\libucosii_bsp.a(alt_exit.o)
 .debug_frame   0x000018ec       0x48 ../projeto_final_bsp/\libucosii_bsp.a(alt_flash_dev.o)
 .debug_frame   0x00001934       0x48 ../projeto_final_bsp/\libucosii_bsp.a(alt_fstat.o)
 .debug_frame   0x0000197c       0x2c ../projeto_final_bsp/\libucosii_bsp.a(alt_irq_register.o)
 .debug_frame   0x000019a8       0x48 ../projeto_final_bsp/\libucosii_bsp.a(alt_isatty.o)
 .debug_frame   0x000019f0       0x48 ../projeto_final_bsp/\libucosii_bsp.a(alt_lseek.o)
 .debug_frame   0x00001a38       0x2c ../projeto_final_bsp/\libucosii_bsp.a(alt_main.o)
 .debug_frame   0x00001a64       0x2c ../projeto_final_bsp/\libucosii_bsp.a(alt_sbrk.o)
 .debug_frame   0x00001a90       0x30 ../projeto_final_bsp/\libucosii_bsp.a(alt_usleep.o)
 .debug_frame   0x00001ac0       0x4c ../projeto_final_bsp/\libucosii_bsp.a(alt_env_lock.o)
 .debug_frame   0x00001b0c       0x4c ../projeto_final_bsp/\libucosii_bsp.a(alt_malloc_lock.o)
 .debug_frame   0x00001b58      0x3e4 ../projeto_final_bsp/\libucosii_bsp.a(os_core.o)
 .debug_frame   0x00001f3c       0x2c ../projeto_final_bsp/\libucosii_bsp.a(os_dbg.o)
 .debug_frame   0x00001f68      0x180 ../projeto_final_bsp/\libucosii_bsp.a(os_flag.o)
 .debug_frame   0x000020e8       0xd4 ../projeto_final_bsp/\libucosii_bsp.a(os_mem.o)
 .debug_frame   0x000021bc      0x144 ../projeto_final_bsp/\libucosii_bsp.a(os_q.o)
 .debug_frame   0x00002300       0xf0 ../projeto_final_bsp/\libucosii_bsp.a(os_sem.o)
 .debug_frame   0x000023f0      0x160 ../projeto_final_bsp/\libucosii_bsp.a(os_task.o)
 .debug_frame   0x00002550       0xa0 ../projeto_final_bsp/\libucosii_bsp.a(os_time.o)
 .debug_frame   0x000025f0       0x64 ../projeto_final_bsp/\libucosii_bsp.a(alt_sys_init.o)
 .debug_frame   0x00002654       0xd4 ../projeto_final_bsp/\libucosii_bsp.a(altera_avalon_cfi_flash.o)
 .debug_frame   0x00002728      0x210 ../projeto_final_bsp/\libucosii_bsp.a(altera_avalon_cfi_flash_table.o)
 .debug_frame   0x00002938      0x128 ../projeto_final_bsp/\libucosii_bsp.a(altera_avalon_epcs_flash_controller.o)
 .debug_frame   0x00002a60       0x80 ../projeto_final_bsp/\libucosii_bsp.a(altera_avalon_jtag_uart_fd.o)
 .debug_frame   0x00002ae0       0x80 ../projeto_final_bsp/\libucosii_bsp.a(altera_avalon_jtag_uart_init.o)
 .debug_frame   0x00002b60       0x2c ../projeto_final_bsp/\libucosii_bsp.a(altera_avalon_jtag_uart_ioctl.o)
 .debug_frame   0x00002b8c       0x2c ../projeto_final_bsp/\libucosii_bsp.a(altera_avalon_jtag_uart_read.o)
 .debug_frame   0x00002bb8       0x2c ../projeto_final_bsp/\libucosii_bsp.a(altera_avalon_jtag_uart_write.o)
 .debug_frame   0x00002be4      0x114 ../projeto_final_bsp/\libucosii_bsp.a(altera_avalon_lcd_16207.o)
 .debug_frame   0x00002cf8       0x2c ../projeto_final_bsp/\libucosii_bsp.a(altera_avalon_lcd_16207_fd.o)
 .debug_frame   0x00002d24       0x48 ../projeto_final_bsp/\libucosii_bsp.a(altera_avalon_timer_sc.o)
 .debug_frame   0x00002d6c       0x64 ../projeto_final_bsp/\libucosii_bsp.a(altera_avalon_uart_fd.o)
 .debug_frame   0x00002dd0       0x9c ../projeto_final_bsp/\libucosii_bsp.a(altera_avalon_uart_init.o)
 .debug_frame   0x00002e6c       0x48 ../projeto_final_bsp/\libucosii_bsp.a(altera_avalon_uart_read.o)
 .debug_frame   0x00002eb4       0x48 ../projeto_final_bsp/\libucosii_bsp.a(altera_avalon_uart_write.o)
 .debug_frame   0x00002efc      0x160 ../projeto_final_bsp/\libucosii_bsp.a(epcs_commands.o)
 .debug_frame   0x0000305c       0x2c ../projeto_final_bsp/\libucosii_bsp.a(alt_iniche_close.o)
 .debug_frame   0x00003088       0x2c ../projeto_final_bsp/\libucosii_bsp.a(alt_iniche_dev.o)
 .debug_frame   0x000030b4       0x2c ../projeto_final_bsp/\libucosii_bsp.a(alt_iniche_read.o)
 .debug_frame   0x000030e0       0x2c ../projeto_final_bsp/\libucosii_bsp.a(alt_iniche_write.o)
 .debug_frame   0x0000310c       0xb8 ../projeto_final_bsp/\libucosii_bsp.a(ipnet.o)
 .debug_frame   0x000031c4       0x80 ../projeto_final_bsp/\libucosii_bsp.a(ipstart.o)
 .debug_frame   0x00003244       0xf8 ../projeto_final_bsp/\libucosii_bsp.a(igmp_cmn.o)
 .debug_frame   0x0000333c      0x12c ../projeto_final_bsp/\libucosii_bsp.a(bsdsock.o)
 .debug_frame   0x00003468       0x48 ../projeto_final_bsp/\libucosii_bsp.a(cksum.o)
 .debug_frame   0x000034b0      0x164 ../projeto_final_bsp/\libucosii_bsp.a(in_utils.o)
 .debug_frame   0x00003614       0x64 ../projeto_final_bsp/\libucosii_bsp.a(netmain.o)
 .debug_frame   0x00003678      0x10c ../projeto_final_bsp/\libucosii_bsp.a(parseip.o)
 .debug_frame   0x00003784       0xd4 ../projeto_final_bsp/\libucosii_bsp.a(tk_crnos.o)
 .debug_frame   0x00003858      0x250 ../projeto_final_bsp/\libucosii_bsp.a(dhcpclnt.o)
 .debug_frame   0x00003aa8       0x2c ../projeto_final_bsp/\libucosii_bsp.a(dhcputil.o)
 .debug_frame   0x00003ad4       0xb8 ../projeto_final_bsp/\libucosii_bsp.a(pktalloc.o)
 .debug_frame   0x00003b8c       0x64 ../projeto_final_bsp/\libucosii_bsp.a(q.o)
 .debug_frame   0x00003bf0       0x48 ../projeto_final_bsp/\libucosii_bsp.a(udp_open.o)
 .debug_frame   0x00003c38       0xf0 ../projeto_final_bsp/\libucosii_bsp.a(brdutils.o)
 .debug_frame   0x00003d28       0x9c ../projeto_final_bsp/\libucosii_bsp.a(osportco.o)
 .debug_frame   0x00003dc4      0x110 ../projeto_final_bsp/\libucosii_bsp.a(targnios.o)
 .debug_frame   0x00003ed4      0x208 ../projeto_final_bsp/\libucosii_bsp.a(nptcp.o)
 .debug_frame   0x000040dc       0x68 ../projeto_final_bsp/\libucosii_bsp.a(rawsock.o)
 .debug_frame   0x00004144      0x224 ../projeto_final_bsp/\libucosii_bsp.a(sockcall.o)
 .debug_frame   0x00004368      0x1d4 ../projeto_final_bsp/\libucosii_bsp.a(socket.o)
 .debug_frame   0x0000453c      0x294 ../projeto_final_bsp/\libucosii_bsp.a(socket2.o)
 .debug_frame   0x000047d0      0x110 ../projeto_final_bsp/\libucosii_bsp.a(soselect.o)
 .debug_frame   0x000048e0       0xd8 ../projeto_final_bsp/\libucosii_bsp.a(tcp_in.o)
 .debug_frame   0x000049b8       0x68 ../projeto_final_bsp/\libucosii_bsp.a(tcp_out.o)
 .debug_frame   0x00004a20      0x10c ../projeto_final_bsp/\libucosii_bsp.a(tcp_subr.o)
 .debug_frame   0x00004b2c       0x64 ../projeto_final_bsp/\libucosii_bsp.a(tcp_timr.o)
 .debug_frame   0x00004b90       0x80 ../projeto_final_bsp/\libucosii_bsp.a(tcp_usr.o)
 .debug_frame   0x00004c10       0x2c ../projeto_final_bsp/\libucosii_bsp.a(tcpport.o)
 .debug_frame   0x00004c3c       0xbc ../projeto_final_bsp/\libucosii_bsp.a(udpsock.o)
 .debug_frame   0x00004cf8       0x2c ../projeto_final_bsp/\libucosii_bsp.a(alt_alarm_start.o)
 .debug_frame   0x00004d24       0x2c ../projeto_final_bsp/\libucosii_bsp.a(alt_busy_sleep.o)
 .debug_frame   0x00004d50       0x48 ../projeto_final_bsp/\libucosii_bsp.a(alt_close.o)
 .debug_frame   0x00004d98       0x2c ../projeto_final_bsp/\libucosii_bsp.a(alt_dcache_flush.o)
 .debug_frame   0x00004dc4       0x2c ../projeto_final_bsp/\libucosii_bsp.a(alt_dev.o)
 .debug_frame   0x00004df0       0x48 ../projeto_final_bsp/\libucosii_bsp.a(alt_dev_llist_insert.o)
 .debug_frame   0x00004e38       0x2c ../projeto_final_bsp/\libucosii_bsp.a(alt_do_ctors.o)
 .debug_frame   0x00004e64       0x2c ../projeto_final_bsp/\libucosii_bsp.a(alt_do_dtors.o)
 .debug_frame   0x00004e90       0x2c ../projeto_final_bsp/\libucosii_bsp.a(alt_find_dev.o)
 .debug_frame   0x00004ebc       0x80 ../projeto_final_bsp/\libucosii_bsp.a(alt_iic.o)
 .debug_frame   0x00004f3c       0x2c ../projeto_final_bsp/\libucosii_bsp.a(alt_iic_isr_register.o)
 .debug_frame   0x00004f68       0x48 ../projeto_final_bsp/\libucosii_bsp.a(alt_io_redirect.o)
 .debug_frame   0x00004fb0       0x2c ../projeto_final_bsp/\libucosii_bsp.a(alt_irq_handler.o)
 .debug_frame   0x00004fdc       0x64 ../projeto_final_bsp/\libucosii_bsp.a(alt_open.o)
 .debug_frame   0x00005040       0x48 ../projeto_final_bsp/\libucosii_bsp.a(alt_read.o)
 .debug_frame   0x00005088       0x2c ../projeto_final_bsp/\libucosii_bsp.a(alt_release_fd.o)
 .debug_frame   0x000050b4       0x2c ../projeto_final_bsp/\libucosii_bsp.a(alt_remap_cached.o)
 .debug_frame   0x000050e0       0x2c ../projeto_final_bsp/\libucosii_bsp.a(alt_remap_uncached.o)
 .debug_frame   0x0000510c       0x48 ../projeto_final_bsp/\libucosii_bsp.a(alt_tick.o)
 .debug_frame   0x00005154       0x48 ../projeto_final_bsp/\libucosii_bsp.a(alt_write.o)
 .debug_frame   0x0000519c       0x2c ../projeto_final_bsp/\libucosii_bsp.a(altera_nios2_qsys_irq.o)
 .debug_frame   0x000051c8      0x128 ../projeto_final_bsp/\libucosii_bsp.a(os_cpu_c.o)
 .debug_frame   0x000052f0       0x80 ../projeto_final_bsp/\libucosii_bsp.a(altera_avalon_cfi_flash_amd.o)
 .debug_frame   0x00005370       0x80 ../projeto_final_bsp/\libucosii_bsp.a(altera_avalon_cfi_flash_intel.o)
 .debug_frame   0x000053f0       0x2c ../projeto_final_bsp/\libucosii_bsp.a(altera_avalon_spi.o)
 .debug_frame   0x0000541c       0xe0 ../projeto_final_bsp/\libucosii_bsp.a(allports.o)
 .debug_frame   0x000054fc       0x88 ../projeto_final_bsp/\libucosii_bsp.a(timeouts.o)
 .debug_frame   0x00005584       0x48 ../projeto_final_bsp/\libucosii_bsp.a(tk_misc.o)
 .debug_frame   0x000055cc       0x2c ../projeto_final_bsp/\libucosii_bsp.a(alt_iniche_fcntl.o)
 .debug_frame   0x000055f8      0x160 ../projeto_final_bsp/\libucosii_bsp.a(et_arp.o)
 .debug_frame   0x00005758       0x80 ../projeto_final_bsp/\libucosii_bsp.a(iface.o)
 .debug_frame   0x000057d8      0x160 ../projeto_final_bsp/\libucosii_bsp.a(ip.o)
 .debug_frame   0x00005938      0x1d4 ../projeto_final_bsp/\libucosii_bsp.a(ip_reasm.o)
 .debug_frame   0x00005b0c       0x68 ../projeto_final_bsp/\libucosii_bsp.a(ipdemux.o)
 .debug_frame   0x00005b74       0x64 ../projeto_final_bsp/\libucosii_bsp.a(ipmc.o)
 .debug_frame   0x00005bd8       0x64 ../projeto_final_bsp/\libucosii_bsp.a(ipport.o)
 .debug_frame   0x00005c3c       0xb8 ../projeto_final_bsp/\libucosii_bsp.a(ipraw.o)
 .debug_frame   0x00005cf4       0x64 ../projeto_final_bsp/\libucosii_bsp.a(iproute.o)
 .debug_frame   0x00005d58       0xd4 ../projeto_final_bsp/\libucosii_bsp.a(udp.o)
 .debug_frame   0x00005e2c       0x2c ../projeto_final_bsp/\libucosii_bsp.a(igmp.o)
 .debug_frame   0x00005e58       0x9c ../projeto_final_bsp/\libucosii_bsp.a(igmp2.o)
 .debug_frame   0x00005ef4       0x84 ../projeto_final_bsp/\libucosii_bsp.a(ipopt.o)
 .debug_frame   0x00005f78       0x48 ../projeto_final_bsp/\libucosii_bsp.a(dhcsetup.o)
 .debug_frame   0x00005fc0      0x10c ../projeto_final_bsp/\libucosii_bsp.a(memdev.o)
 .debug_frame   0x000060cc       0x2c ../projeto_final_bsp/\libucosii_bsp.a(tcpcksum.o)
 .debug_frame   0x000060f8       0xf0 ../projeto_final_bsp/\libucosii_bsp.a(in_pcb.o)
 .debug_frame   0x000061e8      0x320 ../projeto_final_bsp/\libucosii_bsp.a(vfsfiles.o)
 .debug_frame   0x00006508       0x2c ../projeto_final_bsp/\libucosii_bsp.a(vfsport.o)
 .debug_frame   0x00006534       0x48 ../projeto_final_bsp/\libucosii_bsp.a(alt_fcntl.o)
 .debug_frame   0x0000657c       0x2c ../projeto_final_bsp/\libucosii_bsp.a(alt_find_file.o)
 .debug_frame   0x000065a8       0x2c ../projeto_final_bsp/\libucosii_bsp.a(alt_get_fd.o)
 .debug_frame   0x000065d4       0x84 ../projeto_final_bsp/\libucosii_bsp.a(icmp.o)
 .debug_frame   0x00006658       0x20 d:/altera/13.0sp1/nios2eds/bin/gnu/h-i686-mingw32/bin/../lib/gcc/nios2-elf/4.1.2/../../../../nios2-elf/lib\libc.a(lib_a-atexit.o)
 .debug_frame   0x00006678       0x20 d:/altera/13.0sp1/nios2eds/bin/gnu/h-i686-mingw32/bin/../lib/gcc/nios2-elf/4.1.2/../../../../nios2-elf/lib\libc.a(lib_a-calloc.o)
 .debug_frame   0x00006698       0x30 d:/altera/13.0sp1/nios2eds/bin/gnu/h-i686-mingw32/bin/../lib/gcc/nios2-elf/4.1.2/../../../../nios2-elf/lib\libc.a(lib_a-malloc.o)
 .debug_frame   0x000066c8       0x20 d:/altera/13.0sp1/nios2eds/bin/gnu/h-i686-mingw32/bin/../lib/gcc/nios2-elf/4.1.2/../../../../nios2-elf/lib\libc.a(lib_a-memcmp.o)
 .debug_frame   0x000066e8       0x20 d:/altera/13.0sp1/nios2eds/bin/gnu/h-i686-mingw32/bin/../lib/gcc/nios2-elf/4.1.2/../../../../nios2-elf/lib\libc.a(lib_a-strcpy.o)
 .debug_frame   0x00006708       0x20 d:/altera/13.0sp1/nios2eds/bin/gnu/h-i686-mingw32/bin/../lib/gcc/nios2-elf/4.1.2/../../../../nios2-elf/lib\libc.a(lib_a-strncmp.o)
 .debug_frame   0x00006728       0x20 d:/altera/13.0sp1/nios2eds/bin/gnu/h-i686-mingw32/bin/../lib/gcc/nios2-elf/4.1.2/../../../../nios2-elf/lib\libc.a(lib_a-strncpy.o)
 .debug_frame   0x00006748       0x30 d:/altera/13.0sp1/nios2eds/bin/gnu/h-i686-mingw32/bin/../lib/gcc/nios2-elf/4.1.2/../../../../nios2-elf/lib\libc.a(lib_a-vprintf.o)
 .debug_frame   0x00006778       0x38 d:/altera/13.0sp1/nios2eds/bin/gnu/h-i686-mingw32/bin/../lib/gcc/nios2-elf/4.1.2/../../../../nios2-elf/lib\libc.a(lib_a-vsprintf.o)
 .debug_frame   0x000067b0       0x34 d:/altera/13.0sp1/nios2eds/bin/gnu/h-i686-mingw32/bin/../lib/gcc/nios2-elf/4.1.2/../../../../nios2-elf/lib\libc.a(lib_a-__atexit.o)

.debug_str      0x00000000     0x37d4
 *(.debug_str)
 .debug_str     0x00000000       0x12 obj/default/LCD.o
 .debug_str     0x00000012       0x3f obj/default/SSS_DE2_115.o
 .debug_str     0x00000051       0x4e obj/default/alt_error_handler.o
 .debug_str     0x0000009f       0x33 obj/default/dm9000a.o
 .debug_str     0x000000d2       0x1d obj/default/iniche_init.o
 .debug_str     0x000000ef       0x2b obj/default/led.o
 .debug_str     0x0000011a       0x52 obj/default/network_utilities.o
 .debug_str     0x0000016c       0x2c obj/default/simple_socket_server.o
 .debug_str     0x00000198      0x125 d:/altera/13.0sp1/nios2eds/bin/gnu/h-i686-mingw32/bin/../lib/gcc/nios2-elf/4.1.2\libgcc.a(_fixunsdfsi.o)
                                0x16b (size before relaxing)
 .debug_str     0x000002bd      0x138 d:/altera/13.0sp1/nios2eds/bin/gnu/h-i686-mingw32/bin/../lib/gcc/nios2-elf/4.1.2\libgcc.a(_addsub_df.o)
                                0x26f (size before relaxing)
 .debug_str     0x000003f5       0x45 d:/altera/13.0sp1/nios2eds/bin/gnu/h-i686-mingw32/bin/../lib/gcc/nios2-elf/4.1.2\libgcc.a(_mul_df.o)
                                0x241 (size before relaxing)
 .debug_str     0x0000043a        0x8 d:/altera/13.0sp1/nios2eds/bin/gnu/h-i686-mingw32/bin/../lib/gcc/nios2-elf/4.1.2\libgcc.a(_ge_df.o)
                                0x1fe (size before relaxing)
 .debug_str     0x00000442        0xa d:/altera/13.0sp1/nios2eds/bin/gnu/h-i686-mingw32/bin/../lib/gcc/nios2-elf/4.1.2\libgcc.a(_df_to_si.o)
                                0x207 (size before relaxing)
 .debug_str     0x00000000      0x1a3 d:/altera/13.0sp1/nios2eds/bin/gnu/h-i686-mingw32/bin/../lib/gcc/nios2-elf/4.1.2\libgcc.a(_thenan_df.o)
 .debug_str     0x0000044c       0x1b d:/altera/13.0sp1/nios2eds/bin/gnu/h-i686-mingw32/bin/../lib/gcc/nios2-elf/4.1.2\libgcc.a(_usi_to_df.o)
                                0x1da (size before relaxing)
 .debug_str     0x00000467       0x42 d:/altera/13.0sp1/nios2eds/bin/gnu/h-i686-mingw32/bin/../lib/gcc/nios2-elf/4.1.2\libgcc.a(_muldi3.o)
                                0x1ac (size before relaxing)
 .debug_str     0x000004a9       0x20 d:/altera/13.0sp1/nios2eds/bin/gnu/h-i686-mingw32/bin/../lib/gcc/nios2-elf/4.1.2\libgcc.a(_clzsi2.o)
                                0x17e (size before relaxing)
 .debug_str     0x000004c9       0x10 d:/altera/13.0sp1/nios2eds/bin/gnu/h-i686-mingw32/bin/../lib/gcc/nios2-elf/4.1.2\libgcc.a(_pack_df.o)
                                0x206 (size before relaxing)
 .debug_str     0x000004d9        0xb d:/altera/13.0sp1/nios2eds/bin/gnu/h-i686-mingw32/bin/../lib/gcc/nios2-elf/4.1.2\libgcc.a(_unpack_df.o)
                                0x1e8 (size before relaxing)
 .debug_str     0x000004e4       0x10 d:/altera/13.0sp1/nios2eds/bin/gnu/h-i686-mingw32/bin/../lib/gcc/nios2-elf/4.1.2\libgcc.a(_fpcmp_parts_df.o)
                                0x1c6 (size before relaxing)
 .debug_str     0x00000000      0x161 d:/altera/13.0sp1/nios2eds/bin/gnu/h-i686-mingw32/bin/../lib/gcc/nios2-elf/4.1.2\libgcc.a(_clz.o)
 .debug_str     0x000004f4      0x42c d:/altera/13.0sp1/nios2eds/bin/gnu/h-i686-mingw32/bin/../lib/gcc/nios2-elf/4.1.2/../../../../nios2-elf/lib\libc.a(lib_a-atoi.o)
                                0x4fc (size before relaxing)
 .debug_str     0x00000920       0xe2 d:/altera/13.0sp1/nios2eds/bin/gnu/h-i686-mingw32/bin/../lib/gcc/nios2-elf/4.1.2/../../../../nios2-elf/lib\libc.a(lib_a-ctype_.o)
                                0x105 (size before relaxing)
 .debug_str     0x00000a02       0xcc d:/altera/13.0sp1/nios2eds/bin/gnu/h-i686-mingw32/bin/../lib/gcc/nios2-elf/4.1.2/../../../../nios2-elf/lib\libc.a(lib_a-errno.o)
                                0x502 (size before relaxing)
 .debug_str     0x00000ace       0x51 d:/altera/13.0sp1/nios2eds/bin/gnu/h-i686-mingw32/bin/../lib/gcc/nios2-elf/4.1.2/../../../../nios2-elf/lib\libc.a(lib_a-exit.o)
                                0x50c (size before relaxing)
 .debug_str     0x00000b1f       0xe8 d:/altera/13.0sp1/nios2eds/bin/gnu/h-i686-mingw32/bin/../lib/gcc/nios2-elf/4.1.2/../../../../nios2-elf/lib\libc.a(lib_a-fprintf.o)
                                0x51f (size before relaxing)
 .debug_str     0x00000c07       0x87 d:/altera/13.0sp1/nios2eds/bin/gnu/h-i686-mingw32/bin/../lib/gcc/nios2-elf/4.1.2/../../../../nios2-elf/lib\libc.a(lib_a-fwrite.o)
                                0x55f (size before relaxing)
 .debug_str     0x00000c8e       0x45 d:/altera/13.0sp1/nios2eds/bin/gnu/h-i686-mingw32/bin/../lib/gcc/nios2-elf/4.1.2/../../../../nios2-elf/lib\libc.a(lib_a-getc.o)
                                0x512 (size before relaxing)
 .debug_str     0x00000cd3       0xd1 d:/altera/13.0sp1/nios2eds/bin/gnu/h-i686-mingw32/bin/../lib/gcc/nios2-elf/4.1.2/../../../../nios2-elf/lib\libc.a(lib_a-impure.o)
                                0x51a (size before relaxing)
 .debug_str     0x00000da4       0xf5 d:/altera/13.0sp1/nios2eds/bin/gnu/h-i686-mingw32/bin/../lib/gcc/nios2-elf/4.1.2/../../../../nios2-elf/lib\libc.a(lib_a-memcpy.o)
                                0x128 (size before relaxing)
 .debug_str     0x00000e99       0x5d d:/altera/13.0sp1/nios2eds/bin/gnu/h-i686-mingw32/bin/../lib/gcc/nios2-elf/4.1.2/../../../../nios2-elf/lib\libc.a(lib_a-memmove.o)
                                0x19d (size before relaxing)
 .debug_str     0x00000ef6       0x56 d:/altera/13.0sp1/nios2eds/bin/gnu/h-i686-mingw32/bin/../lib/gcc/nios2-elf/4.1.2/../../../../nios2-elf/lib\libc.a(lib_a-memset.o)
                                0x17e (size before relaxing)
 .debug_str     0x00000f4c       0x4b d:/altera/13.0sp1/nios2eds/bin/gnu/h-i686-mingw32/bin/../lib/gcc/nios2-elf/4.1.2/../../../../nios2-elf/lib\libc.a(lib_a-perror.o)
                                0x512 (size before relaxing)
 .debug_str     0x00000f97       0x44 d:/altera/13.0sp1/nios2eds/bin/gnu/h-i686-mingw32/bin/../lib/gcc/nios2-elf/4.1.2/../../../../nios2-elf/lib\libc.a(lib_a-printf.o)
                                0x523 (size before relaxing)
 .debug_str     0x00000fdb       0x40 d:/altera/13.0sp1/nios2eds/bin/gnu/h-i686-mingw32/bin/../lib/gcc/nios2-elf/4.1.2/../../../../nios2-elf/lib\libc.a(lib_a-putc.o)
                                0x512 (size before relaxing)
 .debug_str     0x0000101b       0x4e d:/altera/13.0sp1/nios2eds/bin/gnu/h-i686-mingw32/bin/../lib/gcc/nios2-elf/4.1.2/../../../../nios2-elf/lib\libc.a(lib_a-putchar.o)
                                0x50f (size before relaxing)
 .debug_str     0x00001069       0x40 d:/altera/13.0sp1/nios2eds/bin/gnu/h-i686-mingw32/bin/../lib/gcc/nios2-elf/4.1.2/../../../../nios2-elf/lib\libc.a(lib_a-puts.o)
                                0x549 (size before relaxing)
 .debug_str     0x000010a9       0x4a d:/altera/13.0sp1/nios2eds/bin/gnu/h-i686-mingw32/bin/../lib/gcc/nios2-elf/4.1.2/../../../../nios2-elf/lib\libc.a(lib_a-rget.o)
                                0x510 (size before relaxing)
 .debug_str     0x000010f3       0x51 d:/altera/13.0sp1/nios2eds/bin/gnu/h-i686-mingw32/bin/../lib/gcc/nios2-elf/4.1.2/../../../../nios2-elf/lib\libc.a(lib_a-snprintf.o)
                                0x53a (size before relaxing)
 .debug_str     0x00001144       0x46 d:/altera/13.0sp1/nios2eds/bin/gnu/h-i686-mingw32/bin/../lib/gcc/nios2-elf/4.1.2/../../../../nios2-elf/lib\libc.a(lib_a-sprintf.o)
                                0x52b (size before relaxing)
 .debug_str     0x0000118a       0x47 d:/altera/13.0sp1/nios2eds/bin/gnu/h-i686-mingw32/bin/../lib/gcc/nios2-elf/4.1.2/../../../../nios2-elf/lib\libc.a(lib_a-strchr.o)
                                0x175 (size before relaxing)
 .debug_str     0x000011d1       0x42 d:/altera/13.0sp1/nios2eds/bin/gnu/h-i686-mingw32/bin/../lib/gcc/nios2-elf/4.1.2/../../../../nios2-elf/lib\libc.a(lib_a-strcmp.o)
                                0x163 (size before relaxing)
 .debug_str     0x00001213       0x44 d:/altera/13.0sp1/nios2eds/bin/gnu/h-i686-mingw32/bin/../lib/gcc/nios2-elf/4.1.2/../../../../nios2-elf/lib\libc.a(lib_a-strerror.o)
                                0x174 (size before relaxing)
 .debug_str     0x00001257       0x42 d:/altera/13.0sp1/nios2eds/bin/gnu/h-i686-mingw32/bin/../lib/gcc/nios2-elf/4.1.2/../../../../nios2-elf/lib\libc.a(lib_a-strlen.o)
                                0x17d (size before relaxing)
 .debug_str     0x00001299       0x42 d:/altera/13.0sp1/nios2eds/bin/gnu/h-i686-mingw32/bin/../lib/gcc/nios2-elf/4.1.2/../../../../nios2-elf/lib\libc.a(lib_a-strtok.o)
                                0x50a (size before relaxing)
 .debug_str     0x000012db       0x6c d:/altera/13.0sp1/nios2eds/bin/gnu/h-i686-mingw32/bin/../lib/gcc/nios2-elf/4.1.2/../../../../nios2-elf/lib\libc.a(lib_a-strtok_r.o)
                                0x19c (size before relaxing)
 .debug_str     0x00001347       0x66 d:/altera/13.0sp1/nios2eds/bin/gnu/h-i686-mingw32/bin/../lib/gcc/nios2-elf/4.1.2/../../../../nios2-elf/lib\libc.a(lib_a-strtol.o)
                                0x53e (size before relaxing)
 .debug_str     0x000013ad       0x4c d:/altera/13.0sp1/nios2eds/bin/gnu/h-i686-mingw32/bin/../lib/gcc/nios2-elf/4.1.2/../../../../nios2-elf/lib\libc.a(lib_a-u_strerr.o)
                                 0xf0 (size before relaxing)
 .debug_str     0x000013f9      0x173 d:/altera/13.0sp1/nios2eds/bin/gnu/h-i686-mingw32/bin/../lib/gcc/nios2-elf/4.1.2/../../../../nios2-elf/lib\libc.a(lib_a-vfprintf.o)
                                0x6f8 (size before relaxing)
 .debug_str     0x0000156c       0x4a d:/altera/13.0sp1/nios2eds/bin/gnu/h-i686-mingw32/bin/../lib/gcc/nios2-elf/4.1.2/../../../../nios2-elf/lib\libc.a(lib_a-wbuf.o)
                                0x510 (size before relaxing)
 .debug_str     0x000015b6       0x46 d:/altera/13.0sp1/nios2eds/bin/gnu/h-i686-mingw32/bin/../lib/gcc/nios2-elf/4.1.2/../../../../nios2-elf/lib\libc.a(lib_a-wsetup.o)
                                0x50c (size before relaxing)
 .debug_str     0x000015fc       0x7b d:/altera/13.0sp1/nios2eds/bin/gnu/h-i686-mingw32/bin/../lib/gcc/nios2-elf/4.1.2/../../../../nios2-elf/lib\libc.a(lib_a-__call_atexit.o)
                                0x54e (size before relaxing)
 .debug_str     0x00001677      0x102 d:/altera/13.0sp1/nios2eds/bin/gnu/h-i686-mingw32/bin/../lib/gcc/nios2-elf/4.1.2/../../../../nios2-elf/lib\libc.a(lib_a-dtoa.o)
                                0x601 (size before relaxing)
 .debug_str     0x00001779       0x52 d:/altera/13.0sp1/nios2eds/bin/gnu/h-i686-mingw32/bin/../lib/gcc/nios2-elf/4.1.2/../../../../nios2-elf/lib\libc.a(lib_a-fflush.o)
                                0x532 (size before relaxing)
 .debug_str     0x000017cb      0x102 d:/altera/13.0sp1/nios2eds/bin/gnu/h-i686-mingw32/bin/../lib/gcc/nios2-elf/4.1.2/../../../../nios2-elf/lib\libc.a(lib_a-findfp.o)
                                0x5f4 (size before relaxing)
 .debug_str     0x000018cd       0x48 d:/altera/13.0sp1/nios2eds/bin/gnu/h-i686-mingw32/bin/../lib/gcc/nios2-elf/4.1.2/../../../../nios2-elf/lib\libc.a(lib_a-fputc.o)
                                0x51a (size before relaxing)
 .debug_str     0x00001915       0x48 d:/altera/13.0sp1/nios2eds/bin/gnu/h-i686-mingw32/bin/../lib/gcc/nios2-elf/4.1.2/../../../../nios2-elf/lib\libc.a(lib_a-fputs.o)
                                0x558 (size before relaxing)
 .debug_str     0x0000195d      0x15b d:/altera/13.0sp1/nios2eds/bin/gnu/h-i686-mingw32/bin/../lib/gcc/nios2-elf/4.1.2/../../../../nios2-elf/lib\libc.a(lib_a-freer.o)
                                0x643 (size before relaxing)
 .debug_str     0x00001ab8       0x66 d:/altera/13.0sp1/nios2eds/bin/gnu/h-i686-mingw32/bin/../lib/gcc/nios2-elf/4.1.2/../../../../nios2-elf/lib\libc.a(lib_a-fvwrite.o)
                                0x563 (size before relaxing)
 .debug_str     0x00001b1e       0x5e d:/altera/13.0sp1/nios2eds/bin/gnu/h-i686-mingw32/bin/../lib/gcc/nios2-elf/4.1.2/../../../../nios2-elf/lib\libc.a(lib_a-fwalk.o)
                                0x535 (size before relaxing)
 .debug_str     0x00001b7c      0x225 d:/altera/13.0sp1/nios2eds/bin/gnu/h-i686-mingw32/bin/../lib/gcc/nios2-elf/4.1.2/../../../../nios2-elf/lib\libc.a(lib_a-locale.o)
                                0x6a9 (size before relaxing)
 .debug_str     0x00001da1      0x123 d:/altera/13.0sp1/nios2eds/bin/gnu/h-i686-mingw32/bin/../lib/gcc/nios2-elf/4.1.2/../../../../nios2-elf/lib\libc.a(lib_a-makebuf.o)
                                0x606 (size before relaxing)
 .debug_str     0x00001ec4       0xe9 d:/altera/13.0sp1/nios2eds/bin/gnu/h-i686-mingw32/bin/../lib/gcc/nios2-elf/4.1.2/../../../../nios2-elf/lib\libc.a(lib_a-mallocr.o)
                                0x6f1 (size before relaxing)
 .debug_str     0x00001fad       0x47 d:/altera/13.0sp1/nios2eds/bin/gnu/h-i686-mingw32/bin/../lib/gcc/nios2-elf/4.1.2/../../../../nios2-elf/lib\libc.a(lib_a-memchr.o)
                                0x18b (size before relaxing)
 .debug_str     0x00001ff4       0xf8 d:/altera/13.0sp1/nios2eds/bin/gnu/h-i686-mingw32/bin/../lib/gcc/nios2-elf/4.1.2/../../../../nios2-elf/lib\libc.a(lib_a-mprec.o)
                                0x60e (size before relaxing)
 .debug_str     0x000020ec       0x59 d:/altera/13.0sp1/nios2eds/bin/gnu/h-i686-mingw32/bin/../lib/gcc/nios2-elf/4.1.2/../../../../nios2-elf/lib\libc.a(lib_a-reallocr.o)
                                0x5c3 (size before relaxing)
 .debug_str     0x00002145       0x4d d:/altera/13.0sp1/nios2eds/bin/gnu/h-i686-mingw32/bin/../lib/gcc/nios2-elf/4.1.2/../../../../nios2-elf/lib\libc.a(lib_a-refill.o)
                                0x51a (size before relaxing)
 .debug_str     0x00002192       0xdc d:/altera/13.0sp1/nios2eds/bin/gnu/h-i686-mingw32/bin/../lib/gcc/nios2-elf/4.1.2/../../../../nios2-elf/lib\libc.a(lib_a-s_isinfd.o)
                                0x18a (size before relaxing)
 .debug_str     0x0000226e       0x46 d:/altera/13.0sp1/nios2eds/bin/gnu/h-i686-mingw32/bin/../lib/gcc/nios2-elf/4.1.2/../../../../nios2-elf/lib\libc.a(lib_a-s_isnand.o)
                                0x18a (size before relaxing)
 .debug_str     0x000022b4       0x50 d:/altera/13.0sp1/nios2eds/bin/gnu/h-i686-mingw32/bin/../lib/gcc/nios2-elf/4.1.2/../../../../nios2-elf/lib\libc.a(lib_a-sbrkr.o)
                                0x50b (size before relaxing)
 .debug_str     0x00002304       0x62 d:/altera/13.0sp1/nios2eds/bin/gnu/h-i686-mingw32/bin/../lib/gcc/nios2-elf/4.1.2/../../../../nios2-elf/lib\libc.a(lib_a-stdio.o)
                                0x531 (size before relaxing)
 .debug_str     0x00002366       0x4c d:/altera/13.0sp1/nios2eds/bin/gnu/h-i686-mingw32/bin/../lib/gcc/nios2-elf/4.1.2/../../../../nios2-elf/lib\libc.a(lib_a-writer.o)
                                0x50e (size before relaxing)
 .debug_str     0x000023b2       0x19 d:/altera/13.0sp1/nios2eds/bin/gnu/h-i686-mingw32/bin/../lib/gcc/nios2-elf/4.1.2/../../../../nios2-elf/lib\libc.a(lib_a-callocr.o)
                                0x542 (size before relaxing)
 .debug_str     0x000023cb       0x43 d:/altera/13.0sp1/nios2eds/bin/gnu/h-i686-mingw32/bin/../lib/gcc/nios2-elf/4.1.2/../../../../nios2-elf/lib\libc.a(lib_a-closer.o)
                                0x4fe (size before relaxing)
 .debug_str     0x0000240e       0x4b d:/altera/13.0sp1/nios2eds/bin/gnu/h-i686-mingw32/bin/../lib/gcc/nios2-elf/4.1.2/../../../../nios2-elf/lib\libc.a(lib_a-fclose.o)
                                0x516 (size before relaxing)
 .debug_str     0x00002459       0x49 d:/altera/13.0sp1/nios2eds/bin/gnu/h-i686-mingw32/bin/../lib/gcc/nios2-elf/4.1.2/../../../../nios2-elf/lib\libc.a(lib_a-fstatr.o)
                                0x5f1 (size before relaxing)
 .debug_str     0x000024a2       0x3d d:/altera/13.0sp1/nios2eds/bin/gnu/h-i686-mingw32/bin/../lib/gcc/nios2-elf/4.1.2/../../../../nios2-elf/lib\libc.a(lib_a-int_errno.o)
                                0x163 (size before relaxing)
 .debug_str     0x000024df       0x45 d:/altera/13.0sp1/nios2eds/bin/gnu/h-i686-mingw32/bin/../lib/gcc/nios2-elf/4.1.2/../../../../nios2-elf/lib\libc.a(lib_a-isattyr.o)
                                0x500 (size before relaxing)
 .debug_str     0x00002524       0x43 d:/altera/13.0sp1/nios2eds/bin/gnu/h-i686-mingw32/bin/../lib/gcc/nios2-elf/4.1.2/../../../../nios2-elf/lib\libc.a(lib_a-lseekr.o)
                                0x50c (size before relaxing)
 .debug_str     0x00002567       0x41 d:/altera/13.0sp1/nios2eds/bin/gnu/h-i686-mingw32/bin/../lib/gcc/nios2-elf/4.1.2/../../../../nios2-elf/lib\libc.a(lib_a-readr.o)
                                0x50c (size before relaxing)
 .debug_str     0x000025a8       0x35 d:/altera/13.0sp1/nios2eds/bin/gnu/h-i686-mingw32/bin/../lib/gcc/nios2-elf/4.1.2\libgcc.a(_udivdi3.o)
                                0x1f7 (size before relaxing)
 .debug_str     0x000025dd        0xa d:/altera/13.0sp1/nios2eds/bin/gnu/h-i686-mingw32/bin/../lib/gcc/nios2-elf/4.1.2\libgcc.a(_umoddi3.o)
                                0x1f7 (size before relaxing)
 .debug_str     0x000025e7       0x35 d:/altera/13.0sp1/nios2eds/bin/gnu/h-i686-mingw32/bin/../lib/gcc/nios2-elf/4.1.2\libgcc.a(_div_df.o)
                                0x231 (size before relaxing)
 .debug_str     0x0000261c        0x8 d:/altera/13.0sp1/nios2eds/bin/gnu/h-i686-mingw32/bin/../lib/gcc/nios2-elf/4.1.2\libgcc.a(_eq_df.o)
                                0x1fe (size before relaxing)
 .debug_str     0x00002624        0x8 d:/altera/13.0sp1/nios2eds/bin/gnu/h-i686-mingw32/bin/../lib/gcc/nios2-elf/4.1.2\libgcc.a(_ne_df.o)
                                0x1fe (size before relaxing)
 .debug_str     0x0000262c        0x8 d:/altera/13.0sp1/nios2eds/bin/gnu/h-i686-mingw32/bin/../lib/gcc/nios2-elf/4.1.2\libgcc.a(_gt_df.o)
                                0x1fe (size before relaxing)
 .debug_str     0x00002634        0x8 d:/altera/13.0sp1/nios2eds/bin/gnu/h-i686-mingw32/bin/../lib/gcc/nios2-elf/4.1.2\libgcc.a(_lt_df.o)
                                0x1fe (size before relaxing)
 .debug_str     0x0000263c       0x11 d:/altera/13.0sp1/nios2eds/bin/gnu/h-i686-mingw32/bin/../lib/gcc/nios2-elf/4.1.2\libgcc.a(_si_to_df.o)
                                0x1de (size before relaxing)
 .debug_str     0x0000264d       0x76 d:/altera/13.0sp1/nios2eds/bin/gnu/h-i686-mingw32/bin/../lib/gcc/nios2-elf/4.1.2\libgcc.a(lib2-divmod.o)
                                0x1b4 (size before relaxing)
 .debug_str     0x000026c3       0x1c ../projeto_final_bsp/\libucosii_bsp.a(alt_exit.o)
 .debug_str     0x000026df       0x2d ../projeto_final_bsp/\libucosii_bsp.a(alt_flash_dev.o)
 .debug_str     0x0000270c       0x12 ../projeto_final_bsp/\libucosii_bsp.a(alt_fstat.o)
 .debug_str     0x0000271e       0x21 ../projeto_final_bsp/\libucosii_bsp.a(alt_irq_register.o)
 .debug_str     0x0000273f       0x12 ../projeto_final_bsp/\libucosii_bsp.a(alt_isatty.o)
 .debug_str     0x00002751       0x12 ../projeto_final_bsp/\libucosii_bsp.a(alt_lseek.o)
 .debug_str     0x00002763       0x12 ../projeto_final_bsp/\libucosii_bsp.a(alt_main.o)
 .debug_str     0x00002775       0x1a ../projeto_final_bsp/\libucosii_bsp.a(alt_sbrk.o)
 .debug_str     0x0000278f       0x12 ../projeto_final_bsp/\libucosii_bsp.a(alt_usleep.o)
 .debug_str     0x000027a1       0x36 ../projeto_final_bsp/\libucosii_bsp.a(alt_env_lock.o)
 .debug_str     0x000027d7       0x36 ../projeto_final_bsp/\libucosii_bsp.a(alt_malloc_lock.o)
 .debug_str     0x0000280d       0x46 ../projeto_final_bsp/\libucosii_bsp.a(os_core.o)
 .debug_str     0x00002853       0x2b ../projeto_final_bsp/\libucosii_bsp.a(os_dbg.o)
 .debug_str     0x0000287e       0x4e ../projeto_final_bsp/\libucosii_bsp.a(os_flag.o)
 .debug_str     0x000028cc       0x2c ../projeto_final_bsp/\libucosii_bsp.a(os_mem.o)
 .debug_str     0x000028f8       0x36 ../projeto_final_bsp/\libucosii_bsp.a(os_q.o)
 .debug_str     0x0000292e       0x36 ../projeto_final_bsp/\libucosii_bsp.a(os_sem.o)
 .debug_str     0x00002964       0x23 ../projeto_final_bsp/\libucosii_bsp.a(os_task.o)
 .debug_str     0x00002987       0x1f ../projeto_final_bsp/\libucosii_bsp.a(os_time.o)
 .debug_str     0x000029a6       0x67 ../projeto_final_bsp/\libucosii_bsp.a(alt_sys_init.o)
 .debug_str     0x00002a0d       0x82 ../projeto_final_bsp/\libucosii_bsp.a(altera_avalon_cfi_flash.o)
 .debug_str     0x00002a8f       0x6d ../projeto_final_bsp/\libucosii_bsp.a(altera_avalon_cfi_flash_table.o)
 .debug_str     0x00002afc       0x90 ../projeto_final_bsp/\libucosii_bsp.a(altera_avalon_epcs_flash_controller.o)
 .debug_str     0x00002b8c       0x12 ../projeto_final_bsp/\libucosii_bsp.a(altera_avalon_jtag_uart_fd.o)
 .debug_str     0x00002b9e       0x1a ../projeto_final_bsp/\libucosii_bsp.a(altera_avalon_jtag_uart_init.o)
 .debug_str     0x00002bb8       0x12 ../projeto_final_bsp/\libucosii_bsp.a(altera_avalon_jtag_uart_ioctl.o)
 .debug_str     0x00002bca       0x22 ../projeto_final_bsp/\libucosii_bsp.a(altera_avalon_jtag_uart_read.o)
 .debug_str     0x00002bec       0x22 ../projeto_final_bsp/\libucosii_bsp.a(altera_avalon_jtag_uart_write.o)
 .debug_str     0x00002c0e       0x25 ../projeto_final_bsp/\libucosii_bsp.a(altera_avalon_lcd_16207.o)
 .debug_str     0x00002c33       0x12 ../projeto_final_bsp/\libucosii_bsp.a(altera_avalon_lcd_16207_fd.o)
 .debug_str     0x00002c45       0x12 ../projeto_final_bsp/\libucosii_bsp.a(altera_avalon_timer_sc.o)
 .debug_str     0x00002c57       0x12 ../projeto_final_bsp/\libucosii_bsp.a(altera_avalon_uart_fd.o)
 .debug_str     0x00002c69       0x1f ../projeto_final_bsp/\libucosii_bsp.a(altera_avalon_uart_init.o)
 .debug_str     0x00002c88       0x1a ../projeto_final_bsp/\libucosii_bsp.a(altera_avalon_uart_read.o)
 .debug_str     0x00002ca2       0x1a ../projeto_final_bsp/\libucosii_bsp.a(altera_avalon_uart_write.o)
 .debug_str     0x00002cbc       0x2e ../projeto_final_bsp/\libucosii_bsp.a(epcs_commands.o)
 .debug_str     0x00002cea       0x12 ../projeto_final_bsp/\libucosii_bsp.a(alt_iniche_close.o)
 .debug_str     0x00002cfc       0x12 ../projeto_final_bsp/\libucosii_bsp.a(alt_iniche_dev.o)
 .debug_str     0x00002d0e       0x12 ../projeto_final_bsp/\libucosii_bsp.a(alt_iniche_read.o)
 .debug_str     0x00002d20       0x12 ../projeto_final_bsp/\libucosii_bsp.a(alt_iniche_write.o)
 .debug_str     0x00002d32       0x12 ../projeto_final_bsp/\libucosii_bsp.a(ipnet.o)
 .debug_str     0x00002d44       0x12 ../projeto_final_bsp/\libucosii_bsp.a(ipstart.o)
 .debug_str     0x00002d56       0x12 ../projeto_final_bsp/\libucosii_bsp.a(igmp_cmn.o)
 .debug_str     0x00002d68       0x20 ../projeto_final_bsp/\libucosii_bsp.a(bsdsock.o)
 .debug_str     0x00002d88       0x12 ../projeto_final_bsp/\libucosii_bsp.a(cksum.o)
 .debug_str     0x00002d9a       0x12 ../projeto_final_bsp/\libucosii_bsp.a(in_utils.o)
 .debug_str     0x00002dac       0x12 ../projeto_final_bsp/\libucosii_bsp.a(netmain.o)
 .debug_str     0x00002dbe       0x12 ../projeto_final_bsp/\libucosii_bsp.a(parseip.o)
 .debug_str     0x00002dd0       0x12 ../projeto_final_bsp/\libucosii_bsp.a(tk_crnos.o)
 .debug_str     0x00002de2       0x2e ../projeto_final_bsp/\libucosii_bsp.a(dhcpclnt.o)
 .debug_str     0x00002e10       0x12 ../projeto_final_bsp/\libucosii_bsp.a(dhcputil.o)
 .debug_str     0x00002e22       0x12 ../projeto_final_bsp/\libucosii_bsp.a(pktalloc.o)
 .debug_str     0x00002e34       0x12 ../projeto_final_bsp/\libucosii_bsp.a(q.o)
 .debug_str     0x00002e46       0x12 ../projeto_final_bsp/\libucosii_bsp.a(udp_open.o)
 .debug_str     0x00002e58       0x20 ../projeto_final_bsp/\libucosii_bsp.a(brdutils.o)
 .debug_str     0x00002e78       0x22 ../projeto_final_bsp/\libucosii_bsp.a(osportco.o)
 .debug_str     0x00002e9a       0x12 ../projeto_final_bsp/\libucosii_bsp.a(targnios.o)
 .debug_str     0x00002eac       0x1e ../projeto_final_bsp/\libucosii_bsp.a(nptcp.o)
 .debug_str     0x00002eca       0x12 ../projeto_final_bsp/\libucosii_bsp.a(rawsock.o)
 .debug_str     0x00002edc       0x34 ../projeto_final_bsp/\libucosii_bsp.a(sockcall.o)
 .debug_str     0x00002f10       0x18 ../projeto_final_bsp/\libucosii_bsp.a(socket.o)
 .debug_str     0x00002f28       0x12 ../projeto_final_bsp/\libucosii_bsp.a(socket2.o)
 .debug_str     0x00002f3a       0x12 ../projeto_final_bsp/\libucosii_bsp.a(soselect.o)
 .debug_str     0x00002f4c       0x12 ../projeto_final_bsp/\libucosii_bsp.a(tcp_in.o)
 .debug_str     0x00002f5e       0x12 ../projeto_final_bsp/\libucosii_bsp.a(tcp_out.o)
 .debug_str     0x00002f70       0x12 ../projeto_final_bsp/\libucosii_bsp.a(tcp_subr.o)
 .debug_str     0x00002f82       0x12 ../projeto_final_bsp/\libucosii_bsp.a(tcp_timr.o)
 .debug_str     0x00002f94       0x12 ../projeto_final_bsp/\libucosii_bsp.a(tcp_usr.o)
 .debug_str     0x00002fa6       0x12 ../projeto_final_bsp/\libucosii_bsp.a(tcpport.o)
 .debug_str     0x00002fb8       0x1a ../projeto_final_bsp/\libucosii_bsp.a(udpsock.o)
 .debug_str     0x00002fd2       0x23 ../projeto_final_bsp/\libucosii_bsp.a(alt_alarm_start.o)
 .debug_str     0x00002ff5       0x12 ../projeto_final_bsp/\libucosii_bsp.a(alt_busy_sleep.o)
 .debug_str     0x00003007       0x12 ../projeto_final_bsp/\libucosii_bsp.a(alt_close.o)
 .debug_str     0x00003019       0x12 ../projeto_final_bsp/\libucosii_bsp.a(alt_dcache_flush.o)
 .debug_str     0x0000302b       0x12 ../projeto_final_bsp/\libucosii_bsp.a(alt_dev.o)
 .debug_str     0x0000303d       0x12 ../projeto_final_bsp/\libucosii_bsp.a(alt_dev_llist_insert.o)
 .debug_str     0x0000304f       0x12 ../projeto_final_bsp/\libucosii_bsp.a(alt_errno.o)
 .debug_str     0x00003061       0x12 ../projeto_final_bsp/\libucosii_bsp.a(alt_find_dev.o)
 .debug_str     0x00003073       0x18 ../projeto_final_bsp/\libucosii_bsp.a(alt_iic.o)
 .debug_str     0x0000308b       0x1a ../projeto_final_bsp/\libucosii_bsp.a(alt_iic_isr_register.o)
 .debug_str     0x000030a5       0x12 ../projeto_final_bsp/\libucosii_bsp.a(alt_io_redirect.o)
 .debug_str     0x000030b7       0x12 ../projeto_final_bsp/\libucosii_bsp.a(alt_irq_handler.o)
 .debug_str     0x000030c9       0x12 ../projeto_final_bsp/\libucosii_bsp.a(alt_open.o)
 .debug_str     0x000030db       0x12 ../projeto_final_bsp/\libucosii_bsp.a(alt_read.o)
 .debug_str     0x000030ed       0x12 ../projeto_final_bsp/\libucosii_bsp.a(alt_release_fd.o)
 .debug_str     0x000030ff       0x12 ../projeto_final_bsp/\libucosii_bsp.a(alt_remap_cached.o)
 .debug_str     0x00003111       0x12 ../projeto_final_bsp/\libucosii_bsp.a(alt_remap_uncached.o)
 .debug_str     0x00003123       0x1a ../projeto_final_bsp/\libucosii_bsp.a(alt_tick.o)
 .debug_str     0x0000313d       0x12 ../projeto_final_bsp/\libucosii_bsp.a(alt_write.o)
 .debug_str     0x0000314f       0x12 ../projeto_final_bsp/\libucosii_bsp.a(altera_nios2_qsys_irq.o)
 .debug_str     0x00003161       0x20 ../projeto_final_bsp/\libucosii_bsp.a(os_cpu_c.o)
 .debug_str     0x00003181       0x76 ../projeto_final_bsp/\libucosii_bsp.a(altera_avalon_cfi_flash_amd.o)
 .debug_str     0x000031f7       0x7d ../projeto_final_bsp/\libucosii_bsp.a(altera_avalon_cfi_flash_intel.o)
 .debug_str     0x00003274       0x12 ../projeto_final_bsp/\libucosii_bsp.a(allports.o)
 .debug_str     0x00003286       0x1b ../projeto_final_bsp/\libucosii_bsp.a(timeouts.o)
 .debug_str     0x000032a1       0x12 ../projeto_final_bsp/\libucosii_bsp.a(tk_misc.o)
 .debug_str     0x000032b3       0x12 ../projeto_final_bsp/\libucosii_bsp.a(alt_iniche_fcntl.o)
 .debug_str     0x000032c5       0x3d ../projeto_final_bsp/\libucosii_bsp.a(et_arp.o)
 .debug_str     0x00003302       0x12 ../projeto_final_bsp/\libucosii_bsp.a(iface.o)
 .debug_str     0x00003314       0x2c ../projeto_final_bsp/\libucosii_bsp.a(ip.o)
 .debug_str     0x00003340       0x4e ../projeto_final_bsp/\libucosii_bsp.a(ip_reasm.o)
 .debug_str     0x0000338e       0x12 ../projeto_final_bsp/\libucosii_bsp.a(ipdemux.o)
 .debug_str     0x000033a0       0x12 ../projeto_final_bsp/\libucosii_bsp.a(ipmc.o)
 .debug_str     0x000033b2       0x12 ../projeto_final_bsp/\libucosii_bsp.a(ipport.o)
 .debug_str     0x000033c4       0x12 ../projeto_final_bsp/\libucosii_bsp.a(ipraw.o)
 .debug_str     0x000033d6       0x12 ../projeto_final_bsp/\libucosii_bsp.a(iproute.o)
 .debug_str     0x000033e8       0x12 ../projeto_final_bsp/\libucosii_bsp.a(udp.o)
 .debug_str     0x000033fa       0x12 ../projeto_final_bsp/\libucosii_bsp.a(igmp.o)
 .debug_str     0x0000340c       0x20 ../projeto_final_bsp/\libucosii_bsp.a(igmp2.o)
 .debug_str     0x0000342c       0x12 ../projeto_final_bsp/\libucosii_bsp.a(ipopt.o)
 .debug_str     0x0000343e       0x12 ../projeto_final_bsp/\libucosii_bsp.a(dhcsetup.o)
 .debug_str     0x00003450       0x1b ../projeto_final_bsp/\libucosii_bsp.a(memdev.o)
 .debug_str     0x0000346b       0x12 ../projeto_final_bsp/\libucosii_bsp.a(tcpcksum.o)
 .debug_str     0x0000347d       0x12 ../projeto_final_bsp/\libucosii_bsp.a(in_pcb.o)
 .debug_str     0x0000348f       0x2b ../projeto_final_bsp/\libucosii_bsp.a(vfsfiles.o)
 .debug_str     0x000034ba       0x12 ../projeto_final_bsp/\libucosii_bsp.a(vfsport.o)
 .debug_str     0x000034cc       0x12 ../projeto_final_bsp/\libucosii_bsp.a(alt_fcntl.o)
 .debug_str     0x000034de       0x12 ../projeto_final_bsp/\libucosii_bsp.a(alt_find_file.o)
 .debug_str     0x000034f0       0x12 ../projeto_final_bsp/\libucosii_bsp.a(alt_get_fd.o)
 .debug_str     0x00003502       0x12 ../projeto_final_bsp/\libucosii_bsp.a(icmp.o)
 .debug_str     0x00003514       0x3b d:/altera/13.0sp1/nios2eds/bin/gnu/h-i686-mingw32/bin/../lib/gcc/nios2-elf/4.1.2/../../../../nios2-elf/lib\libc.a(lib_a-atexit.o)
                                0x1bf (size before relaxing)
 .debug_str     0x0000354f       0x42 d:/altera/13.0sp1/nios2eds/bin/gnu/h-i686-mingw32/bin/../lib/gcc/nios2-elf/4.1.2/../../../../nios2-elf/lib\libc.a(lib_a-calloc.o)
                                0x510 (size before relaxing)
 .debug_str     0x00003591       0x47 d:/altera/13.0sp1/nios2eds/bin/gnu/h-i686-mingw32/bin/../lib/gcc/nios2-elf/4.1.2/../../../../nios2-elf/lib\libc.a(lib_a-malloc.o)
                                0x51c (size before relaxing)
 .debug_str     0x000035d8       0x42 d:/altera/13.0sp1/nios2eds/bin/gnu/h-i686-mingw32/bin/../lib/gcc/nios2-elf/4.1.2/../../../../nios2-elf/lib\libc.a(lib_a-memcmp.o)
                                0x16a (size before relaxing)
 .debug_str     0x0000361a       0x42 d:/altera/13.0sp1/nios2eds/bin/gnu/h-i686-mingw32/bin/../lib/gcc/nios2-elf/4.1.2/../../../../nios2-elf/lib\libc.a(lib_a-strcpy.o)
                                0x185 (size before relaxing)
 .debug_str     0x0000365c       0x44 d:/altera/13.0sp1/nios2eds/bin/gnu/h-i686-mingw32/bin/../lib/gcc/nios2-elf/4.1.2/../../../../nios2-elf/lib\libc.a(lib_a-strncmp.o)
                                0x16c (size before relaxing)
 .debug_str     0x000036a0       0x44 d:/altera/13.0sp1/nios2eds/bin/gnu/h-i686-mingw32/bin/../lib/gcc/nios2-elf/4.1.2/../../../../nios2-elf/lib\libc.a(lib_a-strncpy.o)
                                0x194 (size before relaxing)
 .debug_str     0x000036e4       0x4e d:/altera/13.0sp1/nios2eds/bin/gnu/h-i686-mingw32/bin/../lib/gcc/nios2-elf/4.1.2/../../../../nios2-elf/lib\libc.a(lib_a-vprintf.o)
                                0x526 (size before relaxing)
 .debug_str     0x00003732       0x51 d:/altera/13.0sp1/nios2eds/bin/gnu/h-i686-mingw32/bin/../lib/gcc/nios2-elf/4.1.2/../../../../nios2-elf/lib\libc.a(lib_a-vsprintf.o)
                                0x52e (size before relaxing)
 .debug_str     0x00003783       0x51 d:/altera/13.0sp1/nios2eds/bin/gnu/h-i686-mingw32/bin/../lib/gcc/nios2-elf/4.1.2/../../../../nios2-elf/lib\libc.a(lib_a-__atexit.o)
                                0x524 (size before relaxing)

.debug_loc      0x00000000    0x14121
 *(.debug_loc)
 .debug_loc     0x00000000      0x103 obj/default/LCD.o
 .debug_loc     0x00000103       0x56 obj/default/SSS_DE2_115.o
 .debug_loc     0x00000159       0x81 obj/default/alt_error_handler.o
 .debug_loc     0x000001da      0x25a obj/default/dm9000a.o
 .debug_loc     0x00000434       0xaf obj/default/iniche_init.o
 .debug_loc     0x000004e3       0x81 obj/default/led.o
 .debug_loc     0x00000564      0x103 obj/default/network_utilities.o
 .debug_loc     0x00000667      0x15b obj/default/simple_socket_server.o
 .debug_loc     0x000007c2       0x87 d:/altera/13.0sp1/nios2eds/bin/gnu/h-i686-mingw32/bin/../lib/gcc/nios2-elf/4.1.2\libgcc.a(_fixunsdfsi.o)
 .debug_loc     0x00000849      0x47a d:/altera/13.0sp1/nios2eds/bin/gnu/h-i686-mingw32/bin/../lib/gcc/nios2-elf/4.1.2\libgcc.a(_addsub_df.o)
 .debug_loc     0x00000cc3      0x3b4 d:/altera/13.0sp1/nios2eds/bin/gnu/h-i686-mingw32/bin/../lib/gcc/nios2-elf/4.1.2\libgcc.a(_mul_df.o)
 .debug_loc     0x00001077       0x70 d:/altera/13.0sp1/nios2eds/bin/gnu/h-i686-mingw32/bin/../lib/gcc/nios2-elf/4.1.2\libgcc.a(_ge_df.o)
 .debug_loc     0x000010e7       0x8b d:/altera/13.0sp1/nios2eds/bin/gnu/h-i686-mingw32/bin/../lib/gcc/nios2-elf/4.1.2\libgcc.a(_df_to_si.o)
 .debug_loc     0x00001172       0x5b d:/altera/13.0sp1/nios2eds/bin/gnu/h-i686-mingw32/bin/../lib/gcc/nios2-elf/4.1.2\libgcc.a(_usi_to_df.o)
 .debug_loc     0x000011cd       0xc4 d:/altera/13.0sp1/nios2eds/bin/gnu/h-i686-mingw32/bin/../lib/gcc/nios2-elf/4.1.2\libgcc.a(_muldi3.o)
 .debug_loc     0x00001291       0x1e d:/altera/13.0sp1/nios2eds/bin/gnu/h-i686-mingw32/bin/../lib/gcc/nios2-elf/4.1.2\libgcc.a(_clzsi2.o)
 .debug_loc     0x000012af      0x184 d:/altera/13.0sp1/nios2eds/bin/gnu/h-i686-mingw32/bin/../lib/gcc/nios2-elf/4.1.2\libgcc.a(_pack_df.o)
 .debug_loc     0x00001433       0xe5 d:/altera/13.0sp1/nios2eds/bin/gnu/h-i686-mingw32/bin/../lib/gcc/nios2-elf/4.1.2\libgcc.a(_unpack_df.o)
 .debug_loc     0x00001518       0x39 d:/altera/13.0sp1/nios2eds/bin/gnu/h-i686-mingw32/bin/../lib/gcc/nios2-elf/4.1.2/../../../../nios2-elf/lib\libc.a(lib_a-atoi.o)
 .debug_loc     0x00001551       0x3d d:/altera/13.0sp1/nios2eds/bin/gnu/h-i686-mingw32/bin/../lib/gcc/nios2-elf/4.1.2/../../../../nios2-elf/lib\libc.a(lib_a-exit.o)
 .debug_loc     0x0000158e       0xf1 d:/altera/13.0sp1/nios2eds/bin/gnu/h-i686-mingw32/bin/../lib/gcc/nios2-elf/4.1.2/../../../../nios2-elf/lib\libc.a(lib_a-fprintf.o)
 .debug_loc     0x0000167f      0x18e d:/altera/13.0sp1/nios2eds/bin/gnu/h-i686-mingw32/bin/../lib/gcc/nios2-elf/4.1.2/../../../../nios2-elf/lib\libc.a(lib_a-fwrite.o)
 .debug_loc     0x0000180d      0x10b d:/altera/13.0sp1/nios2eds/bin/gnu/h-i686-mingw32/bin/../lib/gcc/nios2-elf/4.1.2/../../../../nios2-elf/lib\libc.a(lib_a-getc.o)
 .debug_loc     0x00001918       0xca d:/altera/13.0sp1/nios2eds/bin/gnu/h-i686-mingw32/bin/../lib/gcc/nios2-elf/4.1.2/../../../../nios2-elf/lib\libc.a(lib_a-memcpy.o)
 .debug_loc     0x000019e2      0x117 d:/altera/13.0sp1/nios2eds/bin/gnu/h-i686-mingw32/bin/../lib/gcc/nios2-elf/4.1.2/../../../../nios2-elf/lib\libc.a(lib_a-memmove.o)
 .debug_loc     0x00001af9       0xa1 d:/altera/13.0sp1/nios2eds/bin/gnu/h-i686-mingw32/bin/../lib/gcc/nios2-elf/4.1.2/../../../../nios2-elf/lib\libc.a(lib_a-memset.o)
 .debug_loc     0x00001b9a       0xa2 d:/altera/13.0sp1/nios2eds/bin/gnu/h-i686-mingw32/bin/../lib/gcc/nios2-elf/4.1.2/../../../../nios2-elf/lib\libc.a(lib_a-perror.o)
 .debug_loc     0x00001c3c       0xcb d:/altera/13.0sp1/nios2eds/bin/gnu/h-i686-mingw32/bin/../lib/gcc/nios2-elf/4.1.2/../../../../nios2-elf/lib\libc.a(lib_a-printf.o)
 .debug_loc     0x00001d07      0x20d d:/altera/13.0sp1/nios2eds/bin/gnu/h-i686-mingw32/bin/../lib/gcc/nios2-elf/4.1.2/../../../../nios2-elf/lib\libc.a(lib_a-putc.o)
 .debug_loc     0x00001f14       0x44 d:/altera/13.0sp1/nios2eds/bin/gnu/h-i686-mingw32/bin/../lib/gcc/nios2-elf/4.1.2/../../../../nios2-elf/lib\libc.a(lib_a-putchar.o)
 .debug_loc     0x00001f58       0xa2 d:/altera/13.0sp1/nios2eds/bin/gnu/h-i686-mingw32/bin/../lib/gcc/nios2-elf/4.1.2/../../../../nios2-elf/lib\libc.a(lib_a-puts.o)
 .debug_loc     0x00001ffa       0x6e d:/altera/13.0sp1/nios2eds/bin/gnu/h-i686-mingw32/bin/../lib/gcc/nios2-elf/4.1.2/../../../../nios2-elf/lib\libc.a(lib_a-rget.o)
 .debug_loc     0x00002068      0x23b d:/altera/13.0sp1/nios2eds/bin/gnu/h-i686-mingw32/bin/../lib/gcc/nios2-elf/4.1.2/../../../../nios2-elf/lib\libc.a(lib_a-snprintf.o)
 .debug_loc     0x000022a3       0xc0 d:/altera/13.0sp1/nios2eds/bin/gnu/h-i686-mingw32/bin/../lib/gcc/nios2-elf/4.1.2/../../../../nios2-elf/lib\libc.a(lib_a-sprintf.o)
 .debug_loc     0x00002363       0xf3 d:/altera/13.0sp1/nios2eds/bin/gnu/h-i686-mingw32/bin/../lib/gcc/nios2-elf/4.1.2/../../../../nios2-elf/lib\libc.a(lib_a-strchr.o)
 .debug_loc     0x00002456       0x65 d:/altera/13.0sp1/nios2eds/bin/gnu/h-i686-mingw32/bin/../lib/gcc/nios2-elf/4.1.2/../../../../nios2-elf/lib\libc.a(lib_a-strcmp.o)
 .debug_loc     0x000024bb      0x418 d:/altera/13.0sp1/nios2eds/bin/gnu/h-i686-mingw32/bin/../lib/gcc/nios2-elf/4.1.2/../../../../nios2-elf/lib\libc.a(lib_a-strerror.o)
 .debug_loc     0x000028d3       0x3c d:/altera/13.0sp1/nios2eds/bin/gnu/h-i686-mingw32/bin/../lib/gcc/nios2-elf/4.1.2/../../../../nios2-elf/lib\libc.a(lib_a-strlen.o)
 .debug_loc     0x0000290f       0x26 d:/altera/13.0sp1/nios2eds/bin/gnu/h-i686-mingw32/bin/../lib/gcc/nios2-elf/4.1.2/../../../../nios2-elf/lib\libc.a(lib_a-strtok.o)
 .debug_loc     0x00002935       0xc7 d:/altera/13.0sp1/nios2eds/bin/gnu/h-i686-mingw32/bin/../lib/gcc/nios2-elf/4.1.2/../../../../nios2-elf/lib\libc.a(lib_a-strtok_r.o)
 .debug_loc     0x000029fc      0x346 d:/altera/13.0sp1/nios2eds/bin/gnu/h-i686-mingw32/bin/../lib/gcc/nios2-elf/4.1.2/../../../../nios2-elf/lib\libc.a(lib_a-strtol.o)
 .debug_loc     0x00002d42     0x1e0d d:/altera/13.0sp1/nios2eds/bin/gnu/h-i686-mingw32/bin/../lib/gcc/nios2-elf/4.1.2/../../../../nios2-elf/lib\libc.a(lib_a-vfprintf.o)
 .debug_loc     0x00004b4f      0x157 d:/altera/13.0sp1/nios2eds/bin/gnu/h-i686-mingw32/bin/../lib/gcc/nios2-elf/4.1.2/../../../../nios2-elf/lib\libc.a(lib_a-wbuf.o)
 .debug_loc     0x00004ca6       0x7c d:/altera/13.0sp1/nios2eds/bin/gnu/h-i686-mingw32/bin/../lib/gcc/nios2-elf/4.1.2/../../../../nios2-elf/lib\libc.a(lib_a-wsetup.o)
 .debug_loc     0x00004d22      0x1cb d:/altera/13.0sp1/nios2eds/bin/gnu/h-i686-mingw32/bin/../lib/gcc/nios2-elf/4.1.2/../../../../nios2-elf/lib\libc.a(lib_a-__call_atexit.o)
 .debug_loc     0x00004eed     0x1dfa d:/altera/13.0sp1/nios2eds/bin/gnu/h-i686-mingw32/bin/../lib/gcc/nios2-elf/4.1.2/../../../../nios2-elf/lib\libc.a(lib_a-dtoa.o)
 .debug_loc     0x00006ce7      0x1f6 d:/altera/13.0sp1/nios2eds/bin/gnu/h-i686-mingw32/bin/../lib/gcc/nios2-elf/4.1.2/../../../../nios2-elf/lib\libc.a(lib_a-fflush.o)
 .debug_loc     0x00006edd      0x19f d:/altera/13.0sp1/nios2eds/bin/gnu/h-i686-mingw32/bin/../lib/gcc/nios2-elf/4.1.2/../../../../nios2-elf/lib\libc.a(lib_a-findfp.o)
 .debug_loc     0x0000707c      0x14d d:/altera/13.0sp1/nios2eds/bin/gnu/h-i686-mingw32/bin/../lib/gcc/nios2-elf/4.1.2/../../../../nios2-elf/lib\libc.a(lib_a-fputc.o)
 .debug_loc     0x000071c9       0xcb d:/altera/13.0sp1/nios2eds/bin/gnu/h-i686-mingw32/bin/../lib/gcc/nios2-elf/4.1.2/../../../../nios2-elf/lib\libc.a(lib_a-fputs.o)
 .debug_loc     0x00007294      0x4a7 d:/altera/13.0sp1/nios2eds/bin/gnu/h-i686-mingw32/bin/../lib/gcc/nios2-elf/4.1.2/../../../../nios2-elf/lib\libc.a(lib_a-freer.o)
 .debug_loc     0x0000773b      0x4e4 d:/altera/13.0sp1/nios2eds/bin/gnu/h-i686-mingw32/bin/../lib/gcc/nios2-elf/4.1.2/../../../../nios2-elf/lib\libc.a(lib_a-fvwrite.o)
 .debug_loc     0x00007c1f      0x1d2 d:/altera/13.0sp1/nios2eds/bin/gnu/h-i686-mingw32/bin/../lib/gcc/nios2-elf/4.1.2/../../../../nios2-elf/lib\libc.a(lib_a-fwalk.o)
 .debug_loc     0x00007df1       0xe1 d:/altera/13.0sp1/nios2eds/bin/gnu/h-i686-mingw32/bin/../lib/gcc/nios2-elf/4.1.2/../../../../nios2-elf/lib\libc.a(lib_a-locale.o)
 .debug_loc     0x00007ed2      0x11c d:/altera/13.0sp1/nios2eds/bin/gnu/h-i686-mingw32/bin/../lib/gcc/nios2-elf/4.1.2/../../../../nios2-elf/lib\libc.a(lib_a-makebuf.o)
 .debug_loc     0x00007fee      0xaeb d:/altera/13.0sp1/nios2eds/bin/gnu/h-i686-mingw32/bin/../lib/gcc/nios2-elf/4.1.2/../../../../nios2-elf/lib\libc.a(lib_a-mallocr.o)
 .debug_loc     0x00008ad9      0x106 d:/altera/13.0sp1/nios2eds/bin/gnu/h-i686-mingw32/bin/../lib/gcc/nios2-elf/4.1.2/../../../../nios2-elf/lib\libc.a(lib_a-memchr.o)
 .debug_loc     0x00008bdf     0x14d6 d:/altera/13.0sp1/nios2eds/bin/gnu/h-i686-mingw32/bin/../lib/gcc/nios2-elf/4.1.2/../../../../nios2-elf/lib\libc.a(lib_a-mprec.o)
 .debug_loc     0x0000a0b5      0x8c0 d:/altera/13.0sp1/nios2eds/bin/gnu/h-i686-mingw32/bin/../lib/gcc/nios2-elf/4.1.2/../../../../nios2-elf/lib\libc.a(lib_a-reallocr.o)
 .debug_loc     0x0000a975       0xd1 d:/altera/13.0sp1/nios2eds/bin/gnu/h-i686-mingw32/bin/../lib/gcc/nios2-elf/4.1.2/../../../../nios2-elf/lib\libc.a(lib_a-refill.o)
 .debug_loc     0x0000aa46       0x36 d:/altera/13.0sp1/nios2eds/bin/gnu/h-i686-mingw32/bin/../lib/gcc/nios2-elf/4.1.2/../../../../nios2-elf/lib\libc.a(lib_a-s_isinfd.o)
 .debug_loc     0x0000aa7c       0x18 d:/altera/13.0sp1/nios2eds/bin/gnu/h-i686-mingw32/bin/../lib/gcc/nios2-elf/4.1.2/../../../../nios2-elf/lib\libc.a(lib_a-s_isnand.o)
 .debug_loc     0x0000aa94       0x5b d:/altera/13.0sp1/nios2eds/bin/gnu/h-i686-mingw32/bin/../lib/gcc/nios2-elf/4.1.2/../../../../nios2-elf/lib\libc.a(lib_a-sbrkr.o)
 .debug_loc     0x0000aaef      0x21f d:/altera/13.0sp1/nios2eds/bin/gnu/h-i686-mingw32/bin/../lib/gcc/nios2-elf/4.1.2/../../../../nios2-elf/lib\libc.a(lib_a-stdio.o)
 .debug_loc     0x0000ad0e       0x97 d:/altera/13.0sp1/nios2eds/bin/gnu/h-i686-mingw32/bin/../lib/gcc/nios2-elf/4.1.2/../../../../nios2-elf/lib\libc.a(lib_a-writer.o)
 .debug_loc     0x0000ada5       0xe9 d:/altera/13.0sp1/nios2eds/bin/gnu/h-i686-mingw32/bin/../lib/gcc/nios2-elf/4.1.2/../../../../nios2-elf/lib\libc.a(lib_a-callocr.o)
 .debug_loc     0x0000ae8e       0x5b d:/altera/13.0sp1/nios2eds/bin/gnu/h-i686-mingw32/bin/../lib/gcc/nios2-elf/4.1.2/../../../../nios2-elf/lib\libc.a(lib_a-closer.o)
 .debug_loc     0x0000aee9       0xe4 d:/altera/13.0sp1/nios2eds/bin/gnu/h-i686-mingw32/bin/../lib/gcc/nios2-elf/4.1.2/../../../../nios2-elf/lib\libc.a(lib_a-fclose.o)
 .debug_loc     0x0000afcd       0x79 d:/altera/13.0sp1/nios2eds/bin/gnu/h-i686-mingw32/bin/../lib/gcc/nios2-elf/4.1.2/../../../../nios2-elf/lib\libc.a(lib_a-fstatr.o)
 .debug_loc     0x0000b046       0x5b d:/altera/13.0sp1/nios2eds/bin/gnu/h-i686-mingw32/bin/../lib/gcc/nios2-elf/4.1.2/../../../../nios2-elf/lib\libc.a(lib_a-isattyr.o)
 .debug_loc     0x0000b0a1       0x97 d:/altera/13.0sp1/nios2eds/bin/gnu/h-i686-mingw32/bin/../lib/gcc/nios2-elf/4.1.2/../../../../nios2-elf/lib\libc.a(lib_a-lseekr.o)
 .debug_loc     0x0000b138       0x97 d:/altera/13.0sp1/nios2eds/bin/gnu/h-i686-mingw32/bin/../lib/gcc/nios2-elf/4.1.2/../../../../nios2-elf/lib\libc.a(lib_a-readr.o)
 .debug_loc     0x0000b1cf      0xc12 d:/altera/13.0sp1/nios2eds/bin/gnu/h-i686-mingw32/bin/../lib/gcc/nios2-elf/4.1.2\libgcc.a(_udivdi3.o)
 .debug_loc     0x0000bde1      0xc26 d:/altera/13.0sp1/nios2eds/bin/gnu/h-i686-mingw32/bin/../lib/gcc/nios2-elf/4.1.2\libgcc.a(_umoddi3.o)
 .debug_loc     0x0000ca07      0x1df d:/altera/13.0sp1/nios2eds/bin/gnu/h-i686-mingw32/bin/../lib/gcc/nios2-elf/4.1.2\libgcc.a(_div_df.o)
 .debug_loc     0x0000cbe6       0x70 d:/altera/13.0sp1/nios2eds/bin/gnu/h-i686-mingw32/bin/../lib/gcc/nios2-elf/4.1.2\libgcc.a(_eq_df.o)
 .debug_loc     0x0000cc56       0x70 d:/altera/13.0sp1/nios2eds/bin/gnu/h-i686-mingw32/bin/../lib/gcc/nios2-elf/4.1.2\libgcc.a(_ne_df.o)
 .debug_loc     0x0000ccc6       0x70 d:/altera/13.0sp1/nios2eds/bin/gnu/h-i686-mingw32/bin/../lib/gcc/nios2-elf/4.1.2\libgcc.a(_gt_df.o)
 .debug_loc     0x0000cd36       0x70 d:/altera/13.0sp1/nios2eds/bin/gnu/h-i686-mingw32/bin/../lib/gcc/nios2-elf/4.1.2\libgcc.a(_lt_df.o)
 .debug_loc     0x0000cda6       0x9a d:/altera/13.0sp1/nios2eds/bin/gnu/h-i686-mingw32/bin/../lib/gcc/nios2-elf/4.1.2\libgcc.a(_si_to_df.o)
 .debug_loc     0x0000ce40      0x1d2 d:/altera/13.0sp1/nios2eds/bin/gnu/h-i686-mingw32/bin/../lib/gcc/nios2-elf/4.1.2\libgcc.a(lib2-divmod.o)
 .debug_loc     0x0000d012       0x56 ../projeto_final_bsp/\libucosii_bsp.a(alt_exit.o)
 .debug_loc     0x0000d068       0x56 ../projeto_final_bsp/\libucosii_bsp.a(alt_flash_dev.o)
 .debug_loc     0x0000d0be       0x56 ../projeto_final_bsp/\libucosii_bsp.a(alt_fstat.o)
 .debug_loc     0x0000d114       0x2c ../projeto_final_bsp/\libucosii_bsp.a(alt_irq_register.o)
 .debug_loc     0x0000d140       0x57 ../projeto_final_bsp/\libucosii_bsp.a(alt_isatty.o)
 .debug_loc     0x0000d197       0x56 ../projeto_final_bsp/\libucosii_bsp.a(alt_lseek.o)
 .debug_loc     0x0000d1ed       0x2b ../projeto_final_bsp/\libucosii_bsp.a(alt_main.o)
 .debug_loc     0x0000d218       0x2b ../projeto_final_bsp/\libucosii_bsp.a(alt_sbrk.o)
 .debug_loc     0x0000d243       0x2b ../projeto_final_bsp/\libucosii_bsp.a(alt_usleep.o)
 .debug_loc     0x0000d26e       0x57 ../projeto_final_bsp/\libucosii_bsp.a(alt_env_lock.o)
 .debug_loc     0x0000d2c5       0x57 ../projeto_final_bsp/\libucosii_bsp.a(alt_malloc_lock.o)
 .debug_loc     0x0000d31c      0x5e2 ../projeto_final_bsp/\libucosii_bsp.a(os_core.o)
 .debug_loc     0x0000d8fe       0x2b ../projeto_final_bsp/\libucosii_bsp.a(os_dbg.o)
 .debug_loc     0x0000d929      0x232 ../projeto_final_bsp/\libucosii_bsp.a(os_flag.o)
 .debug_loc     0x0000db5b      0x12d ../projeto_final_bsp/\libucosii_bsp.a(os_mem.o)
 .debug_loc     0x0000dc88      0x1da ../projeto_final_bsp/\libucosii_bsp.a(os_q.o)
 .debug_loc     0x0000de62      0x158 ../projeto_final_bsp/\libucosii_bsp.a(os_sem.o)
 .debug_loc     0x0000dfba      0x207 ../projeto_final_bsp/\libucosii_bsp.a(os_task.o)
 .debug_loc     0x0000e1c1       0xd7 ../projeto_final_bsp/\libucosii_bsp.a(os_time.o)
 .debug_loc     0x0000e298       0x81 ../projeto_final_bsp/\libucosii_bsp.a(alt_sys_init.o)
 .debug_loc     0x0000e319      0x12e ../projeto_final_bsp/\libucosii_bsp.a(altera_avalon_cfi_flash.o)
 .debug_loc     0x0000e447      0x306 ../projeto_final_bsp/\libucosii_bsp.a(altera_avalon_cfi_flash_table.o)
 .debug_loc     0x0000e74d      0x1af ../projeto_final_bsp/\libucosii_bsp.a(altera_avalon_epcs_flash_controller.o)
 .debug_loc     0x0000e8fc       0xac ../projeto_final_bsp/\libucosii_bsp.a(altera_avalon_jtag_uart_fd.o)
 .debug_loc     0x0000e9a8       0xac ../projeto_final_bsp/\libucosii_bsp.a(altera_avalon_jtag_uart_init.o)
 .debug_loc     0x0000ea54       0x2b ../projeto_final_bsp/\libucosii_bsp.a(altera_avalon_jtag_uart_ioctl.o)
 .debug_loc     0x0000ea7f       0x2c ../projeto_final_bsp/\libucosii_bsp.a(altera_avalon_jtag_uart_read.o)
 .debug_loc     0x0000eaab       0x2c ../projeto_final_bsp/\libucosii_bsp.a(altera_avalon_jtag_uart_write.o)
 .debug_loc     0x0000ead7      0x184 ../projeto_final_bsp/\libucosii_bsp.a(altera_avalon_lcd_16207.o)
 .debug_loc     0x0000ec5b       0x2b ../projeto_final_bsp/\libucosii_bsp.a(altera_avalon_lcd_16207_fd.o)
 .debug_loc     0x0000ec86       0x56 ../projeto_final_bsp/\libucosii_bsp.a(altera_avalon_timer_sc.o)
 .debug_loc     0x0000ecdc       0x81 ../projeto_final_bsp/\libucosii_bsp.a(altera_avalon_uart_fd.o)
 .debug_loc     0x0000ed5d       0xd8 ../projeto_final_bsp/\libucosii_bsp.a(altera_avalon_uart_init.o)
 .debug_loc     0x0000ee35       0x57 ../projeto_final_bsp/\libucosii_bsp.a(altera_avalon_uart_read.o)
 .debug_loc     0x0000ee8c       0x57 ../projeto_final_bsp/\libucosii_bsp.a(altera_avalon_uart_write.o)
 .debug_loc     0x0000eee3      0x204 ../projeto_final_bsp/\libucosii_bsp.a(epcs_commands.o)
 .debug_loc     0x0000f0e7       0x2b ../projeto_final_bsp/\libucosii_bsp.a(alt_iniche_close.o)
 .debug_loc     0x0000f112       0x2b ../projeto_final_bsp/\libucosii_bsp.a(alt_iniche_dev.o)
 .debug_loc     0x0000f13d       0x2b ../projeto_final_bsp/\libucosii_bsp.a(alt_iniche_read.o)
 .debug_loc     0x0000f168       0x2b ../projeto_final_bsp/\libucosii_bsp.a(alt_iniche_write.o)
 .debug_loc     0x0000f193      0x102 ../projeto_final_bsp/\libucosii_bsp.a(ipnet.o)
 .debug_loc     0x0000f295       0xac ../projeto_final_bsp/\libucosii_bsp.a(ipstart.o)
 .debug_loc     0x0000f341      0x159 ../projeto_final_bsp/\libucosii_bsp.a(igmp_cmn.o)
 .debug_loc     0x0000f49a      0x1af ../projeto_final_bsp/\libucosii_bsp.a(bsdsock.o)
 .debug_loc     0x0000f649       0x56 ../projeto_final_bsp/\libucosii_bsp.a(cksum.o)
 .debug_loc     0x0000f69f      0x204 ../projeto_final_bsp/\libucosii_bsp.a(in_utils.o)
 .debug_loc     0x0000f8a3       0x81 ../projeto_final_bsp/\libucosii_bsp.a(netmain.o)
 .debug_loc     0x0000f924      0x183 ../projeto_final_bsp/\libucosii_bsp.a(parseip.o)
 .debug_loc     0x0000faa7      0x12f ../projeto_final_bsp/\libucosii_bsp.a(tk_crnos.o)
 .debug_loc     0x0000fbd6      0x35c ../projeto_final_bsp/\libucosii_bsp.a(dhcpclnt.o)
 .debug_loc     0x0000ff32       0x2b ../projeto_final_bsp/\libucosii_bsp.a(dhcputil.o)
 .debug_loc     0x0000ff5d      0x102 ../projeto_final_bsp/\libucosii_bsp.a(pktalloc.o)
 .debug_loc     0x0001005f       0x81 ../projeto_final_bsp/\libucosii_bsp.a(q.o)
 .debug_loc     0x000100e0       0x56 ../projeto_final_bsp/\libucosii_bsp.a(udp_open.o)
 .debug_loc     0x00010136      0x158 ../projeto_final_bsp/\libucosii_bsp.a(brdutils.o)
 .debug_loc     0x0001028e       0xd8 ../projeto_final_bsp/\libucosii_bsp.a(osportco.o)
 .debug_loc     0x00010366      0x183 ../projeto_final_bsp/\libucosii_bsp.a(targnios.o)
 .debug_loc     0x000104e9      0x306 ../projeto_final_bsp/\libucosii_bsp.a(nptcp.o)
 .debug_loc     0x000107ef       0x82 ../projeto_final_bsp/\libucosii_bsp.a(rawsock.o)
 .debug_loc     0x00010871      0x332 ../projeto_final_bsp/\libucosii_bsp.a(sockcall.o)
 .debug_loc     0x00010ba3      0x2b1 ../projeto_final_bsp/\libucosii_bsp.a(socket.o)
 .debug_loc     0x00010e54      0x3dd ../projeto_final_bsp/\libucosii_bsp.a(socket2.o)
 .debug_loc     0x00011231      0x184 ../projeto_final_bsp/\libucosii_bsp.a(soselect.o)
 .debug_loc     0x000113b5      0x12e ../projeto_final_bsp/\libucosii_bsp.a(tcp_in.o)
 .debug_loc     0x000114e3       0x82 ../projeto_final_bsp/\libucosii_bsp.a(tcp_out.o)
 .debug_loc     0x00011565      0x183 ../projeto_final_bsp/\libucosii_bsp.a(tcp_subr.o)
 .debug_loc     0x000116e8       0x81 ../projeto_final_bsp/\libucosii_bsp.a(tcp_timr.o)
 .debug_loc     0x00011769       0xac ../projeto_final_bsp/\libucosii_bsp.a(tcp_usr.o)
 .debug_loc     0x00011815       0x2b ../projeto_final_bsp/\libucosii_bsp.a(tcpport.o)
 .debug_loc     0x00011840      0x102 ../projeto_final_bsp/\libucosii_bsp.a(udpsock.o)
 .debug_loc     0x00011942       0x2b ../projeto_final_bsp/\libucosii_bsp.a(alt_alarm_start.o)
 .debug_loc     0x0001196d       0x2b ../projeto_final_bsp/\libucosii_bsp.a(alt_busy_sleep.o)
 .debug_loc     0x00011998       0x56 ../projeto_final_bsp/\libucosii_bsp.a(alt_close.o)
 .debug_loc     0x000119ee       0x2b ../projeto_final_bsp/\libucosii_bsp.a(alt_dcache_flush.o)
 .debug_loc     0x00011a19       0x2b ../projeto_final_bsp/\libucosii_bsp.a(alt_dev.o)
 .debug_loc     0x00011a44       0x56 ../projeto_final_bsp/\libucosii_bsp.a(alt_dev_llist_insert.o)
 .debug_loc     0x00011a9a       0x2b ../projeto_final_bsp/\libucosii_bsp.a(alt_do_ctors.o)
 .debug_loc     0x00011ac5       0x2b ../projeto_final_bsp/\libucosii_bsp.a(alt_do_dtors.o)
 .debug_loc     0x00011af0       0x2b ../projeto_final_bsp/\libucosii_bsp.a(alt_find_dev.o)
 .debug_loc     0x00011b1b       0xac ../projeto_final_bsp/\libucosii_bsp.a(alt_iic.o)
 .debug_loc     0x00011bc7       0x2b ../projeto_final_bsp/\libucosii_bsp.a(alt_iic_isr_register.o)
 .debug_loc     0x00011bf2       0x56 ../projeto_final_bsp/\libucosii_bsp.a(alt_io_redirect.o)
 .debug_loc     0x00011c48       0x2b ../projeto_final_bsp/\libucosii_bsp.a(alt_irq_handler.o)
 .debug_loc     0x00011c73       0x81 ../projeto_final_bsp/\libucosii_bsp.a(alt_open.o)
 .debug_loc     0x00011cf4       0x56 ../projeto_final_bsp/\libucosii_bsp.a(alt_read.o)
 .debug_loc     0x00011d4a       0x2b ../projeto_final_bsp/\libucosii_bsp.a(alt_release_fd.o)
 .debug_loc     0x00011d75       0x2b ../projeto_final_bsp/\libucosii_bsp.a(alt_remap_cached.o)
 .debug_loc     0x00011da0       0x2b ../projeto_final_bsp/\libucosii_bsp.a(alt_remap_uncached.o)
 .debug_loc     0x00011dcb       0x56 ../projeto_final_bsp/\libucosii_bsp.a(alt_tick.o)
 .debug_loc     0x00011e21       0x56 ../projeto_final_bsp/\libucosii_bsp.a(alt_write.o)
 .debug_loc     0x00011e77       0x2b ../projeto_final_bsp/\libucosii_bsp.a(altera_nios2_qsys_irq.o)
 .debug_loc     0x00011ea2      0x1ae ../projeto_final_bsp/\libucosii_bsp.a(os_cpu_c.o)
 .debug_loc     0x00012050       0xac ../projeto_final_bsp/\libucosii_bsp.a(altera_avalon_cfi_flash_amd.o)
 .debug_loc     0x000120fc       0xac ../projeto_final_bsp/\libucosii_bsp.a(altera_avalon_cfi_flash_intel.o)
 .debug_loc     0x000121a8       0x2b ../projeto_final_bsp/\libucosii_bsp.a(altera_avalon_spi.o)
 .debug_loc     0x000121d3      0x12d ../projeto_final_bsp/\libucosii_bsp.a(allports.o)
 .debug_loc     0x00012300       0xac ../projeto_final_bsp/\libucosii_bsp.a(timeouts.o)
 .debug_loc     0x000123ac       0x56 ../projeto_final_bsp/\libucosii_bsp.a(tk_misc.o)
 .debug_loc     0x00012402       0x2b ../projeto_final_bsp/\libucosii_bsp.a(alt_iniche_fcntl.o)
 .debug_loc     0x0001242d      0x204 ../projeto_final_bsp/\libucosii_bsp.a(et_arp.o)
 .debug_loc     0x00012631       0xac ../projeto_final_bsp/\libucosii_bsp.a(iface.o)
 .debug_loc     0x000126dd      0x207 ../projeto_final_bsp/\libucosii_bsp.a(ip.o)
 .debug_loc     0x000128e4      0x2b2 ../projeto_final_bsp/\libucosii_bsp.a(ip_reasm.o)
 .debug_loc     0x00012b96       0x81 ../projeto_final_bsp/\libucosii_bsp.a(ipdemux.o)
 .debug_loc     0x00012c17       0x81 ../projeto_final_bsp/\libucosii_bsp.a(ipmc.o)
 .debug_loc     0x00012c98       0x81 ../projeto_final_bsp/\libucosii_bsp.a(ipport.o)
 .debug_loc     0x00012d19      0x102 ../projeto_final_bsp/\libucosii_bsp.a(ipraw.o)
 .debug_loc     0x00012e1b       0x81 ../projeto_final_bsp/\libucosii_bsp.a(iproute.o)
 .debug_loc     0x00012e9c      0x12f ../projeto_final_bsp/\libucosii_bsp.a(udp.o)
 .debug_loc     0x00012fcb       0x2b ../projeto_final_bsp/\libucosii_bsp.a(igmp.o)
 .debug_loc     0x00012ff6       0xd7 ../projeto_final_bsp/\libucosii_bsp.a(igmp2.o)
 .debug_loc     0x000130cd       0xac ../projeto_final_bsp/\libucosii_bsp.a(ipopt.o)
 .debug_loc     0x00013179       0x56 ../projeto_final_bsp/\libucosii_bsp.a(dhcsetup.o)
 .debug_loc     0x000131cf      0x183 ../projeto_final_bsp/\libucosii_bsp.a(memdev.o)
 .debug_loc     0x00013352       0x2b ../projeto_final_bsp/\libucosii_bsp.a(tcpcksum.o)
 .debug_loc     0x0001337d      0x158 ../projeto_final_bsp/\libucosii_bsp.a(in_pcb.o)
 .debug_loc     0x000134d5      0x4b4 ../projeto_final_bsp/\libucosii_bsp.a(vfsfiles.o)
 .debug_loc     0x00013989       0x2b ../projeto_final_bsp/\libucosii_bsp.a(vfsport.o)
 .debug_loc     0x000139b4       0x56 ../projeto_final_bsp/\libucosii_bsp.a(alt_fcntl.o)
 .debug_loc     0x00013a0a       0x2b ../projeto_final_bsp/\libucosii_bsp.a(alt_find_file.o)
 .debug_loc     0x00013a35       0x2b ../projeto_final_bsp/\libucosii_bsp.a(alt_get_fd.o)
 .debug_loc     0x00013a60       0xad ../projeto_final_bsp/\libucosii_bsp.a(icmp.o)
 .debug_loc     0x00013b0d       0x1e d:/altera/13.0sp1/nios2eds/bin/gnu/h-i686-mingw32/bin/../lib/gcc/nios2-elf/4.1.2/../../../../nios2-elf/lib\libc.a(lib_a-atexit.o)
 .debug_loc     0x00013b2b       0x3c d:/altera/13.0sp1/nios2eds/bin/gnu/h-i686-mingw32/bin/../lib/gcc/nios2-elf/4.1.2/../../../../nios2-elf/lib\libc.a(lib_a-calloc.o)
 .debug_loc     0x00013b67       0x3c d:/altera/13.0sp1/nios2eds/bin/gnu/h-i686-mingw32/bin/../lib/gcc/nios2-elf/4.1.2/../../../../nios2-elf/lib\libc.a(lib_a-malloc.o)
 .debug_loc     0x00013ba3      0x114 d:/altera/13.0sp1/nios2eds/bin/gnu/h-i686-mingw32/bin/../lib/gcc/nios2-elf/4.1.2/../../../../nios2-elf/lib\libc.a(lib_a-memcmp.o)
 .debug_loc     0x00013cb7       0x8b d:/altera/13.0sp1/nios2eds/bin/gnu/h-i686-mingw32/bin/../lib/gcc/nios2-elf/4.1.2/../../../../nios2-elf/lib\libc.a(lib_a-strcpy.o)
 .debug_loc     0x00013d42       0x78 d:/altera/13.0sp1/nios2eds/bin/gnu/h-i686-mingw32/bin/../lib/gcc/nios2-elf/4.1.2/../../../../nios2-elf/lib\libc.a(lib_a-strncmp.o)
 .debug_loc     0x00013dba       0xeb d:/altera/13.0sp1/nios2eds/bin/gnu/h-i686-mingw32/bin/../lib/gcc/nios2-elf/4.1.2/../../../../nios2-elf/lib\libc.a(lib_a-strncpy.o)
 .debug_loc     0x00013ea5       0x8b d:/altera/13.0sp1/nios2eds/bin/gnu/h-i686-mingw32/bin/../lib/gcc/nios2-elf/4.1.2/../../../../nios2-elf/lib\libc.a(lib_a-vprintf.o)
 .debug_loc     0x00013f30       0xd1 d:/altera/13.0sp1/nios2eds/bin/gnu/h-i686-mingw32/bin/../lib/gcc/nios2-elf/4.1.2/../../../../nios2-elf/lib\libc.a(lib_a-vsprintf.o)
 .debug_loc     0x00014001      0x120 d:/altera/13.0sp1/nios2eds/bin/gnu/h-i686-mingw32/bin/../lib/gcc/nios2-elf/4.1.2/../../../../nios2-elf/lib\libc.a(lib_a-__atexit.o)

.debug_macinfo
 *(.debug_macinfo)

.debug_weaknames
 *(.debug_weaknames)

.debug_funcnames
 *(.debug_funcnames)

.debug_typenames
 *(.debug_typenames)

.debug_varnames
 *(.debug_varnames)

.debug_alt_sim_info
                0x00000000       0x50
 *(.debug_alt_sim_info)
 .debug_alt_sim_info
                0x00000000       0x20 ../projeto_final_bsp//obj/HAL/src/crt0.o
 .debug_alt_sim_info
                0x00000020       0x30 ../projeto_final_bsp/\libucosii_bsp.a(alt_busy_sleep.o)
                0x01000000                __alt_data_end = 0x1000000
                0x01000000                PROVIDE (__alt_stack_pointer, __alt_data_end)
                0x008582c4                PROVIDE (__alt_stack_limit, __alt_stack_base)
                0x008582c4                PROVIDE (__alt_heap_start, end)
                0x01000000                PROVIDE (__alt_heap_limit, 0x1000000)
OUTPUT(projeto_final.elf elf32-littlenios2)

.debug_ranges   0x00000000      0x9a0
 .debug_ranges  0x00000000       0x30 d:/altera/13.0sp1/nios2eds/bin/gnu/h-i686-mingw32/bin/../lib/gcc/nios2-elf/4.1.2\libgcc.a(_addsub_df.o)
 .debug_ranges  0x00000030       0x88 d:/altera/13.0sp1/nios2eds/bin/gnu/h-i686-mingw32/bin/../lib/gcc/nios2-elf/4.1.2\libgcc.a(_mul_df.o)
 .debug_ranges  0x000000b8       0x18 d:/altera/13.0sp1/nios2eds/bin/gnu/h-i686-mingw32/bin/../lib/gcc/nios2-elf/4.1.2\libgcc.a(_usi_to_df.o)
 .debug_ranges  0x000000d0       0x68 d:/altera/13.0sp1/nios2eds/bin/gnu/h-i686-mingw32/bin/../lib/gcc/nios2-elf/4.1.2\libgcc.a(_muldi3.o)
 .debug_ranges  0x00000138       0x28 d:/altera/13.0sp1/nios2eds/bin/gnu/h-i686-mingw32/bin/../lib/gcc/nios2-elf/4.1.2\libgcc.a(_clzsi2.o)
 .debug_ranges  0x00000160       0x28 d:/altera/13.0sp1/nios2eds/bin/gnu/h-i686-mingw32/bin/../lib/gcc/nios2-elf/4.1.2\libgcc.a(_pack_df.o)
 .debug_ranges  0x00000188      0x168 d:/altera/13.0sp1/nios2eds/bin/gnu/h-i686-mingw32/bin/../lib/gcc/nios2-elf/4.1.2/../../../../nios2-elf/lib\libc.a(lib_a-vfprintf.o)
 .debug_ranges  0x000002f0       0x18 d:/altera/13.0sp1/nios2eds/bin/gnu/h-i686-mingw32/bin/../lib/gcc/nios2-elf/4.1.2/../../../../nios2-elf/lib\libc.a(lib_a-__call_atexit.o)
 .debug_ranges  0x00000308       0x20 d:/altera/13.0sp1/nios2eds/bin/gnu/h-i686-mingw32/bin/../lib/gcc/nios2-elf/4.1.2/../../../../nios2-elf/lib\libc.a(lib_a-fflush.o)
 .debug_ranges  0x00000328       0x28 d:/altera/13.0sp1/nios2eds/bin/gnu/h-i686-mingw32/bin/../lib/gcc/nios2-elf/4.1.2/../../../../nios2-elf/lib\libc.a(lib_a-fvwrite.o)
 .debug_ranges  0x00000350       0xa0 d:/altera/13.0sp1/nios2eds/bin/gnu/h-i686-mingw32/bin/../lib/gcc/nios2-elf/4.1.2/../../../../nios2-elf/lib\libc.a(lib_a-fwalk.o)
 .debug_ranges  0x000003f0       0x70 d:/altera/13.0sp1/nios2eds/bin/gnu/h-i686-mingw32/bin/../lib/gcc/nios2-elf/4.1.2/../../../../nios2-elf/lib\libc.a(lib_a-mallocr.o)
 .debug_ranges  0x00000460      0x110 d:/altera/13.0sp1/nios2eds/bin/gnu/h-i686-mingw32/bin/../lib/gcc/nios2-elf/4.1.2/../../../../nios2-elf/lib\libc.a(lib_a-reallocr.o)
 .debug_ranges  0x00000570       0x38 d:/altera/13.0sp1/nios2eds/bin/gnu/h-i686-mingw32/bin/../lib/gcc/nios2-elf/4.1.2/../../../../nios2-elf/lib\libc.a(lib_a-callocr.o)
 .debug_ranges  0x000005a8      0x188 d:/altera/13.0sp1/nios2eds/bin/gnu/h-i686-mingw32/bin/../lib/gcc/nios2-elf/4.1.2\libgcc.a(_udivdi3.o)
 .debug_ranges  0x00000730      0x198 d:/altera/13.0sp1/nios2eds/bin/gnu/h-i686-mingw32/bin/../lib/gcc/nios2-elf/4.1.2\libgcc.a(_umoddi3.o)
 .debug_ranges  0x000008c8       0x50 d:/altera/13.0sp1/nios2eds/bin/gnu/h-i686-mingw32/bin/../lib/gcc/nios2-elf/4.1.2\libgcc.a(_div_df.o)
 .debug_ranges  0x00000918       0x18 ../projeto_final_bsp/\libucosii_bsp.a(altera_avalon_jtag_uart_init.o)
 .debug_ranges  0x00000930       0x18 ../projeto_final_bsp/\libucosii_bsp.a(altera_avalon_uart_init.o)
 .debug_ranges  0x00000948       0x28 ../projeto_final_bsp/\libucosii_bsp.a(alt_irq_entry.o)
 .debug_ranges  0x00000970       0x30 ../projeto_final_bsp/\libucosii_bsp.a(alt_exception_entry.o)
