Archive member included because of file (symbol)

d:/altera/13.0sp1/nios2eds/bin/gnu/h-i686-mingw32/bin/../lib/gcc/nios2-elf/4.1.2\libgcc.a(_fixunsdfsi.o)
                              obj/default/dm9000a.o (__fixunsdfsi)
d:/altera/13.0sp1/nios2eds/bin/gnu/h-i686-mingw32/bin/../lib/gcc/nios2-elf/4.1.2\libgcc.a(_addsub_df.o)
                              d:/altera/13.0sp1/nios2eds/bin/gnu/h-i686-mingw32/bin/../lib/gcc/nios2-elf/4.1.2\libgcc.a(_fixunsdfsi.o) (__subdf3)
d:/altera/13.0sp1/nios2eds/bin/gnu/h-i686-mingw32/bin/../lib/gcc/nios2-elf/4.1.2\libgcc.a(_mul_df.o)
                              obj/default/dm9000a.o (__muldf3)
d:/altera/13.0sp1/nios2eds/bin/gnu/h-i686-mingw32/bin/../lib/gcc/nios2-elf/4.1.2\libgcc.a(_ge_df.o)
                              d:/altera/13.0sp1/nios2eds/bin/gnu/h-i686-mingw32/bin/../lib/gcc/nios2-elf/4.1.2\libgcc.a(_fixunsdfsi.o) (__gedf2)
d:/altera/13.0sp1/nios2eds/bin/gnu/h-i686-mingw32/bin/../lib/gcc/nios2-elf/4.1.2\libgcc.a(_df_to_si.o)
                              d:/altera/13.0sp1/nios2eds/bin/gnu/h-i686-mingw32/bin/../lib/gcc/nios2-elf/4.1.2\libgcc.a(_fixunsdfsi.o) (__fixdfsi)
d:/altera/13.0sp1/nios2eds/bin/gnu/h-i686-mingw32/bin/../lib/gcc/nios2-elf/4.1.2\libgcc.a(_thenan_df.o)
                              d:/altera/13.0sp1/nios2eds/bin/gnu/h-i686-mingw32/bin/../lib/gcc/nios2-elf/4.1.2\libgcc.a(_addsub_df.o) (__thenan_df)
d:/altera/13.0sp1/nios2eds/bin/gnu/h-i686-mingw32/bin/../lib/gcc/nios2-elf/4.1.2\libgcc.a(_usi_to_df.o)
                              obj/default/dm9000a.o (__floatunsidf)
d:/altera/13.0sp1/nios2eds/bin/gnu/h-i686-mingw32/bin/../lib/gcc/nios2-elf/4.1.2\libgcc.a(_muldi3.o)
                              d:/altera/13.0sp1/nios2eds/bin/gnu/h-i686-mingw32/bin/../lib/gcc/nios2-elf/4.1.2\libgcc.a(_mul_df.o) (__muldi3)
d:/altera/13.0sp1/nios2eds/bin/gnu/h-i686-mingw32/bin/../lib/gcc/nios2-elf/4.1.2\libgcc.a(_clzsi2.o)
                              d:/altera/13.0sp1/nios2eds/bin/gnu/h-i686-mingw32/bin/../lib/gcc/nios2-elf/4.1.2\libgcc.a(_usi_to_df.o) (__clzsi2)
d:/altera/13.0sp1/nios2eds/bin/gnu/h-i686-mingw32/bin/../lib/gcc/nios2-elf/4.1.2\libgcc.a(_pack_df.o)
                              d:/altera/13.0sp1/nios2eds/bin/gnu/h-i686-mingw32/bin/../lib/gcc/nios2-elf/4.1.2\libgcc.a(_addsub_df.o) (__pack_d)
d:/altera/13.0sp1/nios2eds/bin/gnu/h-i686-mingw32/bin/../lib/gcc/nios2-elf/4.1.2\libgcc.a(_unpack_df.o)
                              d:/altera/13.0sp1/nios2eds/bin/gnu/h-i686-mingw32/bin/../lib/gcc/nios2-elf/4.1.2\libgcc.a(_addsub_df.o) (__unpack_d)
d:/altera/13.0sp1/nios2eds/bin/gnu/h-i686-mingw32/bin/../lib/gcc/nios2-elf/4.1.2\libgcc.a(_fpcmp_parts_df.o)
                              d:/altera/13.0sp1/nios2eds/bin/gnu/h-i686-mingw32/bin/../lib/gcc/nios2-elf/4.1.2\libgcc.a(_ge_df.o) (__fpcmp_parts_d)
d:/altera/13.0sp1/nios2eds/bin/gnu/h-i686-mingw32/bin/../lib/gcc/nios2-elf/4.1.2\libgcc.a(_clz.o)
                              d:/altera/13.0sp1/nios2eds/bin/gnu/h-i686-mingw32/bin/../lib/gcc/nios2-elf/4.1.2\libgcc.a(_clzsi2.o) (__clz_tab)
d:/altera/13.0sp1/nios2eds/bin/gnu/h-i686-mingw32/bin/../lib/gcc/nios2-elf/4.1.2/../../../../nios2-elf/lib\libc.a(lib_a-atoi.o)
                              obj/default/iniche_init.o (atoi)
d:/altera/13.0sp1/nios2eds/bin/gnu/h-i686-mingw32/bin/../lib/gcc/nios2-elf/4.1.2/../../../../nios2-elf/lib\libc.a(lib_a-ctype_.o)
                              obj/default/network_utilities.o (__ctype_ptr)
d:/altera/13.0sp1/nios2eds/bin/gnu/h-i686-mingw32/bin/../lib/gcc/nios2-elf/4.1.2/../../../../nios2-elf/lib\libc.a(lib_a-errno.o)
                              obj/default/iniche_init.o (__errno)
d:/altera/13.0sp1/nios2eds/bin/gnu/h-i686-mingw32/bin/../lib/gcc/nios2-elf/4.1.2/../../../../nios2-elf/lib\libc.a(lib_a-exit.o)
                              obj/default/iniche_init.o (exit)
d:/altera/13.0sp1/nios2eds/bin/gnu/h-i686-mingw32/bin/../lib/gcc/nios2-elf/4.1.2/../../../../nios2-elf/lib\libc.a(lib_a-fprintf.o)
                              obj/default/alt_error_handler.o (fprintf)
d:/altera/13.0sp1/nios2eds/bin/gnu/h-i686-mingw32/bin/../lib/gcc/nios2-elf/4.1.2/../../../../nios2-elf/lib\libc.a(lib_a-fwrite.o)
                              obj/default/alt_error_handler.o (fwrite)
d:/altera/13.0sp1/nios2eds/bin/gnu/h-i686-mingw32/bin/../lib/gcc/nios2-elf/4.1.2/../../../../nios2-elf/lib\libc.a(lib_a-getc.o)
                              obj/default/network_utilities.o (getc)
d:/altera/13.0sp1/nios2eds/bin/gnu/h-i686-mingw32/bin/../lib/gcc/nios2-elf/4.1.2/../../../../nios2-elf/lib\libc.a(lib_a-impure.o)
                              obj/default/alt_error_handler.o (_impure_ptr)
d:/altera/13.0sp1/nios2eds/bin/gnu/h-i686-mingw32/bin/../lib/gcc/nios2-elf/4.1.2/../../../../nios2-elf/lib\libc.a(lib_a-memcpy.o)
                              obj/default/simple_socket_server.o (memcpy)
d:/altera/13.0sp1/nios2eds/bin/gnu/h-i686-mingw32/bin/../lib/gcc/nios2-elf/4.1.2/../../../../nios2-elf/lib\libc.a(lib_a-memmove.o)
                              obj/default/simple_socket_server.o (memmove)
d:/altera/13.0sp1/nios2eds/bin/gnu/h-i686-mingw32/bin/../lib/gcc/nios2-elf/4.1.2/../../../../nios2-elf/lib\libc.a(lib_a-memset.o)
                              obj/default/iniche_init.o (memset)
d:/altera/13.0sp1/nios2eds/bin/gnu/h-i686-mingw32/bin/../lib/gcc/nios2-elf/4.1.2/../../../../nios2-elf/lib\libc.a(lib_a-perror.o)
                              obj/default/alt_error_handler.o (perror)
d:/altera/13.0sp1/nios2eds/bin/gnu/h-i686-mingw32/bin/../lib/gcc/nios2-elf/4.1.2/../../../../nios2-elf/lib\libc.a(lib_a-printf.o)
                              obj/default/SSS_DE2_115.o (printf)
d:/altera/13.0sp1/nios2eds/bin/gnu/h-i686-mingw32/bin/../lib/gcc/nios2-elf/4.1.2/../../../../nios2-elf/lib\libc.a(lib_a-putc.o)
                              obj/default/network_utilities.o (putc)
d:/altera/13.0sp1/nios2eds/bin/gnu/h-i686-mingw32/bin/../lib/gcc/nios2-elf/4.1.2/../../../../nios2-elf/lib\libc.a(lib_a-putchar.o)
                              obj/default/network_utilities.o (putchar)
d:/altera/13.0sp1/nios2eds/bin/gnu/h-i686-mingw32/bin/../lib/gcc/nios2-elf/4.1.2/../../../../nios2-elf/lib\libc.a(lib_a-puts.o)
                              obj/default/SSS_DE2_115.o (puts)
d:/altera/13.0sp1/nios2eds/bin/gnu/h-i686-mingw32/bin/../lib/gcc/nios2-elf/4.1.2/../../../../nios2-elf/lib\libc.a(lib_a-rget.o)
                              d:/altera/13.0sp1/nios2eds/bin/gnu/h-i686-mingw32/bin/../lib/gcc/nios2-elf/4.1.2/../../../../nios2-elf/lib\libc.a(lib_a-getc.o) (__srget_r)
d:/altera/13.0sp1/nios2eds/bin/gnu/h-i686-mingw32/bin/../lib/gcc/nios2-elf/4.1.2/../../../../nios2-elf/lib\libc.a(lib_a-strchr.o)
                              obj/default/simple_socket_server.o (strchr)
d:/altera/13.0sp1/nios2eds/bin/gnu/h-i686-mingw32/bin/../lib/gcc/nios2-elf/4.1.2/../../../../nios2-elf/lib\libc.a(lib_a-strcmp.o)
                              obj/default/iniche_init.o (strcmp)
d:/altera/13.0sp1/nios2eds/bin/gnu/h-i686-mingw32/bin/../lib/gcc/nios2-elf/4.1.2/../../../../nios2-elf/lib\libc.a(lib_a-strerror.o)
                              obj/default/iniche_init.o (strerror)
d:/altera/13.0sp1/nios2eds/bin/gnu/h-i686-mingw32/bin/../lib/gcc/nios2-elf/4.1.2/../../../../nios2-elf/lib\libc.a(lib_a-strlen.o)
                              obj/default/LCD.o (strlen)
d:/altera/13.0sp1/nios2eds/bin/gnu/h-i686-mingw32/bin/../lib/gcc/nios2-elf/4.1.2/../../../../nios2-elf/lib\libc.a(lib_a-strtol.o)
                              d:/altera/13.0sp1/nios2eds/bin/gnu/h-i686-mingw32/bin/../lib/gcc/nios2-elf/4.1.2/../../../../nios2-elf/lib\libc.a(lib_a-atoi.o) (_strtol_r)
d:/altera/13.0sp1/nios2eds/bin/gnu/h-i686-mingw32/bin/../lib/gcc/nios2-elf/4.1.2/../../../../nios2-elf/lib\libc.a(lib_a-u_strerr.o)
                              d:/altera/13.0sp1/nios2eds/bin/gnu/h-i686-mingw32/bin/../lib/gcc/nios2-elf/4.1.2/../../../../nios2-elf/lib\libc.a(lib_a-strerror.o) (_user_strerror)
d:/altera/13.0sp1/nios2eds/bin/gnu/h-i686-mingw32/bin/../lib/gcc/nios2-elf/4.1.2/../../../../nios2-elf/lib\libc.a(lib_a-vfprintf.o)
                              d:/altera/13.0sp1/nios2eds/bin/gnu/h-i686-mingw32/bin/../lib/gcc/nios2-elf/4.1.2/../../../../nios2-elf/lib\libc.a(lib_a-printf.o) (___vfprintf_internal_r)
d:/altera/13.0sp1/nios2eds/bin/gnu/h-i686-mingw32/bin/../lib/gcc/nios2-elf/4.1.2/../../../../nios2-elf/lib\libc.a(lib_a-wbuf.o)
                              d:/altera/13.0sp1/nios2eds/bin/gnu/h-i686-mingw32/bin/../lib/gcc/nios2-elf/4.1.2/../../../../nios2-elf/lib\libc.a(lib_a-putc.o) (__swbuf_r)
d:/altera/13.0sp1/nios2eds/bin/gnu/h-i686-mingw32/bin/../lib/gcc/nios2-elf/4.1.2/../../../../nios2-elf/lib\libc.a(lib_a-wsetup.o)
                              d:/altera/13.0sp1/nios2eds/bin/gnu/h-i686-mingw32/bin/../lib/gcc/nios2-elf/4.1.2/../../../../nios2-elf/lib\libc.a(lib_a-vfprintf.o) (__swsetup_r)
d:/altera/13.0sp1/nios2eds/bin/gnu/h-i686-mingw32/bin/../lib/gcc/nios2-elf/4.1.2/../../../../nios2-elf/lib\libc.a(lib_a-__call_atexit.o)
                              d:/altera/13.0sp1/nios2eds/bin/gnu/h-i686-mingw32/bin/../lib/gcc/nios2-elf/4.1.2/../../../../nios2-elf/lib\libc.a(lib_a-exit.o) (__call_exitprocs)
d:/altera/13.0sp1/nios2eds/bin/gnu/h-i686-mingw32/bin/../lib/gcc/nios2-elf/4.1.2/../../../../nios2-elf/lib\libc.a(lib_a-dtoa.o)
                              d:/altera/13.0sp1/nios2eds/bin/gnu/h-i686-mingw32/bin/../lib/gcc/nios2-elf/4.1.2/../../../../nios2-elf/lib\libc.a(lib_a-vfprintf.o) (_dtoa_r)
d:/altera/13.0sp1/nios2eds/bin/gnu/h-i686-mingw32/bin/../lib/gcc/nios2-elf/4.1.2/../../../../nios2-elf/lib\libc.a(lib_a-fflush.o)
                              d:/altera/13.0sp1/nios2eds/bin/gnu/h-i686-mingw32/bin/../lib/gcc/nios2-elf/4.1.2/../../../../nios2-elf/lib\libc.a(lib_a-vfprintf.o) (_fflush_r)
d:/altera/13.0sp1/nios2eds/bin/gnu/h-i686-mingw32/bin/../lib/gcc/nios2-elf/4.1.2/../../../../nios2-elf/lib\libc.a(lib_a-findfp.o)
                              d:/altera/13.0sp1/nios2eds/bin/gnu/h-i686-mingw32/bin/../lib/gcc/nios2-elf/4.1.2/../../../../nios2-elf/lib\libc.a(lib_a-fwrite.o) (__sinit)
d:/altera/13.0sp1/nios2eds/bin/gnu/h-i686-mingw32/bin/../lib/gcc/nios2-elf/4.1.2/../../../../nios2-elf/lib\libc.a(lib_a-fputc.o)
                              d:/altera/13.0sp1/nios2eds/bin/gnu/h-i686-mingw32/bin/../lib/gcc/nios2-elf/4.1.2/../../../../nios2-elf/lib\libc.a(lib_a-perror.o) (fputc)
d:/altera/13.0sp1/nios2eds/bin/gnu/h-i686-mingw32/bin/../lib/gcc/nios2-elf/4.1.2/../../../../nios2-elf/lib\libc.a(lib_a-fputs.o)
                              d:/altera/13.0sp1/nios2eds/bin/gnu/h-i686-mingw32/bin/../lib/gcc/nios2-elf/4.1.2/../../../../nios2-elf/lib\libc.a(lib_a-perror.o) (fputs)
d:/altera/13.0sp1/nios2eds/bin/gnu/h-i686-mingw32/bin/../lib/gcc/nios2-elf/4.1.2/../../../../nios2-elf/lib\libc.a(lib_a-freer.o)
                              d:/altera/13.0sp1/nios2eds/bin/gnu/h-i686-mingw32/bin/../lib/gcc/nios2-elf/4.1.2/../../../../nios2-elf/lib\libc.a(lib_a-wsetup.o) (_free_r)
d:/altera/13.0sp1/nios2eds/bin/gnu/h-i686-mingw32/bin/../lib/gcc/nios2-elf/4.1.2/../../../../nios2-elf/lib\libc.a(lib_a-fvwrite.o)
                              d:/altera/13.0sp1/nios2eds/bin/gnu/h-i686-mingw32/bin/../lib/gcc/nios2-elf/4.1.2/../../../../nios2-elf/lib\libc.a(lib_a-fwrite.o) (__sfvwrite_r)
d:/altera/13.0sp1/nios2eds/bin/gnu/h-i686-mingw32/bin/../lib/gcc/nios2-elf/4.1.2/../../../../nios2-elf/lib\libc.a(lib_a-fwalk.o)
                              d:/altera/13.0sp1/nios2eds/bin/gnu/h-i686-mingw32/bin/../lib/gcc/nios2-elf/4.1.2/../../../../nios2-elf/lib\libc.a(lib_a-fflush.o) (_fwalk_reent)
d:/altera/13.0sp1/nios2eds/bin/gnu/h-i686-mingw32/bin/../lib/gcc/nios2-elf/4.1.2/../../../../nios2-elf/lib\libc.a(lib_a-locale.o)
                              d:/altera/13.0sp1/nios2eds/bin/gnu/h-i686-mingw32/bin/../lib/gcc/nios2-elf/4.1.2/../../../../nios2-elf/lib\libc.a(lib_a-vfprintf.o) (_localeconv_r)
d:/altera/13.0sp1/nios2eds/bin/gnu/h-i686-mingw32/bin/../lib/gcc/nios2-elf/4.1.2/../../../../nios2-elf/lib\libc.a(lib_a-makebuf.o)
                              d:/altera/13.0sp1/nios2eds/bin/gnu/h-i686-mingw32/bin/../lib/gcc/nios2-elf/4.1.2/../../../../nios2-elf/lib\libc.a(lib_a-wsetup.o) (__smakebuf_r)
d:/altera/13.0sp1/nios2eds/bin/gnu/h-i686-mingw32/bin/../lib/gcc/nios2-elf/4.1.2/../../../../nios2-elf/lib\libc.a(lib_a-mallocr.o)
                              d:/altera/13.0sp1/nios2eds/bin/gnu/h-i686-mingw32/bin/../lib/gcc/nios2-elf/4.1.2/../../../../nios2-elf/lib\libc.a(lib_a-findfp.o) (_malloc_r)
d:/altera/13.0sp1/nios2eds/bin/gnu/h-i686-mingw32/bin/../lib/gcc/nios2-elf/4.1.2/../../../../nios2-elf/lib\libc.a(lib_a-memchr.o)
                              d:/altera/13.0sp1/nios2eds/bin/gnu/h-i686-mingw32/bin/../lib/gcc/nios2-elf/4.1.2/../../../../nios2-elf/lib\libc.a(lib_a-vfprintf.o) (memchr)
d:/altera/13.0sp1/nios2eds/bin/gnu/h-i686-mingw32/bin/../lib/gcc/nios2-elf/4.1.2/../../../../nios2-elf/lib\libc.a(lib_a-mprec.o)
                              d:/altera/13.0sp1/nios2eds/bin/gnu/h-i686-mingw32/bin/../lib/gcc/nios2-elf/4.1.2/../../../../nios2-elf/lib\libc.a(lib_a-dtoa.o) (_Bfree)
d:/altera/13.0sp1/nios2eds/bin/gnu/h-i686-mingw32/bin/../lib/gcc/nios2-elf/4.1.2/../../../../nios2-elf/lib\libc.a(lib_a-reallocr.o)
                              d:/altera/13.0sp1/nios2eds/bin/gnu/h-i686-mingw32/bin/../lib/gcc/nios2-elf/4.1.2/../../../../nios2-elf/lib\libc.a(lib_a-fvwrite.o) (_realloc_r)
d:/altera/13.0sp1/nios2eds/bin/gnu/h-i686-mingw32/bin/../lib/gcc/nios2-elf/4.1.2/../../../../nios2-elf/lib\libc.a(lib_a-refill.o)
                              d:/altera/13.0sp1/nios2eds/bin/gnu/h-i686-mingw32/bin/../lib/gcc/nios2-elf/4.1.2/../../../../nios2-elf/lib\libc.a(lib_a-rget.o) (__srefill_r)
d:/altera/13.0sp1/nios2eds/bin/gnu/h-i686-mingw32/bin/../lib/gcc/nios2-elf/4.1.2/../../../../nios2-elf/lib\libc.a(lib_a-s_isinfd.o)
                              d:/altera/13.0sp1/nios2eds/bin/gnu/h-i686-mingw32/bin/../lib/gcc/nios2-elf/4.1.2/../../../../nios2-elf/lib\libc.a(lib_a-vfprintf.o) (__isinfd)
d:/altera/13.0sp1/nios2eds/bin/gnu/h-i686-mingw32/bin/../lib/gcc/nios2-elf/4.1.2/../../../../nios2-elf/lib\libc.a(lib_a-s_isnand.o)
                              d:/altera/13.0sp1/nios2eds/bin/gnu/h-i686-mingw32/bin/../lib/gcc/nios2-elf/4.1.2/../../../../nios2-elf/lib\libc.a(lib_a-vfprintf.o) (__isnand)
d:/altera/13.0sp1/nios2eds/bin/gnu/h-i686-mingw32/bin/../lib/gcc/nios2-elf/4.1.2/../../../../nios2-elf/lib\libc.a(lib_a-sbrkr.o)
                              d:/altera/13.0sp1/nios2eds/bin/gnu/h-i686-mingw32/bin/../lib/gcc/nios2-elf/4.1.2/../../../../nios2-elf/lib\libc.a(lib_a-freer.o) (_sbrk_r)
d:/altera/13.0sp1/nios2eds/bin/gnu/h-i686-mingw32/bin/../lib/gcc/nios2-elf/4.1.2/../../../../nios2-elf/lib\libc.a(lib_a-stdio.o)
                              d:/altera/13.0sp1/nios2eds/bin/gnu/h-i686-mingw32/bin/../lib/gcc/nios2-elf/4.1.2/../../../../nios2-elf/lib\libc.a(lib_a-findfp.o) (__sclose)
d:/altera/13.0sp1/nios2eds/bin/gnu/h-i686-mingw32/bin/../lib/gcc/nios2-elf/4.1.2/../../../../nios2-elf/lib\libc.a(lib_a-writer.o)
                              d:/altera/13.0sp1/nios2eds/bin/gnu/h-i686-mingw32/bin/../lib/gcc/nios2-elf/4.1.2/../../../../nios2-elf/lib\libc.a(lib_a-stdio.o) (_write_r)
d:/altera/13.0sp1/nios2eds/bin/gnu/h-i686-mingw32/bin/../lib/gcc/nios2-elf/4.1.2/../../../../nios2-elf/lib\libc.a(lib_a-callocr.o)
                              d:/altera/13.0sp1/nios2eds/bin/gnu/h-i686-mingw32/bin/../lib/gcc/nios2-elf/4.1.2/../../../../nios2-elf/lib\libc.a(lib_a-mprec.o) (_calloc_r)
d:/altera/13.0sp1/nios2eds/bin/gnu/h-i686-mingw32/bin/../lib/gcc/nios2-elf/4.1.2/../../../../nios2-elf/lib\libc.a(lib_a-closer.o)
                              d:/altera/13.0sp1/nios2eds/bin/gnu/h-i686-mingw32/bin/../lib/gcc/nios2-elf/4.1.2/../../../../nios2-elf/lib\libc.a(lib_a-stdio.o) (_close_r)
d:/altera/13.0sp1/nios2eds/bin/gnu/h-i686-mingw32/bin/../lib/gcc/nios2-elf/4.1.2/../../../../nios2-elf/lib\libc.a(lib_a-fclose.o)
                              d:/altera/13.0sp1/nios2eds/bin/gnu/h-i686-mingw32/bin/../lib/gcc/nios2-elf/4.1.2/../../../../nios2-elf/lib\libc.a(lib_a-findfp.o) (fclose)
d:/altera/13.0sp1/nios2eds/bin/gnu/h-i686-mingw32/bin/../lib/gcc/nios2-elf/4.1.2/../../../../nios2-elf/lib\libc.a(lib_a-fstatr.o)
                              d:/altera/13.0sp1/nios2eds/bin/gnu/h-i686-mingw32/bin/../lib/gcc/nios2-elf/4.1.2/../../../../nios2-elf/lib\libc.a(lib_a-makebuf.o) (_fstat_r)
d:/altera/13.0sp1/nios2eds/bin/gnu/h-i686-mingw32/bin/../lib/gcc/nios2-elf/4.1.2/../../../../nios2-elf/lib\libc.a(lib_a-int_errno.o)
                              d:/altera/13.0sp1/nios2eds/bin/gnu/h-i686-mingw32/bin/../lib/gcc/nios2-elf/4.1.2/../../../../nios2-elf/lib\libc.a(lib_a-sbrkr.o) (errno)
d:/altera/13.0sp1/nios2eds/bin/gnu/h-i686-mingw32/bin/../lib/gcc/nios2-elf/4.1.2/../../../../nios2-elf/lib\libc.a(lib_a-isattyr.o)
                              d:/altera/13.0sp1/nios2eds/bin/gnu/h-i686-mingw32/bin/../lib/gcc/nios2-elf/4.1.2/../../../../nios2-elf/lib\libc.a(lib_a-makebuf.o) (_isatty_r)
d:/altera/13.0sp1/nios2eds/bin/gnu/h-i686-mingw32/bin/../lib/gcc/nios2-elf/4.1.2/../../../../nios2-elf/lib\libc.a(lib_a-lseekr.o)
                              d:/altera/13.0sp1/nios2eds/bin/gnu/h-i686-mingw32/bin/../lib/gcc/nios2-elf/4.1.2/../../../../nios2-elf/lib\libc.a(lib_a-stdio.o) (_lseek_r)
d:/altera/13.0sp1/nios2eds/bin/gnu/h-i686-mingw32/bin/../lib/gcc/nios2-elf/4.1.2/../../../../nios2-elf/lib\libc.a(lib_a-readr.o)
                              d:/altera/13.0sp1/nios2eds/bin/gnu/h-i686-mingw32/bin/../lib/gcc/nios2-elf/4.1.2/../../../../nios2-elf/lib\libc.a(lib_a-stdio.o) (_read_r)
d:/altera/13.0sp1/nios2eds/bin/gnu/h-i686-mingw32/bin/../lib/gcc/nios2-elf/4.1.2\libgcc.a(_udivdi3.o)
                              d:/altera/13.0sp1/nios2eds/bin/gnu/h-i686-mingw32/bin/../lib/gcc/nios2-elf/4.1.2/../../../../nios2-elf/lib\libc.a(lib_a-vfprintf.o) (__udivdi3)
d:/altera/13.0sp1/nios2eds/bin/gnu/h-i686-mingw32/bin/../lib/gcc/nios2-elf/4.1.2\libgcc.a(_umoddi3.o)
                              d:/altera/13.0sp1/nios2eds/bin/gnu/h-i686-mingw32/bin/../lib/gcc/nios2-elf/4.1.2/../../../../nios2-elf/lib\libc.a(lib_a-vfprintf.o) (__umoddi3)
d:/altera/13.0sp1/nios2eds/bin/gnu/h-i686-mingw32/bin/../lib/gcc/nios2-elf/4.1.2\libgcc.a(_div_df.o)
                              d:/altera/13.0sp1/nios2eds/bin/gnu/h-i686-mingw32/bin/../lib/gcc/nios2-elf/4.1.2/../../../../nios2-elf/lib\libc.a(lib_a-dtoa.o) (__divdf3)
d:/altera/13.0sp1/nios2eds/bin/gnu/h-i686-mingw32/bin/../lib/gcc/nios2-elf/4.1.2\libgcc.a(_eq_df.o)
                              d:/altera/13.0sp1/nios2eds/bin/gnu/h-i686-mingw32/bin/../lib/gcc/nios2-elf/4.1.2/../../../../nios2-elf/lib\libc.a(lib_a-vfprintf.o) (__eqdf2)
d:/altera/13.0sp1/nios2eds/bin/gnu/h-i686-mingw32/bin/../lib/gcc/nios2-elf/4.1.2\libgcc.a(_ne_df.o)
                              d:/altera/13.0sp1/nios2eds/bin/gnu/h-i686-mingw32/bin/../lib/gcc/nios2-elf/4.1.2/../../../../nios2-elf/lib\libc.a(lib_a-vfprintf.o) (__nedf2)
d:/altera/13.0sp1/nios2eds/bin/gnu/h-i686-mingw32/bin/../lib/gcc/nios2-elf/4.1.2\libgcc.a(_gt_df.o)
                              d:/altera/13.0sp1/nios2eds/bin/gnu/h-i686-mingw32/bin/../lib/gcc/nios2-elf/4.1.2/../../../../nios2-elf/lib\libc.a(lib_a-dtoa.o) (__gtdf2)
d:/altera/13.0sp1/nios2eds/bin/gnu/h-i686-mingw32/bin/../lib/gcc/nios2-elf/4.1.2\libgcc.a(_lt_df.o)
                              d:/altera/13.0sp1/nios2eds/bin/gnu/h-i686-mingw32/bin/../lib/gcc/nios2-elf/4.1.2/../../../../nios2-elf/lib\libc.a(lib_a-vfprintf.o) (__ltdf2)
d:/altera/13.0sp1/nios2eds/bin/gnu/h-i686-mingw32/bin/../lib/gcc/nios2-elf/4.1.2\libgcc.a(_si_to_df.o)
                              d:/altera/13.0sp1/nios2eds/bin/gnu/h-i686-mingw32/bin/../lib/gcc/nios2-elf/4.1.2/../../../../nios2-elf/lib\libc.a(lib_a-dtoa.o) (__floatsidf)
d:/altera/13.0sp1/nios2eds/bin/gnu/h-i686-mingw32/bin/../lib/gcc/nios2-elf/4.1.2\libgcc.a(lib2-divmod.o)
                              d:/altera/13.0sp1/nios2eds/bin/gnu/h-i686-mingw32/bin/../lib/gcc/nios2-elf/4.1.2/../../../../nios2-elf/lib\libc.a(lib_a-vfprintf.o) (__divsi3)
../lab7_bsp/\libucosii_bsp.a(alt_exit.o)
                              d:/altera/13.0sp1/nios2eds/bin/gnu/h-i686-mingw32/bin/../lib/gcc/nios2-elf/4.1.2/../../../../nios2-elf/lib\libc.a(lib_a-exit.o) (_exit)
../lab7_bsp/\libucosii_bsp.a(alt_flash_dev.o)
                              obj/default/SSS_DE2_115.o (alt_flash_open_dev)
../lab7_bsp/\libucosii_bsp.a(alt_fstat.o)
                              d:/altera/13.0sp1/nios2eds/bin/gnu/h-i686-mingw32/bin/../lib/gcc/nios2-elf/4.1.2/../../../../nios2-elf/lib\libc.a(lib_a-fstatr.o) (fstat)
../lab7_bsp/\libucosii_bsp.a(alt_irq_register.o)
                              obj/default/dm9000a.o (alt_irq_register)
../lab7_bsp/\libucosii_bsp.a(alt_irq_vars.o)
                              ../lab7_bsp/\libucosii_bsp.a(alt_irq_register.o) (alt_irq_active)
../lab7_bsp/\libucosii_bsp.a(alt_isatty.o)
                              d:/altera/13.0sp1/nios2eds/bin/gnu/h-i686-mingw32/bin/../lib/gcc/nios2-elf/4.1.2/../../../../nios2-elf/lib\libc.a(lib_a-isattyr.o) (isatty)
../lab7_bsp/\libucosii_bsp.a(alt_lseek.o)
                              d:/altera/13.0sp1/nios2eds/bin/gnu/h-i686-mingw32/bin/../lib/gcc/nios2-elf/4.1.2/../../../../nios2-elf/lib\libc.a(lib_a-lseekr.o) (lseek)
../lab7_bsp/\libucosii_bsp.a(alt_main.o)
                              ../lab7_bsp//obj/HAL/src/crt0.o (alt_main)
../lab7_bsp/\libucosii_bsp.a(alt_sbrk.o)
                              d:/altera/13.0sp1/nios2eds/bin/gnu/h-i686-mingw32/bin/../lib/gcc/nios2-elf/4.1.2/../../../../nios2-elf/lib\libc.a(lib_a-sbrkr.o) (sbrk)
../lab7_bsp/\libucosii_bsp.a(alt_usleep.o)
                              obj/default/LCD.o (usleep)
../lab7_bsp/\libucosii_bsp.a(alt_env_lock.o)
                              ../lab7_bsp/\libucosii_bsp.a(alt_main.o) (alt_envsem)
../lab7_bsp/\libucosii_bsp.a(alt_malloc_lock.o)
                              d:/altera/13.0sp1/nios2eds/bin/gnu/h-i686-mingw32/bin/../lib/gcc/nios2-elf/4.1.2/../../../../nios2-elf/lib\libc.a(lib_a-freer.o) (__malloc_lock)
../lab7_bsp/\libucosii_bsp.a(os_core.o)
                              ../lab7_bsp/\libucosii_bsp.a(alt_main.o) (OSInit)
../lab7_bsp/\libucosii_bsp.a(os_dbg.o)
                              ../lab7_bsp/\libucosii_bsp.a(os_core.o) (OSDebugInit)
../lab7_bsp/\libucosii_bsp.a(os_flag.o)
                              obj/default/simple_socket_server.o (OSFlagCreate)
../lab7_bsp/\libucosii_bsp.a(os_mem.o)
                              ../lab7_bsp/\libucosii_bsp.a(os_core.o) (OS_MemInit)
../lab7_bsp/\libucosii_bsp.a(os_q.o)
                              obj/default/simple_socket_server.o (OSQCreate)
../lab7_bsp/\libucosii_bsp.a(os_sem.o)
                              obj/default/simple_socket_server.o (OSSemCreate)
../lab7_bsp/\libucosii_bsp.a(os_task.o)
                              obj/default/iniche_init.o (OSTaskCreateExt)
../lab7_bsp/\libucosii_bsp.a(os_time.o)
                              obj/default/iniche_init.o (OSTimeDly)
../lab7_bsp/\libucosii_bsp.a(alt_sys_init.o)
                              ../lab7_bsp/\libucosii_bsp.a(alt_main.o) (alt_irq_init)
../lab7_bsp/\libucosii_bsp.a(altera_avalon_cfi_flash.o)
                              ../lab7_bsp/\libucosii_bsp.a(alt_sys_init.o) (alt_flash_cfi_init)
../lab7_bsp/\libucosii_bsp.a(altera_avalon_cfi_flash_table.o)
                              ../lab7_bsp/\libucosii_bsp.a(altera_avalon_cfi_flash.o) (alt_set_flash_width_func)
../lab7_bsp/\libucosii_bsp.a(altera_avalon_epcs_flash_controller.o)
                              ../lab7_bsp/\libucosii_bsp.a(alt_sys_init.o) (alt_epcs_flash_init)
../lab7_bsp/\libucosii_bsp.a(altera_avalon_jtag_uart_fd.o)
                              ../lab7_bsp/\libucosii_bsp.a(alt_sys_init.o) (altera_avalon_jtag_uart_read_fd)
../lab7_bsp/\libucosii_bsp.a(altera_avalon_jtag_uart_init.o)
                              ../lab7_bsp/\libucosii_bsp.a(alt_sys_init.o) (altera_avalon_jtag_uart_init)
../lab7_bsp/\libucosii_bsp.a(altera_avalon_jtag_uart_ioctl.o)
                              ../lab7_bsp/\libucosii_bsp.a(altera_avalon_jtag_uart_fd.o) (altera_avalon_jtag_uart_ioctl)
../lab7_bsp/\libucosii_bsp.a(altera_avalon_jtag_uart_read.o)
                              ../lab7_bsp/\libucosii_bsp.a(altera_avalon_jtag_uart_fd.o) (altera_avalon_jtag_uart_read)
../lab7_bsp/\libucosii_bsp.a(altera_avalon_jtag_uart_write.o)
                              ../lab7_bsp/\libucosii_bsp.a(altera_avalon_jtag_uart_fd.o) (altera_avalon_jtag_uart_write)
../lab7_bsp/\libucosii_bsp.a(altera_avalon_lcd_16207.o)
                              ../lab7_bsp/\libucosii_bsp.a(alt_sys_init.o) (altera_avalon_lcd_16207_init)
../lab7_bsp/\libucosii_bsp.a(altera_avalon_lcd_16207_fd.o)
                              ../lab7_bsp/\libucosii_bsp.a(alt_sys_init.o) (altera_avalon_lcd_16207_write_fd)
../lab7_bsp/\libucosii_bsp.a(altera_avalon_timer_sc.o)
                              ../lab7_bsp/\libucosii_bsp.a(alt_sys_init.o) (alt_avalon_timer_sc_init)
../lab7_bsp/\libucosii_bsp.a(altera_avalon_uart_fd.o)
                              ../lab7_bsp/\libucosii_bsp.a(alt_sys_init.o) (altera_avalon_uart_read_fd)
../lab7_bsp/\libucosii_bsp.a(altera_avalon_uart_init.o)
                              ../lab7_bsp/\libucosii_bsp.a(alt_sys_init.o) (altera_avalon_uart_init)
../lab7_bsp/\libucosii_bsp.a(altera_avalon_uart_read.o)
                              ../lab7_bsp/\libucosii_bsp.a(altera_avalon_uart_fd.o) (altera_avalon_uart_read)
../lab7_bsp/\libucosii_bsp.a(altera_avalon_uart_write.o)
                              ../lab7_bsp/\libucosii_bsp.a(altera_avalon_uart_fd.o) (altera_avalon_uart_write)
../lab7_bsp/\libucosii_bsp.a(epcs_commands.o)
                              ../lab7_bsp/\libucosii_bsp.a(altera_avalon_epcs_flash_controller.o) (epcs_sector_erase)
../lab7_bsp/\libucosii_bsp.a(alt_iniche_close.o)
                              obj/default/iniche_init.o (close)
../lab7_bsp/\libucosii_bsp.a(alt_iniche_dev.o)
                              obj/default/iniche_init.o (alt_iniche_dev_list)
../lab7_bsp/\libucosii_bsp.a(alt_iniche_read.o)
                              d:/altera/13.0sp1/nios2eds/bin/gnu/h-i686-mingw32/bin/../lib/gcc/nios2-elf/4.1.2/../../../../nios2-elf/lib\libc.a(lib_a-readr.o) (read)
../lab7_bsp/\libucosii_bsp.a(alt_iniche_write.o)
                              d:/altera/13.0sp1/nios2eds/bin/gnu/h-i686-mingw32/bin/../lib/gcc/nios2-elf/4.1.2/../../../../nios2-elf/lib\libc.a(lib_a-writer.o) (write)
../lab7_bsp/\libucosii_bsp.a(ipnet.o)
                              obj/default/dm9000a.o (rcvdq)
../lab7_bsp/\libucosii_bsp.a(ipstart.o)
                              ../lab7_bsp/\libucosii_bsp.a(ipnet.o) (ifNumber)
../lab7_bsp/\libucosii_bsp.a(igmp_cmn.o)
                              ../lab7_bsp/\libucosii_bsp.a(ipstart.o) (igmp_init)
../lab7_bsp/\libucosii_bsp.a(bsdsock.o)
                              obj/default/simple_socket_server.o (bsd_accept)
../lab7_bsp/\libucosii_bsp.a(cksum.o)
                              ../lab7_bsp/\libucosii_bsp.a(igmp_cmn.o) (cksum)
../lab7_bsp/\libucosii_bsp.a(in_utils.o)
                              ../lab7_bsp/\libucosii_bsp.a(igmp_cmn.o) (ns_printf)
../lab7_bsp/\libucosii_bsp.a(netmain.o)
                              obj/default/iniche_init.o (iniche_net_ready)
../lab7_bsp/\libucosii_bsp.a(parseip.o)
                              obj/default/iniche_init.o (inet_addr)
../lab7_bsp/\libucosii_bsp.a(tk_crnos.o)
                              ../lab7_bsp/\libucosii_bsp.a(ipnet.o) (tk_yield)
../lab7_bsp/\libucosii_bsp.a(dhcpclnt.o)
                              ../lab7_bsp/\libucosii_bsp.a(netmain.o) (dhc_second)
../lab7_bsp/\libucosii_bsp.a(dhcputil.o)
                              ../lab7_bsp/\libucosii_bsp.a(dhcpclnt.o) (find_opt)
../lab7_bsp/\libucosii_bsp.a(pktalloc.o)
                              ../lab7_bsp/\libucosii_bsp.a(ipnet.o) (pk_init)
../lab7_bsp/\libucosii_bsp.a(q.o)
                              ../lab7_bsp/\libucosii_bsp.a(ipnet.o) (getq)
../lab7_bsp/\libucosii_bsp.a(udp_open.o)
                              ../lab7_bsp/\libucosii_bsp.a(dhcpclnt.o) (udp_open)
../lab7_bsp/\libucosii_bsp.a(asm_cksum.o)
                              ../lab7_bsp/\libucosii_bsp.a(cksum.o) (asm_cksum)
../lab7_bsp/\libucosii_bsp.a(brdutils.o)
                              ../lab7_bsp/\libucosii_bsp.a(ipnet.o) (dtrap)
../lab7_bsp/\libucosii_bsp.a(osportco.o)
                              ../lab7_bsp/\libucosii_bsp.a(tk_crnos.o) (tcp_sleep_count)
../lab7_bsp/\libucosii_bsp.a(targnios.o)
                              obj/default/iniche_init.o (alt_iniche_init)
../lab7_bsp/\libucosii_bsp.a(nptcp.o)
                              ../lab7_bsp/\libucosii_bsp.a(bsdsock.o) (soq)
../lab7_bsp/\libucosii_bsp.a(rawsock.o)
                              ../lab7_bsp/\libucosii_bsp.a(nptcp.o) (rawip_usrreq)
../lab7_bsp/\libucosii_bsp.a(sockcall.o)
                              obj/default/iniche_init.o (t_socket)
../lab7_bsp/\libucosii_bsp.a(socket.o)
                              ../lab7_bsp/\libucosii_bsp.a(sockcall.o) (socreate)
../lab7_bsp/\libucosii_bsp.a(socket2.o)
                              ../lab7_bsp/\libucosii_bsp.a(sockcall.o) (soqremque)
../lab7_bsp/\libucosii_bsp.a(soselect.o)
                              ../lab7_bsp/\libucosii_bsp.a(bsdsock.o) (t_select)
../lab7_bsp/\libucosii_bsp.a(tcp_in.o)
                              ../lab7_bsp/\libucosii_bsp.a(nptcp.o) (tcp_input)
../lab7_bsp/\libucosii_bsp.a(tcp_out.o)
                              ../lab7_bsp/\libucosii_bsp.a(tcp_in.o) (tcp_output)
../lab7_bsp/\libucosii_bsp.a(tcp_subr.o)
                              ../lab7_bsp/\libucosii_bsp.a(nptcp.o) (tcp_init)
../lab7_bsp/\libucosii_bsp.a(tcp_timr.o)
                              ../lab7_bsp/\libucosii_bsp.a(tcp_in.o) (tcp_keepidle)
../lab7_bsp/\libucosii_bsp.a(tcp_usr.o)
                              ../lab7_bsp/\libucosii_bsp.a(nptcp.o) (tcp_usrreq)
../lab7_bsp/\libucosii_bsp.a(tcpport.o)
                              ../lab7_bsp/\libucosii_bsp.a(ipstart.o) (tcpinit)
../lab7_bsp/\libucosii_bsp.a(udpsock.o)
                              ../lab7_bsp/\libucosii_bsp.a(nptcp.o) (udp_usrreq)
../lab7_bsp/\libucosii_bsp.a(alt_alarm_start.o)
                              ../lab7_bsp/\libucosii_bsp.a(altera_avalon_jtag_uart_init.o) (alt_alarm_start)
../lab7_bsp/\libucosii_bsp.a(alt_busy_sleep.o)
                              ../lab7_bsp/\libucosii_bsp.a(alt_usleep.o) (alt_busy_sleep)
../lab7_bsp/\libucosii_bsp.a(alt_close.o)
                              ../lab7_bsp/\libucosii_bsp.a(alt_iniche_close.o) (alt_close)
../lab7_bsp/\libucosii_bsp.a(alt_dcache_flush.o)
                              ../lab7_bsp/\libucosii_bsp.a(altera_avalon_cfi_flash.o) (alt_dcache_flush)
../lab7_bsp/\libucosii_bsp.a(alt_dev.o)
                              ../lab7_bsp/\libucosii_bsp.a(alt_sys_init.o) (alt_dev_list)
../lab7_bsp/\libucosii_bsp.a(alt_dev_llist_insert.o)
                              ../lab7_bsp/\libucosii_bsp.a(alt_sys_init.o) (alt_dev_llist_insert)
../lab7_bsp/\libucosii_bsp.a(alt_do_ctors.o)
                              ../lab7_bsp/\libucosii_bsp.a(alt_main.o) (_do_ctors)
../lab7_bsp/\libucosii_bsp.a(alt_do_dtors.o)
                              ../lab7_bsp/\libucosii_bsp.a(alt_main.o) (_do_dtors)
../lab7_bsp/\libucosii_bsp.a(alt_errno.o)
                              ../lab7_bsp/\libucosii_bsp.a(alt_fstat.o) (alt_errno)
../lab7_bsp/\libucosii_bsp.a(alt_find_dev.o)
                              ../lab7_bsp/\libucosii_bsp.a(alt_flash_dev.o) (alt_find_dev)
../lab7_bsp/\libucosii_bsp.a(alt_iic.o)
                              ../lab7_bsp/\libucosii_bsp.a(altera_avalon_jtag_uart_init.o) (alt_ic_isr_register)
../lab7_bsp/\libucosii_bsp.a(alt_iic_isr_register.o)
                              ../lab7_bsp/\libucosii_bsp.a(alt_iic.o) (alt_iic_isr_register)
../lab7_bsp/\libucosii_bsp.a(alt_io_redirect.o)
                              ../lab7_bsp/\libucosii_bsp.a(alt_main.o) (alt_io_redirect)
../lab7_bsp/\libucosii_bsp.a(alt_irq_entry.o)
                              ../lab7_bsp/\libucosii_bsp.a(alt_irq_register.o) (alt_irq_entry)
../lab7_bsp/\libucosii_bsp.a(alt_irq_handler.o)
                              ../lab7_bsp/\libucosii_bsp.a(alt_irq_register.o) (alt_irq_handler)
../lab7_bsp/\libucosii_bsp.a(alt_open.o)
                              ../lab7_bsp/\libucosii_bsp.a(alt_io_redirect.o) (open)
../lab7_bsp/\libucosii_bsp.a(alt_read.o)
                              ../lab7_bsp/\libucosii_bsp.a(alt_iniche_read.o) (alt_read)
../lab7_bsp/\libucosii_bsp.a(alt_release_fd.o)
                              ../lab7_bsp/\libucosii_bsp.a(alt_close.o) (alt_release_fd)
../lab7_bsp/\libucosii_bsp.a(alt_remap_cached.o)
                              ../lab7_bsp/\libucosii_bsp.a(targnios.o) (alt_remap_cached)
../lab7_bsp/\libucosii_bsp.a(alt_remap_uncached.o)
                              ../lab7_bsp/\libucosii_bsp.a(targnios.o) (alt_remap_uncached)
../lab7_bsp/\libucosii_bsp.a(alt_tick.o)
                              ../lab7_bsp/\libucosii_bsp.a(alt_usleep.o) (_alt_tick_rate)
../lab7_bsp/\libucosii_bsp.a(alt_write.o)
                              ../lab7_bsp/\libucosii_bsp.a(alt_iniche_write.o) (alt_write)
../lab7_bsp/\libucosii_bsp.a(altera_nios2_qsys_irq.o)
                              ../lab7_bsp/\libucosii_bsp.a(alt_sys_init.o) (altera_nios2_qsys_irq_init)
../lab7_bsp/\libucosii_bsp.a(os_cpu_a.o)
                              ../lab7_bsp/\libucosii_bsp.a(os_core.o) (OSIntCtxSw)
../lab7_bsp/\libucosii_bsp.a(os_cpu_c.o)
                              ../lab7_bsp/\libucosii_bsp.a(os_task.o) (OSTaskStkInit)
../lab7_bsp/\libucosii_bsp.a(altera_avalon_cfi_flash_amd.o)
                              ../lab7_bsp/\libucosii_bsp.a(altera_avalon_cfi_flash_table.o) (alt_program_amd)
../lab7_bsp/\libucosii_bsp.a(altera_avalon_cfi_flash_intel.o)
                              ../lab7_bsp/\libucosii_bsp.a(altera_avalon_cfi_flash_table.o) (alt_program_intel)
../lab7_bsp/\libucosii_bsp.a(altera_avalon_spi.o)
                              ../lab7_bsp/\libucosii_bsp.a(epcs_commands.o) (alt_avalon_spi_command)
../lab7_bsp/\libucosii_bsp.a(allports.o)
                              ../lab7_bsp/\libucosii_bsp.a(dhcpclnt.o) (name)
../lab7_bsp/\libucosii_bsp.a(timeouts.o)
                              ../lab7_bsp/\libucosii_bsp.a(netmain.o) (inet_timer)
../lab7_bsp/\libucosii_bsp.a(tk_misc.o)
                              ../lab7_bsp/\libucosii_bsp.a(netmain.o) (create_apptasks)
../lab7_bsp/\libucosii_bsp.a(alt_iniche_fcntl.o)
                              ../lab7_bsp/\libucosii_bsp.a(brdutils.o) (fcntl)
../lab7_bsp/\libucosii_bsp.a(et_arp.o)
                              ../lab7_bsp/\libucosii_bsp.a(ipstart.o) (etainit)
../lab7_bsp/\libucosii_bsp.a(iface.o)
                              ../lab7_bsp/\libucosii_bsp.a(ipnet.o) (netlist)
../lab7_bsp/\libucosii_bsp.a(ip.o)
                              ../lab7_bsp/\libucosii_bsp.a(ipstart.o) (ip_init)
../lab7_bsp/\libucosii_bsp.a(ip_reasm.o)
                              ../lab7_bsp/\libucosii_bsp.a(timeouts.o) (ire_cticks)
../lab7_bsp/\libucosii_bsp.a(ipdemux.o)
                              ../lab7_bsp/\libucosii_bsp.a(ipnet.o) (ip_rcv)
../lab7_bsp/\libucosii_bsp.a(ipmc.o)
                              ../lab7_bsp/\libucosii_bsp.a(ipstart.o) (in_addmulti)
../lab7_bsp/\libucosii_bsp.a(ipport.o)
                              ../lab7_bsp/\libucosii_bsp.a(targnios.o) (port_prep)
../lab7_bsp/\libucosii_bsp.a(ipraw.o)
                              ../lab7_bsp/\libucosii_bsp.a(rawsock.o) (ipraw_eps)
../lab7_bsp/\libucosii_bsp.a(iproute.o)
                              ../lab7_bsp/\libucosii_bsp.a(ip.o) (cachedRoute)
../lab7_bsp/\libucosii_bsp.a(udp.o)
                              ../lab7_bsp/\libucosii_bsp.a(ipdemux.o) (udpdemux)
../lab7_bsp/\libucosii_bsp.a(igmp.o)
                              ../lab7_bsp/\libucosii_bsp.a(igmp_cmn.o) (igmpv1_input)
../lab7_bsp/\libucosii_bsp.a(igmp2.o)
                              ../lab7_bsp/\libucosii_bsp.a(igmp_cmn.o) (igmpv2_input)
../lab7_bsp/\libucosii_bsp.a(ipopt.o)
                              ../lab7_bsp/\libucosii_bsp.a(socket.o) (ip_setmoptions)
../lab7_bsp/\libucosii_bsp.a(u_mctest.o)
                              ../lab7_bsp/\libucosii_bsp.a(allports.o) (u_mctest_init)
../lab7_bsp/\libucosii_bsp.a(dhcsetup.o)
                              ../lab7_bsp/\libucosii_bsp.a(allports.o) (dhc_setup)
../lab7_bsp/\libucosii_bsp.a(memdev.o)
                              ../lab7_bsp/\libucosii_bsp.a(allports.o) (init_memdev)
../lab7_bsp/\libucosii_bsp.a(tcpcksum.o)
                              ../lab7_bsp/\libucosii_bsp.a(nptcp.o) (tcp_cksum)
../lab7_bsp/\libucosii_bsp.a(in_pcb.o)
                              ../lab7_bsp/\libucosii_bsp.a(tcp_usr.o) (in_pcballoc)
../lab7_bsp/\libucosii_bsp.a(vfsfiles.o)
                              ../lab7_bsp/\libucosii_bsp.a(memdev.o) (vfsystems)
../lab7_bsp/\libucosii_bsp.a(vfsport.o)
                              ../lab7_bsp/\libucosii_bsp.a(allports.o) (prep_vfs)
../lab7_bsp/\libucosii_bsp.a(alt_exception_entry.o)
                              ../lab7_bsp/\libucosii_bsp.a(alt_irq_entry.o) (alt_exception)
../lab7_bsp/\libucosii_bsp.a(alt_fcntl.o)
                              ../lab7_bsp/\libucosii_bsp.a(alt_iniche_fcntl.o) (alt_fcntl)
../lab7_bsp/\libucosii_bsp.a(alt_find_file.o)
                              ../lab7_bsp/\libucosii_bsp.a(alt_open.o) (alt_find_file)
../lab7_bsp/\libucosii_bsp.a(alt_get_fd.o)
                              ../lab7_bsp/\libucosii_bsp.a(alt_open.o) (alt_get_fd)
../lab7_bsp/\libucosii_bsp.a(icmp.o)
                              ../lab7_bsp/\libucosii_bsp.a(ipdemux.o) (icmprcv)
d:/altera/13.0sp1/nios2eds/bin/gnu/h-i686-mingw32/bin/../lib/gcc/nios2-elf/4.1.2/../../../../nios2-elf/lib\libc.a(lib_a-atexit.o)
                              ../lab7_bsp/\libucosii_bsp.a(alt_main.o) (atexit)
d:/altera/13.0sp1/nios2eds/bin/gnu/h-i686-mingw32/bin/../lib/gcc/nios2-elf/4.1.2/../../../../nios2-elf/lib\libc.a(lib_a-calloc.o)
                              ../lab7_bsp/\libucosii_bsp.a(targnios.o) (calloc)
d:/altera/13.0sp1/nios2eds/bin/gnu/h-i686-mingw32/bin/../lib/gcc/nios2-elf/4.1.2/../../../../nios2-elf/lib\libc.a(lib_a-malloc.o)
                              ../lab7_bsp/\libucosii_bsp.a(targnios.o) (free)
d:/altera/13.0sp1/nios2eds/bin/gnu/h-i686-mingw32/bin/../lib/gcc/nios2-elf/4.1.2/../../../../nios2-elf/lib\libc.a(lib_a-memcmp.o)
                              ../lab7_bsp/\libucosii_bsp.a(altera_avalon_cfi_flash.o) (memcmp)
d:/altera/13.0sp1/nios2eds/bin/gnu/h-i686-mingw32/bin/../lib/gcc/nios2-elf/4.1.2/../../../../nios2-elf/lib\libc.a(lib_a-sprintf.o)
                              ../lab7_bsp/\libucosii_bsp.a(in_utils.o) (sprintf)
d:/altera/13.0sp1/nios2eds/bin/gnu/h-i686-mingw32/bin/../lib/gcc/nios2-elf/4.1.2/../../../../nios2-elf/lib\libc.a(lib_a-strcpy.o)
                              ../lab7_bsp/\libucosii_bsp.a(parseip.o) (strcpy)
d:/altera/13.0sp1/nios2eds/bin/gnu/h-i686-mingw32/bin/../lib/gcc/nios2-elf/4.1.2/../../../../nios2-elf/lib\libc.a(lib_a-strncmp.o)
                              ../lab7_bsp/\libucosii_bsp.a(vfsfiles.o) (strncmp)
d:/altera/13.0sp1/nios2eds/bin/gnu/h-i686-mingw32/bin/../lib/gcc/nios2-elf/4.1.2/../../../../nios2-elf/lib\libc.a(lib_a-strncpy.o)
                              ../lab7_bsp/\libucosii_bsp.a(dhcpclnt.o) (strncpy)
d:/altera/13.0sp1/nios2eds/bin/gnu/h-i686-mingw32/bin/../lib/gcc/nios2-elf/4.1.2/../../../../nios2-elf/lib\libc.a(lib_a-vprintf.o)
                              ../lab7_bsp/\libucosii_bsp.a(in_utils.o) (vprintf)
d:/altera/13.0sp1/nios2eds/bin/gnu/h-i686-mingw32/bin/../lib/gcc/nios2-elf/4.1.2/../../../../nios2-elf/lib\libc.a(lib_a-vsprintf.o)
                              ../lab7_bsp/\libucosii_bsp.a(in_utils.o) (vsprintf)
d:/altera/13.0sp1/nios2eds/bin/gnu/h-i686-mingw32/bin/../lib/gcc/nios2-elf/4.1.2/../../../../nios2-elf/lib\libc.a(lib_a-__atexit.o)
                              d:/altera/13.0sp1/nios2eds/bin/gnu/h-i686-mingw32/bin/../lib/gcc/nios2-elf/4.1.2/../../../../nios2-elf/lib\libc.a(lib_a-atexit.o) (__register_exitproc)

Allocating common symbols
Common symbol       size              file

soq                 0x14              ../lab7_bsp/\libucosii_bsp.a(nptcp.o)
alt_irq             0x100             ../lab7_bsp/\libucosii_bsp.a(alt_irq_handler.o)
tcp_optionbuf       0x4               ../lab7_bsp/\libucosii_bsp.a(tcp_out.o)
last_flash_sector_offset
                    0x4               obj/default/SSS_DE2_115.o
rt_mib              0x4               ../lab7_bsp/\libucosii_bsp.a(ip.o)
so_evtmap_create    0x4               ../lab7_bsp/\libucosii_bsp.a(ipport.o)
SSSLEDCommandQ      0x4               obj/default/simple_socket_server.o
OSLockNesting       0x1               ../lab7_bsp/\libucosii_bsp.a(os_core.o)
tcb                 0x2c              ../lab7_bsp/\libucosii_bsp.a(tcp_subr.o)
OSRunning           0x1               ../lab7_bsp/\libucosii_bsp.a(os_core.o)
dhc_states          0xf0              ../lab7_bsp/\libucosii_bsp.a(dhcpclnt.o)
tcpstat             0xe0              ../lab7_bsp/\libucosii_bsp.a(tcp_subr.o)
OSIdleCtr           0x4               ../lab7_bsp/\libucosii_bsp.a(os_core.o)
SSSLEDLightshowSem  0x4               obj/default/simple_socket_server.o
udp_mib             0x10              ../lab7_bsp/\libucosii_bsp.a(udp.o)
to_netmain          0x1               ../lab7_bsp/\libucosii_bsp.a(netmain.o)
OSPrioHighRdy       0x1               ../lab7_bsp/\libucosii_bsp.a(os_core.o)
errno               0x4               d:/altera/13.0sp1/nios2eds/bin/gnu/h-i686-mingw32/bin/../lib/gcc/nios2-elf/4.1.2/../../../../nios2-elf/lib\libc.a(lib_a-int_errno.o)
lilfreeq            0x14              ../lab7_bsp/\libucosii_bsp.a(pktalloc.o)
icmp_mib            0x68              ../lab7_bsp/\libucosii_bsp.a(icmp.o)
resid_semaphore     0x40              ../lab7_bsp/\libucosii_bsp.a(targnios.o)
alt_heapsem         0x4               ../lab7_bsp/\libucosii_bsp.a(alt_malloc_lock.o)
OSFlagTbl           0x370             ../lab7_bsp/\libucosii_bsp.a(os_core.o)
mbstat              0x8               ../lab7_bsp/\libucosii_bsp.a(nptcp.o)
netq_intmask        0x4               ../lab7_bsp/\libucosii_bsp.a(osportco.o)
select_wait         0x2               ../lab7_bsp/\libucosii_bsp.a(nptcp.o)
tcpmib              0x3c              ../lab7_bsp/\libucosii_bsp.a(nptcp.o)
OSPrioCur           0x1               ../lab7_bsp/\libucosii_bsp.a(os_core.o)
mheap_sem_ptr       0x4               ../lab7_bsp/\libucosii_bsp.a(targnios.o)
netlist             0x14              ../lab7_bsp/\libucosii_bsp.a(iface.o)
mbufq               0x14              ../lab7_bsp/\libucosii_bsp.a(nptcp.o)
OSTCBList           0x4               ../lab7_bsp/\libucosii_bsp.a(os_core.o)
alt_fd_list_lock    0x4               ../lab7_bsp/\libucosii_bsp.a(alt_dev.o)
OSMemTbl            0xc30             ../lab7_bsp/\libucosii_bsp.a(os_core.o)
OSTickStepState     0x1               ../lab7_bsp/\libucosii_bsp.a(os_core.o)
OSTaskStatStk       0x800             ../lab7_bsp/\libucosii_bsp.a(os_core.o)
OSCtxSwCtr          0x4               ../lab7_bsp/\libucosii_bsp.a(os_core.o)
igmpstats           0x64              ../lab7_bsp/\libucosii_bsp.a(igmp_cmn.o)
ire_stats           0x18              ../lab7_bsp/\libucosii_bsp.a(ip_reasm.o)
old_mode            0x4               ../lab7_bsp/\libucosii_bsp.a(osportco.o)
vfs_dir_stale       0x4               ../lab7_bsp/\libucosii_bsp.a(vfsfiles.o)
cticks_factor       0x4               ../lab7_bsp/\libucosii_bsp.a(brdutils.o)
g_dm9ka             0x44              obj/default/dm9000a.o
OSIdleCtrMax        0x4               ../lab7_bsp/\libucosii_bsp.a(os_core.o)
memestats           0x10              ../lab7_bsp/\libucosii_bsp.a(pktalloc.o)
intimers            0x64              ../lab7_bsp/\libucosii_bsp.a(timeouts.o)
OSTCBFreeList       0x4               ../lab7_bsp/\libucosii_bsp.a(os_core.o)
global_TCPwakeup_setIndx
                    0x4               ../lab7_bsp/\libucosii_bsp.a(osportco.o)
SSSInitialTaskStk   0x2000            obj/default/iniche_init.o
rcvdq               0x14              ../lab7_bsp/\libucosii_bsp.a(ipnet.o)
global_tcb_ext      0xfc              ../lab7_bsp/\libucosii_bsp.a(osportco.o)
netstatic           0x300             ../lab7_bsp/\libucosii_bsp.a(ipstart.o)
tcp_maxidle         0x4               ../lab7_bsp/\libucosii_bsp.a(tcp_timr.o)
LED7SegLightshowTaskStk
                    0x2000            obj/default/simple_socket_server.o
OSCPUUsage          0x1               ../lab7_bsp/\libucosii_bsp.a(os_core.o)
nets                0x10              ../lab7_bsp/\libucosii_bsp.a(ipstart.o)
pktlog              0xf0              ../lab7_bsp/\libucosii_bsp.a(pktalloc.o)
OSTaskCtr           0x1               ../lab7_bsp/\libucosii_bsp.a(os_core.o)
SSSLEDEventFlag     0x4               obj/default/simple_socket_server.o
OSMemFreeList       0x4               ../lab7_bsp/\libucosii_bsp.a(os_core.o)
vfs_open_files      0x4               ../lab7_bsp/\libucosii_bsp.a(vfsfiles.o)
cticks              0x4               ../lab7_bsp/\libucosii_bsp.a(osportco.o)
to_nettick          0x1               ../lab7_bsp/\libucosii_bsp.a(netmain.o)
last_flash_sector   0x4               obj/default/SSS_DE2_115.o
OSQTbl              0x1e0             ../lab7_bsp/\libucosii_bsp.a(os_core.o)
OSTCBHighRdy        0x4               ../lab7_bsp/\libucosii_bsp.a(os_core.o)
OSQFreeList         0x4               ../lab7_bsp/\libucosii_bsp.a(os_core.o)
OSRdyGrp            0x1               ../lab7_bsp/\libucosii_bsp.a(os_core.o)
ip_mib              0x50              ../lab7_bsp/\libucosii_bsp.a(ip.o)
SSSLEDCommandQTbl   0x78              obj/default/simple_socket_server.o
OS_TPS              0x4               ../lab7_bsp/\libucosii_bsp.a(brdutils.o)
_atexit0            0x190             d:/altera/13.0sp1/nios2eds/bin/gnu/h-i686-mingw32/bin/../lib/gcc/nios2-elf/4.1.2/../../../../nios2-elf/lib\libc.a(lib_a-atexit.o)
OSRdyTbl            0x3               ../lab7_bsp/\libucosii_bsp.a(os_core.o)
igmp_all_hosts_group
                    0x4               ../lab7_bsp/\libucosii_bsp.a(igmp_cmn.o)
eth_prt_buf         0x12              ../lab7_bsp/\libucosii_bsp.a(in_utils.o)
app_semaphore       0x18              ../lab7_bsp/\libucosii_bsp.a(targnios.o)
LEDManagementTaskStk
                    0x2000            obj/default/simple_socket_server.o
rcvdq_sem_ptr       0x4               ../lab7_bsp/\libucosii_bsp.a(targnios.o)
OSEventFreeList     0x4               ../lab7_bsp/\libucosii_bsp.a(os_core.o)
mfreeq              0x14              ../lab7_bsp/\libucosii_bsp.a(nptcp.o)
to_ssstask          0x1               obj/default/iniche_init.o
global_TCPwakeup_set
                    0xf0              ../lab7_bsp/\libucosii_bsp.a(osportco.o)
bigfreeq            0x14              ../lab7_bsp/\libucosii_bsp.a(pktalloc.o)
so_evtmap_delete    0x4               ../lab7_bsp/\libucosii_bsp.a(ipport.o)
tcp_saveti          0x28              ../lab7_bsp/\libucosii_bsp.a(tcp_in.o)
OSIntNesting        0x1               ../lab7_bsp/\libucosii_bsp.a(os_core.o)
so_evtmap           0x1               ../lab7_bsp/\libucosii_bsp.a(ipport.o)
OSTCBCur            0x4               ../lab7_bsp/\libucosii_bsp.a(os_core.o)
arp_table           0x100             ../lab7_bsp/\libucosii_bsp.a(et_arp.o)
tcp_iss             0x4               ../lab7_bsp/\libucosii_bsp.a(tcp_timr.o)
vfs_total_rw_space  0x4               ../lab7_bsp/\libucosii_bsp.a(vfsfiles.o)
OSTime              0x4               ../lab7_bsp/\libucosii_bsp.a(os_core.o)
OSTaskIdleStk       0x800             ../lab7_bsp/\libucosii_bsp.a(os_core.o)
OSEventTbl          0xb40             ../lab7_bsp/\libucosii_bsp.a(os_core.o)
vfs_total_dyna_files
                    0x4               ../lab7_bsp/\libucosii_bsp.a(vfsfiles.o)
OSTCBTbl            0x510             ../lab7_bsp/\libucosii_bsp.a(os_core.o)
ipreturn            0x12              ../lab7_bsp/\libucosii_bsp.a(in_utils.o)
OSFlagFreeList      0x4               ../lab7_bsp/\libucosii_bsp.a(os_core.o)
dropline            0x4               ../lab7_bsp/\libucosii_bsp.a(tcp_in.o)
OSStatRdy           0x1               ../lab7_bsp/\libucosii_bsp.a(os_core.o)
OSTCBPrioTbl        0x54              ../lab7_bsp/\libucosii_bsp.a(os_core.o)
igmp_all_rtrs_group
                    0x4               ../lab7_bsp/\libucosii_bsp.a(igmp_cmn.o)
alt_envsem          0x4               ../lab7_bsp/\libucosii_bsp.a(alt_env_lock.o)
OSIdleCtrRun        0x4               ../lab7_bsp/\libucosii_bsp.a(os_core.o)

Memory Configuration

Name             Origin             Length             Attributes
sdram_0_BEFORE_EXCEPTION 0x00800000         0x00000020
sdram_0          0x00800020         0x007fffe0
reset            0x01400000         0x00000020
cfi_flash_0      0x01400020         0x003fffe0
sram_0           0x01a00000         0x00080000
epcs_controller  0x01a81800         0x00000800
*default*        0x00000000         0xffffffff

Linker script and memory map

LOAD ../lab7_bsp//obj/HAL/src/crt0.o
LOAD obj/default/LCD.o
LOAD obj/default/SSS_DE2_115.o
LOAD obj/default/alt_error_handler.o
LOAD obj/default/dm9000a.o
LOAD obj/default/iniche_init.o
LOAD obj/default/led.o
LOAD obj/default/network_utilities.o
LOAD obj/default/simple_socket_server.o
LOAD obj/default/tse_my_system.o
LOAD d:/altera/13.0sp1/nios2eds/bin/gnu/h-i686-mingw32/bin/../lib/gcc/nios2-elf/4.1.2/../../../../nios2-elf/lib\libstdc++.a
LOAD d:/altera/13.0sp1/nios2eds/bin/gnu/h-i686-mingw32/bin/../lib/gcc/nios2-elf/4.1.2/../../../../nios2-elf/lib\libm.a
LOAD d:/altera/13.0sp1/nios2eds/bin/gnu/h-i686-mingw32/bin/../lib/gcc/nios2-elf/4.1.2\libgcc.a
START GROUP
LOAD d:/altera/13.0sp1/nios2eds/bin/gnu/h-i686-mingw32/bin/../lib/gcc/nios2-elf/4.1.2/../../../../nios2-elf/lib\libc.a
LOAD d:/altera/13.0sp1/nios2eds/bin/gnu/h-i686-mingw32/bin/../lib/gcc/nios2-elf/4.1.2\libgcc.a
LOAD ../lab7_bsp/\libucosii_bsp.a
END GROUP
LOAD d:/altera/13.0sp1/nios2eds/bin/gnu/h-i686-mingw32/bin/../lib/gcc/nios2-elf/4.1.2\libgcc.a
                0x00800000                __alt_mem_sdram_0 = 0x800000
                0x01400000                __alt_mem_cfi_flash_0 = 0x1400000
                0x01a00000                __alt_mem_sram_0 = 0x1a00000
                0x01a81800                __alt_mem_epcs_controller = 0x1a81800

.entry          0x01400000        0x0
 *(.entry)
 .entry         0x01400000        0x0 ../lab7_bsp//obj/HAL/src/crt0.o
                0x01400000                __reset

.exceptions     0x00800020      0x19c
                0x00800020                PROVIDE (__ram_exceptions_start, ABSOLUTE (.))
                0x00800020                . = ALIGN (0x20)
 *(.irq)
 *(.exceptions.entry.label)
 .exceptions.entry.label
                0x00800020        0x0 ../lab7_bsp/\libucosii_bsp.a(alt_irq_entry.o)
                0x00800020                alt_irq_entry
 .exceptions.entry.label
                0x00800020        0x0 ../lab7_bsp/\libucosii_bsp.a(alt_exception_entry.o)
                0x00800020                alt_exception
 *(.exceptions.entry.user)
 *(.exceptions.entry)
 .exceptions.entry
                0x00800020       0x54 ../lab7_bsp/\libucosii_bsp.a(alt_exception_entry.o)
 *(.exceptions.irqtest.user)
 *(.exceptions.irqtest)
 .exceptions.irqtest
                0x00800074       0x10 ../lab7_bsp/\libucosii_bsp.a(alt_irq_entry.o)
 *(.exceptions.irqhandler.user)
 *(.exceptions.irqhandler)
 .exceptions.irqhandler
                0x00800084        0x4 ../lab7_bsp/\libucosii_bsp.a(alt_irq_entry.o)
 *(.exceptions.irqreturn.user)
 *(.exceptions.irqreturn)
 .exceptions.irqreturn
                0x00800088        0x4 ../lab7_bsp/\libucosii_bsp.a(alt_irq_entry.o)
 *(.exceptions.notirq.label)
 .exceptions.notirq.label
                0x0080008c        0x0 ../lab7_bsp/\libucosii_bsp.a(alt_irq_entry.o)
 *(.exceptions.notirq.user)
 *(.exceptions.notirq)
 .exceptions.notirq
                0x0080008c        0x8 ../lab7_bsp/\libucosii_bsp.a(alt_exception_entry.o)
 *(.exceptions.soft.user)
 *(.exceptions.soft)
 *(.exceptions.unknown.user)
 *(.exceptions.unknown)
 .exceptions.unknown
                0x00800094        0x4 ../lab7_bsp/\libucosii_bsp.a(alt_exception_entry.o)
 *(.exceptions.exit.label)
 .exceptions.exit.label
                0x00800098        0x0 ../lab7_bsp/\libucosii_bsp.a(alt_irq_entry.o)
 .exceptions.exit.label
                0x00800098        0x0 ../lab7_bsp/\libucosii_bsp.a(alt_exception_entry.o)
 *(.exceptions.exit.user)
 *(.exceptions.exit)
 .exceptions.exit
                0x00800098       0x54 ../lab7_bsp/\libucosii_bsp.a(alt_exception_entry.o)
 *(.exceptions)
 .exceptions    0x008000ec       0xd0 ../lab7_bsp/\libucosii_bsp.a(alt_irq_handler.o)
                0x008000ec                alt_irq_handler
                0x008001bc                PROVIDE (__ram_exceptions_end, ABSOLUTE (.))
                0x00800020                PROVIDE (__flash_exceptions_start, LOADADDR (.exceptions))

.text           0x008001bc    0x46d94
                0x008001bc                PROVIDE (stext, ABSOLUTE (.))
 *(.interp)
 *(.hash)
 *(.dynsym)
 *(.dynstr)
 *(.gnu.version)
 *(.gnu.version_d)
 *(.gnu.version_r)
 *(.rel.init)
 *(.rela.init)
 *(.rel.text .rel.text.* .rel.gnu.linkonce.t.*)
 *(.rela.text .rela.text.* .rela.gnu.linkonce.t.*)
 *(.rel.fini)
 *(.rela.fini)
 *(.rel.rodata .rel.rodata.* .rel.gnu.linkonce.r.*)
 *(.rela.rodata .rela.rodata.* .rela.gnu.linkonce.r.*)
 *(.rel.data .rel.data.* .rel.gnu.linkonce.d.*)
 *(.rela.data .rela.data.* .rela.gnu.linkonce.d.*)
 *(.rel.tdata .rel.tdata.* .rel.gnu.linkonce.td.*)
 *(.rela.tdata .rela.tdata.* .rela.gnu.linkonce.td.*)
 *(.rel.tbss .rel.tbss.* .rel.gnu.linkonce.tb.*)
 *(.rela.tbss .rela.tbss.* .rela.gnu.linkonce.tb.*)
 *(.rel.ctors)
 *(.rela.ctors)
 *(.rel.dtors)
 *(.rela.dtors)
 *(.rel.got)
 *(.rela.got)
 *(.rel.sdata .rel.sdata.* .rel.gnu.linkonce.s.*)
 *(.rela.sdata .rela.sdata.* .rela.gnu.linkonce.s.*)
 *(.rel.sbss .rel.sbss.* .rel.gnu.linkonce.sb.*)
 *(.rela.sbss .rela.sbss.* .rela.gnu.linkonce.sb.*)
 *(.rel.sdata2 .rel.sdata2.* .rel.gnu.linkonce.s2.*)
 *(.rela.sdata2 .rela.sdata2.* .rela.gnu.linkonce.s2.*)
 *(.rel.sbss2 .rel.sbss2.* .rel.gnu.linkonce.sb2.*)
 *(.rela.sbss2 .rela.sbss2.* .rela.gnu.linkonce.sb2.*)
 *(.rel.bss .rel.bss.* .rel.gnu.linkonce.b.*)
 *(.rela.bss .rela.bss.* .rela.gnu.linkonce.b.*)
 *(.rel.plt)
 *(.rela.plt)
 *(.rel.dyn)
 *(.init)
 *(.plt)
 *(.text .stub .text.* .gnu.linkonce.t.*)
 .text          0x008001bc       0x48 ../lab7_bsp//obj/HAL/src/crt0.o
                0x008001bc                _start
 .text          0x00800204      0x31c obj/default/LCD.o
                0x00800204                LCD_Init
                0x008002a0                LCD_Show_Text
                0x00800328                LCD_Line2
                0x00800364                LCD_Line1
                0x008003a0                LCD_Clear
                0x008003dc                LCD_Test
 .text          0x00800520      0x2ec obj/default/SSS_DE2_115.o
                0x00800520                get_DE2_115_mac_addr
                0x008006c8                FindLastFlashSectorOffset
 .text          0x0080080c      0xba8 obj/default/alt_error_handler.o
                0x0080080c                alt_uCOSIIErrorHandler
                0x00800e30                alt_NetworkErrorHandler
                0x008010c8                alt_SSSErrorHandler
 .text          0x008013b4      0xe48 obj/default/dm9000a.o
                0x008013b4                dm9000a_iow
                0x00801408                dm9000a_ior
                0x00801454                phy_write
                0x008014f0                dm9000a_reset
                0x008016b4                TransmitPacket
                0x008017d0                prep_dm9000a
                0x008019ec                dm9000a_init
                0x00801e3c                dm9Ka_isr_wrap
                0x00801e7c                dm9ka_init
                0x00801f74                dm9ka_close
                0x00802084                dm9ka_stats
                0x008020e0                dm9ka_pkt_send
 .text          0x008021fc      0x474 obj/default/iniche_init.o
                0x008021fc                SSSInitialTask
                0x00802574                main
 .text          0x00802670      0x324 obj/default/led.o
                0x00802670                led_bit_toggle
                0x0080273c                LED7SegLightshowTask
                0x008027b0                LEDManagementTask
 .text          0x00802994      0x73c obj/default/network_utilities.o
                0x00802994                get_mac_addr
                0x008029ec                get_ip_addr
                0x00802a58                get_serial_number
                0x00802c34                generate_and_store_mac_addr
                0x00802e00                generate_mac_addr
                0x00802f3c                get_board_mac_addr
 .text          0x008030d0      0x9f8 obj/default/simple_socket_server.o
                0x008030d0                SSSCreateOSDataStructs
                0x00803178                SSSCreateTasks
                0x0080323c                sss_reset_connection
                0x008032ac                sss_send_menu
                0x0080343c                sss_handle_accept
                0x008034fc                sss_exec_command
                0x00803670                sss_handle_receive
                0x0080385c                SSSSimpleSocketServerTask
 .text          0x00803ac8        0x0 obj/default/tse_my_system.o
 .text          0x00803ac8       0xa4 d:/altera/13.0sp1/nios2eds/bin/gnu/h-i686-mingw32/bin/../lib/gcc/nios2-elf/4.1.2\libgcc.a(_fixunsdfsi.o)
                0x00803ac8                __fixunsdfsi
 .text          0x00803b6c      0x504 d:/altera/13.0sp1/nios2eds/bin/gnu/h-i686-mingw32/bin/../lib/gcc/nios2-elf/4.1.2\libgcc.a(_addsub_df.o)
                0x00803f7c                __subdf3
                0x00803ffc                __adddf3
 .text          0x00804070      0x3c4 d:/altera/13.0sp1/nios2eds/bin/gnu/h-i686-mingw32/bin/../lib/gcc/nios2-elf/4.1.2\libgcc.a(_mul_df.o)
                0x00804070                __muldf3
 .text          0x00804434       0x88 d:/altera/13.0sp1/nios2eds/bin/gnu/h-i686-mingw32/bin/../lib/gcc/nios2-elf/4.1.2\libgcc.a(_ge_df.o)
                0x00804434                __gedf2
 .text          0x008044bc       0xd8 d:/altera/13.0sp1/nios2eds/bin/gnu/h-i686-mingw32/bin/../lib/gcc/nios2-elf/4.1.2\libgcc.a(_df_to_si.o)
                0x008044bc                __fixdfsi
 .text          0x00804594        0x0 d:/altera/13.0sp1/nios2eds/bin/gnu/h-i686-mingw32/bin/../lib/gcc/nios2-elf/4.1.2\libgcc.a(_thenan_df.o)
 .text          0x00804594      0x194 d:/altera/13.0sp1/nios2eds/bin/gnu/h-i686-mingw32/bin/../lib/gcc/nios2-elf/4.1.2\libgcc.a(_usi_to_df.o)
                0x00804594                __floatunsidf
 .text          0x00804728       0x98 d:/altera/13.0sp1/nios2eds/bin/gnu/h-i686-mingw32/bin/../lib/gcc/nios2-elf/4.1.2\libgcc.a(_muldi3.o)
                0x00804728                __muldi3
 .text          0x008047c0       0x80 d:/altera/13.0sp1/nios2eds/bin/gnu/h-i686-mingw32/bin/../lib/gcc/nios2-elf/4.1.2\libgcc.a(_clzsi2.o)
                0x008047c0                __clzsi2
 .text          0x00804840      0x314 d:/altera/13.0sp1/nios2eds/bin/gnu/h-i686-mingw32/bin/../lib/gcc/nios2-elf/4.1.2\libgcc.a(_pack_df.o)
                0x00804840                __pack_d
 .text          0x00804b54      0x138 d:/altera/13.0sp1/nios2eds/bin/gnu/h-i686-mingw32/bin/../lib/gcc/nios2-elf/4.1.2\libgcc.a(_unpack_df.o)
                0x00804b54                __unpack_d
 .text          0x00804c8c       0xc8 d:/altera/13.0sp1/nios2eds/bin/gnu/h-i686-mingw32/bin/../lib/gcc/nios2-elf/4.1.2\libgcc.a(_fpcmp_parts_df.o)
                0x00804c8c                __fpcmp_parts_d
 .text          0x00804d54        0x0 d:/altera/13.0sp1/nios2eds/bin/gnu/h-i686-mingw32/bin/../lib/gcc/nios2-elf/4.1.2\libgcc.a(_clz.o)
 .text          0x00804d54       0x18 d:/altera/13.0sp1/nios2eds/bin/gnu/h-i686-mingw32/bin/../lib/gcc/nios2-elf/4.1.2/../../../../nios2-elf/lib\libc.a(lib_a-atoi.o)
                0x00804d54                _atoi_r
                0x00804d60                atoi
 .text          0x00804d6c        0x0 d:/altera/13.0sp1/nios2eds/bin/gnu/h-i686-mingw32/bin/../lib/gcc/nios2-elf/4.1.2/../../../../nios2-elf/lib\libc.a(lib_a-ctype_.o)
 .text          0x00804d6c       0x10 d:/altera/13.0sp1/nios2eds/bin/gnu/h-i686-mingw32/bin/../lib/gcc/nios2-elf/4.1.2/../../../../nios2-elf/lib\libc.a(lib_a-errno.o)
                0x00804d6c                __errno
 .text          0x00804d7c       0x38 d:/altera/13.0sp1/nios2eds/bin/gnu/h-i686-mingw32/bin/../lib/gcc/nios2-elf/4.1.2/../../../../nios2-elf/lib\libc.a(lib_a-exit.o)
                0x00804d7c                exit
 .text          0x00804db4       0x60 d:/altera/13.0sp1/nios2eds/bin/gnu/h-i686-mingw32/bin/../lib/gcc/nios2-elf/4.1.2/../../../../nios2-elf/lib\libc.a(lib_a-fprintf.o)
                0x00804db4                fprintf
                0x00804de0                _fprintf_r
 .text          0x00804e14       0xdc d:/altera/13.0sp1/nios2eds/bin/gnu/h-i686-mingw32/bin/../lib/gcc/nios2-elf/4.1.2/../../../../nios2-elf/lib\libc.a(lib_a-fwrite.o)
                0x00804e14                _fwrite_r
                0x00804eb0                fwrite
 .text          0x00804ef0      0x128 d:/altera/13.0sp1/nios2eds/bin/gnu/h-i686-mingw32/bin/../lib/gcc/nios2-elf/4.1.2/../../../../nios2-elf/lib\libc.a(lib_a-getc.o)
                0x00804ef0                getc
                0x00804f88                _getc_r
 .text          0x00805018        0x0 d:/altera/13.0sp1/nios2eds/bin/gnu/h-i686-mingw32/bin/../lib/gcc/nios2-elf/4.1.2/../../../../nios2-elf/lib\libc.a(lib_a-impure.o)
 .text          0x00805018       0xa0 d:/altera/13.0sp1/nios2eds/bin/gnu/h-i686-mingw32/bin/../lib/gcc/nios2-elf/4.1.2/../../../../nios2-elf/lib\libc.a(lib_a-memcpy.o)
                0x00805018                memcpy
 .text          0x008050b8       0xe0 d:/altera/13.0sp1/nios2eds/bin/gnu/h-i686-mingw32/bin/../lib/gcc/nios2-elf/4.1.2/../../../../nios2-elf/lib\libc.a(lib_a-memmove.o)
                0x008050b8                memmove
 .text          0x00805198       0x98 d:/altera/13.0sp1/nios2eds/bin/gnu/h-i686-mingw32/bin/../lib/gcc/nios2-elf/4.1.2/../../../../nios2-elf/lib\libc.a(lib_a-memset.o)
                0x00805198                memset
 .text          0x00805230       0x80 d:/altera/13.0sp1/nios2eds/bin/gnu/h-i686-mingw32/bin/../lib/gcc/nios2-elf/4.1.2/../../../../nios2-elf/lib\libc.a(lib_a-perror.o)
                0x00805230                _perror_r
                0x0080529c                perror
 .text          0x008052b0       0x78 d:/altera/13.0sp1/nios2eds/bin/gnu/h-i686-mingw32/bin/../lib/gcc/nios2-elf/4.1.2/../../../../nios2-elf/lib\libc.a(lib_a-printf.o)
                0x008052b0                printf
                0x008052f4                _printf_r
 .text          0x00805328      0x1ec d:/altera/13.0sp1/nios2eds/bin/gnu/h-i686-mingw32/bin/../lib/gcc/nios2-elf/4.1.2/../../../../nios2-elf/lib\libc.a(lib_a-putc.o)
                0x00805328                putc
                0x0080542c                _putc_r
 .text          0x00805514       0x24 d:/altera/13.0sp1/nios2eds/bin/gnu/h-i686-mingw32/bin/../lib/gcc/nios2-elf/4.1.2/../../../../nios2-elf/lib\libc.a(lib_a-putchar.o)
                0x00805514                putchar
                0x00805530                _putchar_r
 .text          0x00805538       0xb4 d:/altera/13.0sp1/nios2eds/bin/gnu/h-i686-mingw32/bin/../lib/gcc/nios2-elf/4.1.2/../../../../nios2-elf/lib\libc.a(lib_a-puts.o)
                0x00805538                _puts_r
                0x008055d8                puts
 .text          0x008055ec       0x60 d:/altera/13.0sp1/nios2eds/bin/gnu/h-i686-mingw32/bin/../lib/gcc/nios2-elf/4.1.2/../../../../nios2-elf/lib\libc.a(lib_a-rget.o)
                0x008055ec                __srget_r
                0x00805638                __srget
 .text          0x0080564c       0xe0 d:/altera/13.0sp1/nios2eds/bin/gnu/h-i686-mingw32/bin/../lib/gcc/nios2-elf/4.1.2/../../../../nios2-elf/lib\libc.a(lib_a-strchr.o)
                0x0080564c                strchr
 .text          0x0080572c       0xbc d:/altera/13.0sp1/nios2eds/bin/gnu/h-i686-mingw32/bin/../lib/gcc/nios2-elf/4.1.2/../../../../nios2-elf/lib\libc.a(lib_a-strcmp.o)
                0x0080572c                strcmp
 .text          0x008057e8      0x674 d:/altera/13.0sp1/nios2eds/bin/gnu/h-i686-mingw32/bin/../lib/gcc/nios2-elf/4.1.2/../../../../nios2-elf/lib\libc.a(lib_a-strerror.o)
                0x008057e8                strerror
 .text          0x00805e5c       0x74 d:/altera/13.0sp1/nios2eds/bin/gnu/h-i686-mingw32/bin/../lib/gcc/nios2-elf/4.1.2/../../../../nios2-elf/lib\libc.a(lib_a-strlen.o)
                0x00805e5c                strlen
 .text          0x00805ed0      0x268 d:/altera/13.0sp1/nios2eds/bin/gnu/h-i686-mingw32/bin/../lib/gcc/nios2-elf/4.1.2/../../../../nios2-elf/lib\libc.a(lib_a-strtol.o)
                0x00805ed0                _strtol_r
                0x00806114                strtol
 .text          0x00806138        0x8 d:/altera/13.0sp1/nios2eds/bin/gnu/h-i686-mingw32/bin/../lib/gcc/nios2-elf/4.1.2/../../../../nios2-elf/lib\libc.a(lib_a-u_strerr.o)
                0x00806138                _user_strerror
 .text          0x00806140     0x1f28 d:/altera/13.0sp1/nios2eds/bin/gnu/h-i686-mingw32/bin/../lib/gcc/nios2-elf/4.1.2/../../../../nios2-elf/lib\libc.a(lib_a-vfprintf.o)
                0x00806198                ___vfprintf_internal_r
                0x00808044                __vfprintf_internal
 .text          0x00808068      0x14c d:/altera/13.0sp1/nios2eds/bin/gnu/h-i686-mingw32/bin/../lib/gcc/nios2-elf/4.1.2/../../../../nios2-elf/lib\libc.a(lib_a-wbuf.o)
                0x00808068                __swbuf_r
                0x00808198                __swbuf
 .text          0x008081b4      0x13c d:/altera/13.0sp1/nios2eds/bin/gnu/h-i686-mingw32/bin/../lib/gcc/nios2-elf/4.1.2/../../../../nios2-elf/lib\libc.a(lib_a-wsetup.o)
                0x008081b4                __swsetup_r
 .text          0x008082f0      0x1b4 d:/altera/13.0sp1/nios2eds/bin/gnu/h-i686-mingw32/bin/../lib/gcc/nios2-elf/4.1.2/../../../../nios2-elf/lib\libc.a(lib_a-__call_atexit.o)
                0x008082f4                __call_exitprocs
 .text          0x008084a4     0x17cc d:/altera/13.0sp1/nios2eds/bin/gnu/h-i686-mingw32/bin/../lib/gcc/nios2-elf/4.1.2/../../../../nios2-elf/lib\libc.a(lib_a-dtoa.o)
                0x008086bc                _dtoa_r
 .text          0x00809c70      0x230 d:/altera/13.0sp1/nios2eds/bin/gnu/h-i686-mingw32/bin/../lib/gcc/nios2-elf/4.1.2/../../../../nios2-elf/lib\libc.a(lib_a-fflush.o)
                0x00809c70                _fflush_r
                0x00809e6c                fflush
 .text          0x00809ea0      0x2c0 d:/altera/13.0sp1/nios2eds/bin/gnu/h-i686-mingw32/bin/../lib/gcc/nios2-elf/4.1.2/../../../../nios2-elf/lib\libc.a(lib_a-findfp.o)
                0x00809ef8                __sfp_lock_acquire
                0x00809efc                __sfp_lock_release
                0x00809f00                __sinit_lock_acquire
                0x00809f04                __sinit_lock_release
                0x00809f08                __sinit
                0x00809fbc                __fp_unlock_all
                0x00809fd4                __fp_lock_all
                0x00809fec                _cleanup_r
                0x00809ff8                _cleanup
                0x0080a008                __sfmoreglue
                0x0080a070                __sfp
 .text          0x0080a160       0xbc d:/altera/13.0sp1/nios2eds/bin/gnu/h-i686-mingw32/bin/../lib/gcc/nios2-elf/4.1.2/../../../../nios2-elf/lib\libc.a(lib_a-fputc.o)
                0x0080a160                fputc
                0x0080a1c4                _fputc_r
 .text          0x0080a21c       0x90 d:/altera/13.0sp1/nios2eds/bin/gnu/h-i686-mingw32/bin/../lib/gcc/nios2-elf/4.1.2/../../../../nios2-elf/lib\libc.a(lib_a-fputs.o)
                0x0080a21c                _fputs_r
                0x0080a290                fputs
 .text          0x0080a2ac      0x440 d:/altera/13.0sp1/nios2eds/bin/gnu/h-i686-mingw32/bin/../lib/gcc/nios2-elf/4.1.2/../../../../nios2-elf/lib\libc.a(lib_a-freer.o)
                0x0080a2ac                _malloc_trim_r
                0x0080a3d8                _free_r
 .text          0x0080a6ec      0x49c d:/altera/13.0sp1/nios2eds/bin/gnu/h-i686-mingw32/bin/../lib/gcc/nios2-elf/4.1.2/../../../../nios2-elf/lib\libc.a(lib_a-fvwrite.o)
                0x0080a6ec                __sfvwrite_r
 .text          0x0080ab88      0x180 d:/altera/13.0sp1/nios2eds/bin/gnu/h-i686-mingw32/bin/../lib/gcc/nios2-elf/4.1.2/../../../../nios2-elf/lib\libc.a(lib_a-fwalk.o)
                0x0080ab88                _fwalk_reent
                0x0080ac50                _fwalk
 .text          0x0080ad08       0xc4 d:/altera/13.0sp1/nios2eds/bin/gnu/h-i686-mingw32/bin/../lib/gcc/nios2-elf/4.1.2/../../../../nios2-elf/lib\libc.a(lib_a-locale.o)
                0x0080ad08                __locale_charset
                0x0080ad10                _localeconv_r
                0x0080ad1c                localeconv
                0x0080ad2c                _setlocale_r
                0x0080adb0                setlocale
 .text          0x0080adcc      0x194 d:/altera/13.0sp1/nios2eds/bin/gnu/h-i686-mingw32/bin/../lib/gcc/nios2-elf/4.1.2/../../../../nios2-elf/lib\libc.a(lib_a-makebuf.o)
                0x0080adcc                __smakebuf_r
 .text          0x0080af60      0x740 d:/altera/13.0sp1/nios2eds/bin/gnu/h-i686-mingw32/bin/../lib/gcc/nios2-elf/4.1.2/../../../../nios2-elf/lib\libc.a(lib_a-mallocr.o)
                0x0080af60                _malloc_r
 .text          0x0080b6a0       0xe4 d:/altera/13.0sp1/nios2eds/bin/gnu/h-i686-mingw32/bin/../lib/gcc/nios2-elf/4.1.2/../../../../nios2-elf/lib\libc.a(lib_a-memchr.o)
                0x0080b6a0                memchr
 .text          0x0080b784      0xff4 d:/altera/13.0sp1/nios2eds/bin/gnu/h-i686-mingw32/bin/../lib/gcc/nios2-elf/4.1.2/../../../../nios2-elf/lib\libc.a(lib_a-mprec.o)
                0x0080b784                _Bfree
                0x0080b7ac                __hi0bits
                0x0080b81c                __lo0bits
                0x0080b8e0                __mcmp
                0x0080b940                __ulp
                0x0080b9c0                __b2d
                0x0080bae0                __ratio
                0x0080bb90                _mprec_log10
                0x0080bc24                __copybits
                0x0080bc7c                __any_on
                0x0080bd04                _Balloc
                0x0080bdc0                __d2b
                0x0080bf3c                __mdiff
                0x0080c0c8                __lshift
                0x0080c214                __multiply
                0x0080c3fc                __i2b
                0x0080c438                __multadd
                0x0080c538                __pow5mult
                0x0080c658                __s2b
 .text          0x0080c778      0x5f4 d:/altera/13.0sp1/nios2eds/bin/gnu/h-i686-mingw32/bin/../lib/gcc/nios2-elf/4.1.2/../../../../nios2-elf/lib\libc.a(lib_a-reallocr.o)
                0x0080c778                _realloc_r
 .text          0x0080cd6c      0x1e0 d:/altera/13.0sp1/nios2eds/bin/gnu/h-i686-mingw32/bin/../lib/gcc/nios2-elf/4.1.2/../../../../nios2-elf/lib\libc.a(lib_a-refill.o)
                0x0080cd6c                __srefill_r
 .text          0x0080cf4c       0x40 d:/altera/13.0sp1/nios2eds/bin/gnu/h-i686-mingw32/bin/../lib/gcc/nios2-elf/4.1.2/../../../../nios2-elf/lib\libc.a(lib_a-s_isinfd.o)
                0x0080cf4c                __isinfd
 .text          0x0080cf8c       0x30 d:/altera/13.0sp1/nios2eds/bin/gnu/h-i686-mingw32/bin/../lib/gcc/nios2-elf/4.1.2/../../../../nios2-elf/lib\libc.a(lib_a-s_isnand.o)
                0x0080cf8c                __isnand
 .text          0x0080cfbc       0x70 d:/altera/13.0sp1/nios2eds/bin/gnu/h-i686-mingw32/bin/../lib/gcc/nios2-elf/4.1.2/../../../../nios2-elf/lib\libc.a(lib_a-sbrkr.o)
                0x0080cfbc                _sbrk_r
 .text          0x0080d02c      0x14c d:/altera/13.0sp1/nios2eds/bin/gnu/h-i686-mingw32/bin/../lib/gcc/nios2-elf/4.1.2/../../../../nios2-elf/lib\libc.a(lib_a-stdio.o)
                0x0080d02c                __sclose
                0x0080d034                __sseek
                0x0080d09c                __swrite
                0x0080d118                __sread
 .text          0x0080d178       0x78 d:/altera/13.0sp1/nios2eds/bin/gnu/h-i686-mingw32/bin/../lib/gcc/nios2-elf/4.1.2/../../../../nios2-elf/lib\libc.a(lib_a-writer.o)
                0x0080d178                _write_r
 .text          0x0080d1f0       0xb4 d:/altera/13.0sp1/nios2eds/bin/gnu/h-i686-mingw32/bin/../lib/gcc/nios2-elf/4.1.2/../../../../nios2-elf/lib\libc.a(lib_a-callocr.o)
                0x0080d1f0                _calloc_r
 .text          0x0080d2a4       0x70 d:/altera/13.0sp1/nios2eds/bin/gnu/h-i686-mingw32/bin/../lib/gcc/nios2-elf/4.1.2/../../../../nios2-elf/lib\libc.a(lib_a-closer.o)
                0x0080d2a4                _close_r
 .text          0x0080d314      0x124 d:/altera/13.0sp1/nios2eds/bin/gnu/h-i686-mingw32/bin/../lib/gcc/nios2-elf/4.1.2/../../../../nios2-elf/lib\libc.a(lib_a-fclose.o)
                0x0080d314                _fclose_r
                0x0080d424                fclose
 .text          0x0080d438       0x74 d:/altera/13.0sp1/nios2eds/bin/gnu/h-i686-mingw32/bin/../lib/gcc/nios2-elf/4.1.2/../../../../nios2-elf/lib\libc.a(lib_a-fstatr.o)
                0x0080d438                _fstat_r
 .text          0x0080d4ac        0x0 d:/altera/13.0sp1/nios2eds/bin/gnu/h-i686-mingw32/bin/../lib/gcc/nios2-elf/4.1.2/../../../../nios2-elf/lib\libc.a(lib_a-int_errno.o)
 .text          0x0080d4ac       0x70 d:/altera/13.0sp1/nios2eds/bin/gnu/h-i686-mingw32/bin/../lib/gcc/nios2-elf/4.1.2/../../../../nios2-elf/lib\libc.a(lib_a-isattyr.o)
                0x0080d4ac                _isatty_r
 .text          0x0080d51c       0x78 d:/altera/13.0sp1/nios2eds/bin/gnu/h-i686-mingw32/bin/../lib/gcc/nios2-elf/4.1.2/../../../../nios2-elf/lib\libc.a(lib_a-lseekr.o)
                0x0080d51c                _lseek_r
 .text          0x0080d594       0x78 d:/altera/13.0sp1/nios2eds/bin/gnu/h-i686-mingw32/bin/../lib/gcc/nios2-elf/4.1.2/../../../../nios2-elf/lib\libc.a(lib_a-readr.o)
                0x0080d594                _read_r
 .text          0x0080d60c      0x5dc d:/altera/13.0sp1/nios2eds/bin/gnu/h-i686-mingw32/bin/../lib/gcc/nios2-elf/4.1.2\libgcc.a(_udivdi3.o)
                0x0080d60c                __udivdi3
 .text          0x0080dbe8      0x5b0 d:/altera/13.0sp1/nios2eds/bin/gnu/h-i686-mingw32/bin/../lib/gcc/nios2-elf/4.1.2\libgcc.a(_umoddi3.o)
                0x0080dbe8                __umoddi3
 .text          0x0080e198      0x258 d:/altera/13.0sp1/nios2eds/bin/gnu/h-i686-mingw32/bin/../lib/gcc/nios2-elf/4.1.2\libgcc.a(_div_df.o)
                0x0080e198                __divdf3
 .text          0x0080e3f0       0x88 d:/altera/13.0sp1/nios2eds/bin/gnu/h-i686-mingw32/bin/../lib/gcc/nios2-elf/4.1.2\libgcc.a(_eq_df.o)
                0x0080e3f0                __eqdf2
 .text          0x0080e478       0x88 d:/altera/13.0sp1/nios2eds/bin/gnu/h-i686-mingw32/bin/../lib/gcc/nios2-elf/4.1.2\libgcc.a(_ne_df.o)
                0x0080e478                __nedf2
 .text          0x0080e500       0x88 d:/altera/13.0sp1/nios2eds/bin/gnu/h-i686-mingw32/bin/../lib/gcc/nios2-elf/4.1.2\libgcc.a(_gt_df.o)
                0x0080e500                __gtdf2
 .text          0x0080e588       0x88 d:/altera/13.0sp1/nios2eds/bin/gnu/h-i686-mingw32/bin/../lib/gcc/nios2-elf/4.1.2\libgcc.a(_lt_df.o)
                0x0080e588                __ltdf2
 .text          0x0080e610       0xf8 d:/altera/13.0sp1/nios2eds/bin/gnu/h-i686-mingw32/bin/../lib/gcc/nios2-elf/4.1.2\libgcc.a(_si_to_df.o)
                0x0080e610                __floatsidf
 .text          0x0080e708      0x14c d:/altera/13.0sp1/nios2eds/bin/gnu/h-i686-mingw32/bin/../lib/gcc/nios2-elf/4.1.2\libgcc.a(lib2-divmod.o)
                0x0080e784                __divsi3
                0x0080e7e4                __modsi3
                0x0080e844                __udivsi3
                0x0080e84c                __umodsi3
 .text          0x0080e854       0x6c ../lab7_bsp/\libucosii_bsp.a(alt_exit.o)
                0x0080e894                _exit
 .text          0x0080e8c0       0xd0 ../lab7_bsp/\libucosii_bsp.a(alt_flash_dev.o)
                0x0080e8c0                alt_flash_open_dev
                0x0080e93c                alt_flash_close_dev
 .text          0x0080e990      0x134 ../lab7_bsp/\libucosii_bsp.a(alt_fstat.o)
                0x0080e990                fstat
 .text          0x0080eac4      0x1c0 ../lab7_bsp/\libucosii_bsp.a(alt_irq_register.o)
                0x0080eac4                alt_irq_register
 .text          0x0080ec84        0x0 ../lab7_bsp/\libucosii_bsp.a(alt_irq_vars.o)
 .text          0x0080ec84      0x120 ../lab7_bsp/\libucosii_bsp.a(alt_isatty.o)
                0x0080ec84                isatty
 .text          0x0080eda4      0x150 ../lab7_bsp/\libucosii_bsp.a(alt_lseek.o)
                0x0080eda4                lseek
 .text          0x0080eef4       0xc8 ../lab7_bsp/\libucosii_bsp.a(alt_main.o)
                0x0080eef4                alt_main
 .text          0x0080efbc       0xbc ../lab7_bsp/\libucosii_bsp.a(alt_sbrk.o)
                0x0080efbc                sbrk
 .text          0x0080f078      0x118 ../lab7_bsp/\libucosii_bsp.a(alt_usleep.o)
                0x0080f078                usleep
 .text          0x0080f190      0x108 ../lab7_bsp/\libucosii_bsp.a(alt_env_lock.o)
                0x0080f190                __env_lock
                0x0080f23c                __env_unlock
 .text          0x0080f298      0x1d8 ../lab7_bsp/\libucosii_bsp.a(alt_malloc_lock.o)
                0x0080f298                __malloc_lock
                0x0080f3a0                __malloc_unlock
 .text          0x0080f470     0x2128 ../lab7_bsp/\libucosii_bsp.a(os_core.o)
                0x0080f470                OSEventNameGet
                0x0080f5a0                OSEventNameSet
                0x0080f6e4                OSEventPendMulti
                0x0080fd98                OSInit
                0x0080fdec                OSIntEnter
                0x0080fe68                OSIntExit
                0x0080ff68                OSSchedLock
                0x0080fff4                OSSchedUnlock
                0x008100d8                OSStart
                0x00810148                OSStatInit
                0x008101f4                OSTimeTick
                0x00810434                OSVersion
                0x00810454                OS_Dummy
                0x00810470                OS_EventTaskRdy
                0x00810604                OS_EventTaskWait
                0x00810714                OS_EventTaskWaitMulti
                0x00810868                OS_EventTaskRemove
                0x00810920                OS_EventTaskRemoveMulti
                0x00810a24                OS_EventWaitListInit
                0x00810df0                OS_MemClr
                0x00810e44                OS_MemCopy
                0x00810eb0                OS_Sched
                0x00810ff4                OS_StrCopy
                0x00811074                OS_StrLen
                0x008110cc                OS_TaskIdle
                0x00811128                OS_TaskStat
                0x008111f0                OS_TaskStatStkChk
                0x008112b8                OS_TCBInit
 .text          0x00811598      0x18c ../lab7_bsp/\libucosii_bsp.a(os_dbg.o)
                0x00811598                OSDebugInit
 .text          0x00811724     0x193c ../lab7_bsp/\libucosii_bsp.a(os_flag.o)
                0x00811724                OSFlagAccept
                0x00811a58                OSFlagCreate
                0x00811b94                OSFlagDel
                0x00811e3c                OSFlagNameGet
                0x00811f80                OSFlagNameSet
                0x008120d4                OSFlagPend
                0x00812718                OSFlagPendGetFlagsRdy
                0x00812780                OSFlagPost
                0x00812b28                OSFlagQuery
                0x00812dc0                OS_FlagInit
                0x00812fb4                OS_FlagUnlink
 .text          0x00813060      0x808 ../lab7_bsp/\libucosii_bsp.a(os_mem.o)
                0x00813060                OSMemCreate
                0x0081327c                OSMemGet
                0x00813380                OSMemNameGet
                0x0081348c                OSMemNameSet
                0x008135ac                OSMemPut
                0x0081369c                OSMemQuery
                0x00813798                OS_MemInit
 .text          0x00813868     0x1334 ../lab7_bsp/\libucosii_bsp.a(os_q.o)
                0x00813868                OSQAccept
                0x008139bc                OSQCreate
                0x00813bd0                OSQDel
                0x00813ed0                OSQFlush
                0x00813f98                OSQPend
                0x008142b8                OSQPendAbort
                0x00814434                OSQPost
                0x008145b4                OSQPostFront
                0x0081473c                OSQPostOpt
                0x00814970                OSQQuery
                0x00814af0                OS_QInit
 .text          0x00814b9c      0xbc8 ../lab7_bsp/\libucosii_bsp.a(os_sem.o)
                0x00814b9c                OSSemAccept
                0x00814c5c                OSSemCreate
                0x00814d70                OSSemDel
                0x00815010                OSSemPend
                0x0081528c                OSSemPendAbort
                0x00815408                OSSemPost
                0x00815530                OSSemQuery
                0x00815660                OSSemSet
 .text          0x00815764     0x1a40 ../lab7_bsp/\libucosii_bsp.a(os_task.o)
                0x00815764                OSTaskChangePrio
                0x00815cd8                OSTaskCreate
                0x00815eac                OSTaskCreateExt
                0x008160ac                OSTaskDel
                0x008164b8                OSTaskDelReq
                0x00816628                OSTaskNameGet
                0x008167e0                OSTaskNameSet
                0x008169a4                OSTaskResume
                0x00816bbc                OSTaskStkChk
                0x00816db8                OSTaskSuspend
                0x00816fe4                OSTaskQuery
                0x00817128                OS_TaskStkClr
 .text          0x008171a4      0x670 ../lab7_bsp/\libucosii_bsp.a(os_time.o)
                0x008171a4                OSTimeDly
                0x008172f0                OSTimeDlyHMSM
                0x0081753c                OSTimeDlyResume
                0x0081774c                OSTimeGet
                0x008177b0                OSTimeSet
 .text          0x00817814      0x118 ../lab7_bsp/\libucosii_bsp.a(alt_sys_init.o)
                0x00817814                alt_irq_init
                0x00817848                alt_sys_init
 .text          0x0081792c      0x8c8 ../lab7_bsp/\libucosii_bsp.a(altera_avalon_cfi_flash.o)
                0x0081792c                alt_flash_cfi_init
                0x00817a00                alt_flash_cfi_write
                0x00817cc0                alt_flash_cfi_get_info
                0x00817d50                alt_flash_cfi_read
                0x00817db8                alt_write_value_to_flash
                0x00817f1c                alt_flash_program_block
 .text          0x008181f4     0x14a8 ../lab7_bsp/\libucosii_bsp.a(altera_avalon_cfi_flash_table.o)
                0x008181f4                alt_read_query_entry_8bit
                0x00818234                alt_read_query_entry_16bit
                0x00818278                alt_read_query_entry_32bit
                0x008182c0                alt_write_flash_command_8bit_device_8bit_mode
                0x008182fc                alt_write_flash_command_16bit_device_8bit_mode
                0x00818378                alt_write_flash_command_32bit_device_8bit_mode
                0x008183c0                alt_write_flash_command_16bit_device_16bit_mode
                0x00818404                alt_write_flash_command_32bit_device_16bit_mode
                0x0081844c                alt_write_flash_command_32bit_device_32bit_mode
                0x00818494                alt_write_native_8bit
                0x008184c8                alt_write_native_16bit
                0x008184fc                alt_write_native_32bit
                0x0081852c                alt_set_flash_width_func
                0x0081870c                alt_set_flash_algorithm_func
                0x00818834                alt_read_cfi_table
                0x00818e14                alt_read_cfi_width
                0x008195c0                alt_check_primary_table
 .text          0x0081969c      0x9e4 ../lab7_bsp/\libucosii_bsp.a(altera_avalon_epcs_flash_controller.o)
                0x0081969c                alt_epcs_flash_init
                0x00819ab8                alt_epcs_flash_write
                0x00819d38                alt_epcs_flash_get_info
                0x00819dc8                alt_epcs_flash_erase_block
                0x00819ecc                alt_epcs_flash_write_block
                0x00819fe8                alt_epcs_flash_read
 .text          0x0081a080      0x148 ../lab7_bsp/\libucosii_bsp.a(altera_avalon_jtag_uart_fd.o)
                0x0081a080                altera_avalon_jtag_uart_read_fd
                0x0081a0d8                altera_avalon_jtag_uart_write_fd
                0x0081a130                altera_avalon_jtag_uart_close_fd
                0x0081a178                altera_avalon_jtag_uart_ioctl_fd
 .text          0x0081a1c8      0x584 ../lab7_bsp/\libucosii_bsp.a(altera_avalon_jtag_uart_init.o)
                0x0081a1c8                altera_avalon_jtag_uart_init
                0x0081a6d8                altera_avalon_jtag_uart_close
 .text          0x0081a74c       0xf4 ../lab7_bsp/\libucosii_bsp.a(altera_avalon_jtag_uart_ioctl.o)
                0x0081a74c                altera_avalon_jtag_uart_ioctl
 .text          0x0081a840      0x2c0 ../lab7_bsp/\libucosii_bsp.a(altera_avalon_jtag_uart_read.o)
                0x0081a840                altera_avalon_jtag_uart_read
 .text          0x0081ab00      0x2dc ../lab7_bsp/\libucosii_bsp.a(altera_avalon_jtag_uart_write.o)
                0x0081ab00                altera_avalon_jtag_uart_write
 .text          0x0081addc      0xf3c ../lab7_bsp/\libucosii_bsp.a(altera_avalon_lcd_16207.o)
                0x0081b5b0                altera_avalon_lcd_16207_write
                0x0081bbb4                altera_avalon_lcd_16207_init
 .text          0x0081bd18       0x58 ../lab7_bsp/\libucosii_bsp.a(altera_avalon_lcd_16207_fd.o)
                0x0081bd18                altera_avalon_lcd_16207_write_fd
 .text          0x0081bd70      0x100 ../lab7_bsp/\libucosii_bsp.a(altera_avalon_timer_sc.o)
                0x0081bde0                alt_avalon_timer_sc_init
 .text          0x0081be70       0xf8 ../lab7_bsp/\libucosii_bsp.a(altera_avalon_uart_fd.o)
                0x0081be70                altera_avalon_uart_read_fd
                0x0081bec8                altera_avalon_uart_write_fd
                0x0081bf20                altera_avalon_uart_close_fd
 .text          0x0081bf68      0x57c ../lab7_bsp/\libucosii_bsp.a(altera_avalon_uart_init.o)
                0x0081bf68                altera_avalon_uart_init
                0x0081c484                altera_avalon_uart_close
 .text          0x0081c4e4      0x310 ../lab7_bsp/\libucosii_bsp.a(altera_avalon_uart_read.o)
                0x0081c4e4                altera_avalon_uart_read
 .text          0x0081c7f4      0x2a8 ../lab7_bsp/\libucosii_bsp.a(altera_avalon_uart_write.o)
                0x0081c7f4                altera_avalon_uart_write
 .text          0x0081ca9c      0x6d4 ../lab7_bsp/\libucosii_bsp.a(epcs_commands.o)
                0x0081ca9c                epcs_read_status_register
                0x0081cafc                epcs_sector_erase
                0x0081cc64                epcs_read_buffer
                0x0081cdb0                epcs_write_enable
                0x0081ce00                epcs_write_status_register
                0x0081ce64                epcs_write_buffer
                0x0081cfd4                epcs_read_electronic_signature
                0x0081d040                epcs_read_device_id
                0x0081d0c0                epcs_enter_4_bytes_mode
                0x0081d118                epcs_exit_4_bytes_mode
 .text          0x0081d170       0x54 ../lab7_bsp/\libucosii_bsp.a(alt_iniche_close.o)
                0x0081d170                close
 .text          0x0081d1c4      0x144 ../lab7_bsp/\libucosii_bsp.a(alt_iniche_dev.o)
                0x0081d1c4                iniche_devices_init
 .text          0x0081d308       0x78 ../lab7_bsp/\libucosii_bsp.a(alt_iniche_read.o)
                0x0081d308                read
 .text          0x0081d380       0x70 ../lab7_bsp/\libucosii_bsp.a(alt_iniche_write.o)
                0x0081d380                write
 .text          0x0081d3f0      0xedc ../lab7_bsp/\libucosii_bsp.a(ipnet.o)
                0x0081d3f0                Netinit
                0x0081da3c                fixup_subnet_mask
                0x0081db9c                netclose
                0x0081dc84                pktdemux
                0x0081e058                c_older
                0x0081e128                ip2mac
 .text          0x0081e2cc      0x4b0 ../lab7_bsp/\libucosii_bsp.a(ipstart.o)
                0x0081e2cc                ip_startup
                0x0081e5b0                exit_hook
                0x0081e61c                ip_exit
                0x0081e6ec                if_netnumber
 .text          0x0081e77c     0x10e8 ../lab7_bsp/\libucosii_bsp.a(igmp_cmn.o)
                0x0081e77c                igmp_init
                0x0081e86c                igmp_input
                0x0081e964                igmp_fasttimo
                0x0081eb98                igmp_send
                0x0081ee40                igmp_joingroup
                0x0081f0ac                igmp_leavegroup
                0x0081f128                igmp_validate
                0x0081f484                igmp_print_stats
 .text          0x0081f864      0xbc8 ../lab7_bsp/\libucosii_bsp.a(bsdsock.o)
                0x0081f864                bsd_accept
                0x0081f99c                bsd_getpeername
                0x0081fac8                bsd_getsockname
                0x0081fbf4                bsd_i_sockoptlen
                0x0081fdac                bsd_getsockopt
                0x0081fecc                bsd_ioctl
                0x0081ffd0                bsd_inet_ntoa
                0x00820000                bsd_recvfrom
                0x00820160                bsd_select
                0x00820340                bsd_setsockopt
 .text          0x0082042c      0x118 ../lab7_bsp/\libucosii_bsp.a(cksum.o)
                0x0082042c                ccksum
                0x008204dc                cksum
 .text          0x00820544      0xa9c ../lab7_bsp/\libucosii_bsp.a(in_utils.o)
                0x00820544                do_trap
                0x00820570                nextarg
                0x008205ec                hexdump
                0x00820734                print_ipad
                0x008207a8                print_uptime
                0x008208d4                panic
                0x00820918                print_eth
                0x00820a7c                uslash
                0x00820afc                ns_printf
                0x00820c80                std_out
                0x00820cc4                con_page
                0x00820db4                parse_args
 .text          0x00820fe0      0x1c8 ../lab7_bsp/\libucosii_bsp.a(netmain.o)
                0x00820fe0                netmain
                0x008210d4                tk_netmain
                0x0082115c                tk_nettick
 .text          0x008211a8      0x810 ../lab7_bsp/\libucosii_bsp.a(parseip.o)
                0x008211a8                parse_ipad
                0x008214c4                inet_addr
                0x0082152c                hextoa
                0x0082159c                inet_pton
                0x00821648                inet_ntop
                0x008216d4                print46_addr
                0x00821734                inet46_addr
                0x008217f8                inet_setport
                0x0082186c                convert_ip
 .text          0x008219b8      0x5e8 ../lab7_bsp/\libucosii_bsp.a(tk_crnos.o)
                0x008219b8                TK_OSTimeDly
                0x008219e4                TK_OSTaskResume
                0x00821a54                tcp_sleep
                0x00821bf4                tcp_wakeup
                0x00821cf8                TK_OSTaskQuery
                0x00821d6c                tk_yield
                0x00821d98                tk_stats
 .text          0x00821fa0     0x3294 ../lab7_bsp/\libucosii_bsp.a(dhcpclnt.o)
                0x00821fa0                dhc_get_srv_ipaddr
                0x00822030                dhc_init
                0x008220ec                dhc_set_callback
                0x00822130                dhc_upcall
                0x00822960                dhc_buildheader
                0x00822b7c                dhc_discover
                0x00823094                dhc_rx_offer
                0x00823198                dhc_request
                0x00823cd4                dhc_setip
                0x00823f54                dhc_resetip
                0x00824038                dhc_decline
                0x0082421c                dhc_extract_opts
                0x008244d8                dhc_second
                0x00824dc8                dhc_halt
                0x00824e50                dhc_reclaim
                0x00825020                dhc_state_init
                0x00825080                dhc_alldone
                0x00825110                dhc_ifacedone
                0x00825184                dhc_set_state
 .text          0x00825234       0xcc ../lab7_bsp/\libucosii_bsp.a(dhcputil.o)
                0x00825234                find_opt
 .text          0x00825300      0x79c ../lab7_bsp/\libucosii_bsp.a(pktalloc.o)
                0x00825300                pk_init
                0x00825590                pk_alloc
                0x0082566c                pk_validate
                0x00825924                pk_free
                0x008259d0                pk_get_max_intrsafe_buf_len
                0x008259f0                dump_buf_estats
 .text          0x00825a9c      0x288 ../lab7_bsp/\libucosii_bsp.a(q.o)
                0x00825a9c                getq
                0x00825b64                putq
                0x00825c14                qdel
 .text          0x00825d24      0x31c ../lab7_bsp/\libucosii_bsp.a(udp_open.o)
                0x00825d24                udp_open
                0x00825f5c                udp_close
 .text          0x00826040      0x194 ../lab7_bsp/\libucosii_bsp.a(asm_cksum.o)
                0x00826040                asm_cksum
 .text          0x008261d4      0x2e4 ../lab7_bsp/\libucosii_bsp.a(brdutils.o)
                0x008261d4                dtrap
                0x00826204                kbhit
                0x008262b0                getch
                0x00826310                clock_init
                0x0082634c                clock_c
                0x00826368                cticks_hook
                0x00826418                irq_Mask
                0x00826474                irq_Unmask
 .text          0x008264b8      0x488 ../lab7_bsp/\libucosii_bsp.a(osportco.o)
                0x008264b8                LOCK_NET_RESOURCE
                0x00826578                UNLOCK_NET_RESOURCE
                0x00826600                TK_NEWTASK
                0x00826814                wait_app_sem
                0x008268c8                post_app_sem
 .text          0x00826940      0x568 ../lab7_bsp/\libucosii_bsp.a(targnios.o)
                0x00826940                alt_iniche_init
                0x00826b5c                pre_task_setup
                0x00826bd0                post_task_setup
                0x00826bf0                prep_armintcp
                0x00826c28                calloc2
                0x00826c5c                npalloc
                0x00826d50                npfree
                0x00826e08                ncpalloc
                0x00826e5c                ncpfree
 .text          0x00826ea8     0x19b8 ../lab7_bsp/\libucosii_bsp.a(nptcp.o)
                0x00826ea8                pffindtype
                0x00826f48                pffindproto
                0x00827018                m_getnbuf
                0x008271c0                m_free
                0x008272f4                m_freem
                0x00827338                m_copy
                0x0082765c                m_adj
                0x0082782c                mbuf_len
                0x00827884                dtom
                0x0082792c                remque
                0x0082799c                insque
                0x00827a18                nptcp_init
                0x00827b3c                tcp_rcv
                0x00827d28                ip_output
                0x00828320                in_broadcast
                0x00828360                np_stripoptions
                0x00828448                so_icmpdu
                0x008287a0                tcp_tick
 .text          0x00828860      0xa2c ../lab7_bsp/\libucosii_bsp.a(rawsock.o)
                0x00828860                rawip_lookup
                0x008288d0                rawip_soinput
                0x00828aa4                rawip_usrreq
 .text          0x0082928c     0x17fc ../lab7_bsp/\libucosii_bsp.a(sockcall.o)
                0x0082928c                DOMAIN_CHECK
                0x008292d8                t_socket
                0x00829368                t_bind
                0x008294e4                t_listen
                0x008295c8                t_accept
                0x00829860                t_connect
                0x00829b08                t_getpeername
                0x00829b4c                t_getsockname
                0x00829d8c                t_setsockopt
                0x00829f68                t_getsockopt
                0x0082a10c                t_recv
                0x0082a1fc                t_recvfrom
                0x0082a34c                t_sendto
                0x0082a578                t_send
                0x0082a7a0                t_shutdown
                0x0082a884                t_socketclose
                0x0082a9ec                t_errno
 .text          0x0082aa88     0x23ec ../lab7_bsp/\libucosii_bsp.a(socket.o)
                0x0082aa88                socreate
                0x0082ac54                sobind
                0x0082acb0                solisten
                0x0082ada0                sofree
                0x0082aed0                soclose
                0x0082b23c                soabort
                0x0082b28c                soaccept
                0x0082b328                soconnect
                0x0082b3fc                sodisconnect
                0x0082b49c                sosend
                0x0082baa4                soreceive
                0x0082c288                soshutdown
                0x0082c330                sorflush
                0x0082c430                sosetopt
                0x0082c8f0                sogetopt
                0x0082ce30                sohasoutofband
 .text          0x0082ce74     0x1318 ../lab7_bsp/\libucosii_bsp.a(socket2.o)
                0x0082ce74                soisconnecting
                0x0082cee0                soisconnected
                0x0082cfdc                soisdisconnecting
                0x0082d068                soisdisconnected
                0x0082d124                sonewconn
                0x0082d340                soqinsque
                0x0082d3ec                soqremque
                0x0082d50c                socantsendmore
                0x0082d55c                socantrcvmore
                0x0082d5ac                sbselqueue
                0x0082d5e4                sbwait
                0x0082d64c                sbwakeup
                0x0082d6e8                soreserve
                0x0082d768                sbreserve
                0x0082d7c8                sbrelease
                0x0082d810                sbappend
                0x0082d8b8                sbappendrecord
                0x0082d998                sbappendaddr
                0x0082dba0                sbcompress
                0x0082dd88                sbflush
                0x0082de18                sbdrop
                0x0082dfe8                sbdropend
                0x0082e0f8                sbdroprecord
 .text          0x0082e18c      0x914 ../lab7_bsp/\libucosii_bsp.a(soselect.o)
                0x0082e18c                t_select
                0x0082e3ac                sock_selscan
                0x0082e504                sock_select
                0x0082e718                in_pcbnotify
                0x0082e7e4                tcp_notify
                0x0082e84c                ifd_clr
                0x0082e93c                ifd_set
                0x0082e9b0                ifd_isset
                0x0082ea30                ifd_get
 .text          0x0082eaa0     0x3020 ../lab7_bsp/\libucosii_bsp.a(tcp_in.o)
                0x0082eaa0                tcp_reass
                0x0082eea8                tcp_input
                0x008313fc                tcp_dooptions
                0x0083158c                tcp_pulloutofband
                0x008316b8                tcp_xmit_timer
                0x0083195c                ip4_tcpmss
                0x008319a4                tcp_mss
 .text          0x00831ac0     0x1360 ../lab7_bsp/\libucosii_bsp.a(tcp_out.o)
                0x00831ac0                tcp_output
                0x00832c3c                tcp_setpersist
 .text          0x00832e20      0x9e8 ../lab7_bsp/\libucosii_bsp.a(tcp_subr.o)
                0x00832e20                tcp_init
                0x00832e78                tcp_template
                0x00832f90                tcp_respond
                0x00833418                tcp_newtcpcb
                0x00833530                tcp_drop
                0x008335dc                tcp_close
                0x008336c4                tcp_quench
                0x00833710                tcp_putseq
                0x00833790                tcp_getseq
 .text          0x00833808      0x798 ../lab7_bsp/\libucosii_bsp.a(tcp_timr.o)
                0x00833808                tcp_slowtimo
                0x00833aa8                tcp_canceltimers
                0x00833b04                tcp_timers
 .text          0x00833fa0      0x9ec ../lab7_bsp/\libucosii_bsp.a(tcp_usr.o)
                0x00833fa0                tcp_usrreq
                0x008346a4                tcp_attach
                0x008347d8                tcp_disconnect
                0x008348ac                tcp_usrclosed
 .text          0x0083498c       0x4c ../lab7_bsp/\libucosii_bsp.a(tcpport.o)
                0x0083498c                tcpinit
 .text          0x008349d8      0xd20 ../lab7_bsp/\libucosii_bsp.a(udpsock.o)
                0x008349d8                udp_lookup
                0x00834a48                udp_soinput
                0x00834c00                udp_usrreq
                0x00834e84                udp4_sockbind
                0x008351c0                udp4_socksend
                0x0083559c                udp4_sockaddr
 .text          0x008356f8      0x154 ../lab7_bsp/\libucosii_bsp.a(alt_alarm_start.o)
                0x008356f8                alt_alarm_start
 .text          0x0083584c      0x14c ../lab7_bsp/\libucosii_bsp.a(alt_busy_sleep.o)
                0x0083584c                alt_busy_sleep
 .text          0x00835998      0x15c ../lab7_bsp/\libucosii_bsp.a(alt_close.o)
                0x00835998                alt_close
 .text          0x00835af4       0x78 ../lab7_bsp/\libucosii_bsp.a(alt_dcache_flush.o)
                0x00835af4                alt_dcache_flush
 .text          0x00835b6c       0x2c ../lab7_bsp/\libucosii_bsp.a(alt_dev.o)
 .text          0x00835b98      0x114 ../lab7_bsp/\libucosii_bsp.a(alt_dev_llist_insert.o)
                0x00835b98                alt_dev_llist_insert
 .text          0x00835cac       0x64 ../lab7_bsp/\libucosii_bsp.a(alt_do_ctors.o)
                0x00835cac                _do_ctors
 .text          0x00835d10       0x64 ../lab7_bsp/\libucosii_bsp.a(alt_do_dtors.o)
                0x00835d10                _do_dtors
 .text          0x00835d74        0x0 ../lab7_bsp/\libucosii_bsp.a(alt_errno.o)
 .text          0x00835d74       0x94 ../lab7_bsp/\libucosii_bsp.a(alt_find_dev.o)
                0x00835d74                alt_find_dev
 .text          0x00835e08      0x1d4 ../lab7_bsp/\libucosii_bsp.a(alt_iic.o)
                0x00835e08                alt_ic_isr_register
                0x00835e58                alt_ic_irq_enable
                0x00835ef4                alt_ic_irq_disable
                0x00835f94                alt_ic_irq_enabled
 .text          0x00835fdc       0xf8 ../lab7_bsp/\libucosii_bsp.a(alt_iic_isr_register.o)
                0x00835fdc                alt_iic_isr_register
 .text          0x008360d4      0x13c ../lab7_bsp/\libucosii_bsp.a(alt_io_redirect.o)
                0x00836198                alt_io_redirect
 .text          0x00836210        0x0 ../lab7_bsp/\libucosii_bsp.a(alt_irq_entry.o)
 .text          0x00836210        0x0 ../lab7_bsp/\libucosii_bsp.a(alt_irq_handler.o)
 .text          0x00836210      0x2c4 ../lab7_bsp/\libucosii_bsp.a(alt_open.o)
                0x008362ec                open
 .text          0x008364d4      0x180 ../lab7_bsp/\libucosii_bsp.a(alt_read.o)
                0x008364d4                alt_read
 .text          0x00836654       0x60 ../lab7_bsp/\libucosii_bsp.a(alt_release_fd.o)
                0x00836654                alt_release_fd
 .text          0x008366b4       0x38 ../lab7_bsp/\libucosii_bsp.a(alt_remap_cached.o)
                0x008366b4                alt_remap_cached
 .text          0x008366ec       0x40 ../lab7_bsp/\libucosii_bsp.a(alt_remap_uncached.o)
                0x008366ec                alt_remap_uncached
 .text          0x0083672c      0x1a8 ../lab7_bsp/\libucosii_bsp.a(alt_tick.o)
                0x0083672c                alt_alarm_stop
                0x008367c4                alt_tick
 .text          0x008368d4      0x180 ../lab7_bsp/\libucosii_bsp.a(alt_write.o)
                0x008368d4                alt_write
 .text          0x00836a54       0x20 ../lab7_bsp/\libucosii_bsp.a(altera_nios2_qsys_irq.o)
                0x00836a54                altera_nios2_qsys_irq_init
 .text          0x00836a74       0xd0 ../lab7_bsp/\libucosii_bsp.a(os_cpu_a.o)
                0x00836a74                OSCtxSw
                0x00836a74                OSIntCtxSw
                0x00836b00                OSStartHighRdy
                0x00836b20                OSStartTsk
 .text          0x00836b44      0x424 ../lab7_bsp/\libucosii_bsp.a(os_cpu_c.o)
                0x00836b44                OSTaskStkInit
                0x00836e54                OSTaskCreateHook
                0x00836e74                OSTaskDelHook
                0x00836e94                OSTaskSwHook
                0x00836eb0                OSTaskStatHook
                0x00836ecc                OSTimeTickHook
                0x00836ef4                OSInitHookBegin
                0x00836f10                OSInitHookEnd
                0x00836f2c                OSTaskIdleHook
                0x00836f48                OSTCBInitHook
 .text          0x00836f68      0x460 ../lab7_bsp/\libucosii_bsp.a(altera_avalon_cfi_flash_amd.o)
                0x00836f68                alt_program_amd
                0x00836fd0                alt_erase_block_amd
 .text          0x008373c8      0x460 ../lab7_bsp/\libucosii_bsp.a(altera_avalon_cfi_flash_intel.o)
                0x008373c8                alt_program_intel
                0x0083744c                alt_erase_block_intel
 .text          0x00837828      0x238 ../lab7_bsp/\libucosii_bsp.a(altera_avalon_spi.o)
                0x00837828                alt_avalon_spi_command
 .text          0x00837a60      0x444 ../lab7_bsp/\libucosii_bsp.a(allports.o)
                0x00837a60                netmain_init
                0x00837b5c                icmp_port_du
                0x00837be4                station_state
                0x00837d48                sysuptime
                0x00837ddc                packet_check
                0x00837e28                mcastlist
                0x00837e4c                prep_modules
 .text          0x00837ea4      0x580 ../lab7_bsp/\libucosii_bsp.a(timeouts.o)
                0x00837ea4                inet_timer
                0x008381a4                in_timerset
                0x0083837c                in_timerkill
 .text          0x00838424       0xa4 ../lab7_bsp/\libucosii_bsp.a(tk_misc.o)
                0x00838424                create_apptasks
                0x00838448                task_stats
 .text          0x008384c8       0xb0 ../lab7_bsp/\libucosii_bsp.a(alt_iniche_fcntl.o)
                0x008384c8                fcntl
 .text          0x00838578     0x15b0 ../lab7_bsp/\libucosii_bsp.a(et_arp.o)
                0x00838578                etainit
                0x008385cc                et_send
                0x00838748                arp_free_pending
                0x008387d0                arp_send_pending
                0x00838844                send_arp
                0x00838cdc                find_oldest_arp
                0x00838ed8                make_arp_entry
                0x00838fec                arpReply
                0x00839280                arprcv
                0x008394e0                send_via_arp
                0x008396b0                cb_arpent_tmo
                0x0083985c                grat_arp
 .text          0x00839b28      0x298 ../lab7_bsp/\libucosii_bsp.a(iface.o)
                0x00839b28                if_getbynum
                0x00839bac                isbcast
                0x00839c8c                reg_type
                0x00839d28                if_killsocks
 .text          0x00839dc0     0x22a4 ../lab7_bsp/\libucosii_bsp.a(ip.o)
                0x00839dc0                ip_init
                0x00839ebc                ip_bldhead
                0x0083a060                ip_write_internal
                0x0083a7e0                ip_write
                0x0083aa28                ip_write2
                0x0083add8                ip_raw_write
                0x0083aeb0                ip_fragment_lc
                0x0083b338                ip_fragment
                0x0083b95c                ip_mymach
                0x0083ba08                ip_dump
                0x0083bcc0                iproute
                0x0083bf2c                ip_copypkt
 .text          0x0083c064     0x1e08 ../lab7_bsp/\libucosii_bsp.a(ip_reasm.o)
                0x0083c064                ip_reasm_match_frag_with_ire
                0x0083c134                ip_reasm_determine_type_of_frag
                0x0083c220                ip_reasm_check_mem_useage
                0x0083c2b8                ip_reasm_incr_mem_useage
                0x0083c360                ip_reasm_decr_mem_useage
                0x0083c400                ip_reasm_process_first_fragment
                0x0083c6e0                ip_reassm
                0x0083c780                ip_reasm_compute_overlap
                0x0083cd10                ip_reasm_process_subsequent_fragments
                0x0083d2a4                ip_reasm_find_ire
                0x0083d308                ip_reasm_copy_queued_fragments_into_reassy_buffer
                0x0083d664                ip_reasm_process_timer_tick
                0x0083d784                ip_reasm_delete_ire
                0x0083d94c                ip_reasm_mark_compact_rfq
                0x0083da94                ipr_stats
                0x0083de18                ip_reasm_send_icmp_timex
 .text          0x0083de6c      0xe3c ../lab7_bsp/\libucosii_bsp.a(ipdemux.o)
                0x0083de6c                ip_rcv
                0x0083e26c                ip_rcv_phase2
                0x0083e878                ip_demux
 .text          0x0083eca8      0x2f0 ../lab7_bsp/\libucosii_bsp.a(ipmc.o)
                0x0083eca8                in_addmulti
                0x0083ee10                in_delmulti
                0x0083ef28                lookup_mcast
 .text          0x0083ef98       0xe4 ../lab7_bsp/\libucosii_bsp.a(ipport.o)
                0x0083ef98                prep_ifaces
                0x0083f02c                netexit
                0x0083f054                evtmap_setup
 .text          0x0083f07c      0x550 ../lab7_bsp/\libucosii_bsp.a(ipraw.o)
                0x0083f07c                ip_raw_open
                0x0083f16c                ip_raw_close
                0x0083f22c                ip_raw_input
                0x0083f464                ip_raw_alloc
                0x0083f530                ip_raw_free
                0x0083f570                ip_raw_maxalloc
 .text          0x0083f5cc      0x6f0 ../lab7_bsp/\libucosii_bsp.a(iproute.o)
                0x0083f5cc                rt_lookup
                0x0083f750                add_route
                0x0083fb78                del_route
 .text          0x0083fcbc      0xe3c ../lab7_bsp/\libucosii_bsp.a(udp.o)
                0x0083fcbc                udpdemux
                0x00840514                udp_send
                0x008407cc                udpswap
                0x008408fc                udp_socket
                0x008409cc                udp_alloc
                0x00840a8c                udp_maxalloc
                0x00840ab8                udp_free
 .text          0x00840af8      0x2e8 ../lab7_bsp/\libucosii_bsp.a(igmp.o)
                0x00840af8                igmpv1_input
 .text          0x00840de0      0x7c0 ../lab7_bsp/\libucosii_bsp.a(igmp2.o)
                0x00840de0                igmpv2_input
                0x00840f40                igmpv2_process_report
                0x0084108c                igmpv2_process_query
                0x008412d8                igmpv2_chk_set_timer
                0x00841430                igmpv2_chk4_rtr_alert_opt
 .text          0x008415a0      0x8fc ../lab7_bsp/\libucosii_bsp.a(ipopt.o)
                0x008415a0                IPADDR_TO_NETP
                0x008416e8                ip_setmoptions
                0x00841cd8                ip_getmoptions
                0x00841e18                ip_freemoptions
 .text          0x00841e9c      0x6e8 ../lab7_bsp/\libucosii_bsp.a(u_mctest.o)
                0x00841e9c                u_mctest_init
                0x00841ecc                u_mctest_run
 .text          0x00842584      0x3d0 ../lab7_bsp/\libucosii_bsp.a(dhcsetup.o)
                0x00842584                dhc_setup
                0x00842850                dhc_main_ipset
 .text          0x00842954      0x40c ../lab7_bsp/\libucosii_bsp.a(memdev.o)
                0x00842954                init_memdev
                0x008429cc                md_fopen
                0x008429f4                md_fclose
                0x00842a14                md_fread
                0x00842b94                md_fwrite
                0x00842c14                md_fseek
                0x00842c40                md_ftell
                0x00842c64                md_fgetc
                0x00842d3c                md_unlink
 .text          0x00842d60      0x1cc ../lab7_bsp/\libucosii_bsp.a(tcpcksum.o)
                0x00842d60                tcp_cksum
 .text          0x00842f2c      0x900 ../lab7_bsp/\libucosii_bsp.a(in_pcb.o)
                0x00842f2c                in_pcballoc
                0x00842fc0                in_pcbdetach
                0x00843014                in_pcbbind
                0x00843268                in_pcbconnect
                0x00843478                in_pcbdisconnect
                0x008434d8                in_setsockaddr
                0x00843554                in_setpeeraddr
                0x008435d0                in_pcblookup
 .text          0x0084382c     0x1a74 ../lab7_bsp/\libucosii_bsp.a(vfsfiles.o)
                0x0084382c                set_vfopen_error
                0x00843854                get_vfopen_error
                0x00843874                vf_alloc_and_link_vop
                0x008438f0                vf_alloc_buffer
                0x008439c8                vf_free_buffer
                0x00843a18                vfopen_locked
                0x00843d80                vfopen
                0x00843dd0                vfclose_locked
                0x00843f78                vfclose
                0x00843fb8                vfflush
                0x00844000                vfgets
                0x008440e4                vfeof
                0x0084413c                vunlink_flag_open_files
                0x00844198                vunlink
                0x008443b8                vfread
                0x00844564                vfwrite_locked
                0x0084494c                vfwrite
                0x008449ac                vfseek
                0x00844b28                vftell
                0x00844c5c                vgetc_locked
                0x00844d7c                vgetc
                0x00844dc4                vfslookup_locked
                0x00844efc                vfslookup
                0x00844f44                strippath
                0x0084512c                isvfile_locked
                0x00845190                isvfile
                0x008451d8                vferror
                0x00845244                vclearerr
 .text          0x008452a0       0x24 ../lab7_bsp/\libucosii_bsp.a(vfsport.o)
                0x008452a0                prep_vfs
 .text          0x008452c4        0x0 ../lab7_bsp/\libucosii_bsp.a(alt_exception_entry.o)
 .text          0x008452c4      0x1b4 ../lab7_bsp/\libucosii_bsp.a(alt_fcntl.o)
                0x008452c4                alt_fcntl
 .text          0x00845478      0x120 ../lab7_bsp/\libucosii_bsp.a(alt_find_file.o)
                0x00845478                alt_find_file
 .text          0x00845598       0xf4 ../lab7_bsp/\libucosii_bsp.a(alt_get_fd.o)
                0x00845598                alt_get_fd
 .text          0x0084568c     0x130c ../lab7_bsp/\libucosii_bsp.a(icmp.o)
                0x0084568c                icmprcv
                0x008462c0                icmp_destun
                0x00846610                icmp_timex
                0x00846944                icmp_du
 .text          0x00846998       0x14 d:/altera/13.0sp1/nios2eds/bin/gnu/h-i686-mingw32/bin/../lib/gcc/nios2-elf/4.1.2/../../../../nios2-elf/lib\libc.a(lib_a-atexit.o)
                0x00846998                atexit
 .text          0x008469ac       0x1c d:/altera/13.0sp1/nios2eds/bin/gnu/h-i686-mingw32/bin/../lib/gcc/nios2-elf/4.1.2/../../../../nios2-elf/lib\libc.a(lib_a-calloc.o)
                0x008469ac                calloc
 .text          0x008469c8       0x28 d:/altera/13.0sp1/nios2eds/bin/gnu/h-i686-mingw32/bin/../lib/gcc/nios2-elf/4.1.2/../../../../nios2-elf/lib\libc.a(lib_a-malloc.o)
                0x008469c8                free
                0x008469dc                malloc
 .text          0x008469f0       0x74 d:/altera/13.0sp1/nios2eds/bin/gnu/h-i686-mingw32/bin/../lib/gcc/nios2-elf/4.1.2/../../../../nios2-elf/lib\libc.a(lib_a-memcmp.o)
                0x008469f0                memcmp
 .text          0x00846a64       0xd4 d:/altera/13.0sp1/nios2eds/bin/gnu/h-i686-mingw32/bin/../lib/gcc/nios2-elf/4.1.2/../../../../nios2-elf/lib\libc.a(lib_a-sprintf.o)
                0x00846a64                sprintf
                0x00846ad8                _sprintf_r
 .text          0x00846b38       0x8c d:/altera/13.0sp1/nios2eds/bin/gnu/h-i686-mingw32/bin/../lib/gcc/nios2-elf/4.1.2/../../../../nios2-elf/lib\libc.a(lib_a-strcpy.o)
                0x00846b38                strcpy
 .text          0x00846bc4       0xf0 d:/altera/13.0sp1/nios2eds/bin/gnu/h-i686-mingw32/bin/../lib/gcc/nios2-elf/4.1.2/../../../../nios2-elf/lib\libc.a(lib_a-strncmp.o)
                0x00846bc4                strncmp
 .text          0x00846cb4       0xbc d:/altera/13.0sp1/nios2eds/bin/gnu/h-i686-mingw32/bin/../lib/gcc/nios2-elf/4.1.2/../../../../nios2-elf/lib\libc.a(lib_a-strncpy.o)
                0x00846cb4                strncpy
 .text          0x00846d70       0x34 d:/altera/13.0sp1/nios2eds/bin/gnu/h-i686-mingw32/bin/../lib/gcc/nios2-elf/4.1.2/../../../../nios2-elf/lib\libc.a(lib_a-vprintf.o)
                0x00846d70                _vprintf_r
                0x00846d84                vprintf
 .text          0x00846da4       0x74 d:/altera/13.0sp1/nios2eds/bin/gnu/h-i686-mingw32/bin/../lib/gcc/nios2-elf/4.1.2/../../../../nios2-elf/lib\libc.a(lib_a-vsprintf.o)
                0x00846da4                _vsprintf_r
                0x00846df4                vsprintf
 .text          0x00846e18      0x134 d:/altera/13.0sp1/nios2eds/bin/gnu/h-i686-mingw32/bin/../lib/gcc/nios2-elf/4.1.2/../../../../nios2-elf/lib\libc.a(lib_a-__atexit.o)
                0x00846e18                __register_exitproc
 *(.gnu.warning.*)
 *(.fini)
                0x00846f4c                PROVIDE (__etext, ABSOLUTE (.))
                0x00846f4c                PROVIDE (_etext, ABSOLUTE (.))
                0x00846f4c                PROVIDE (etext, ABSOLUTE (.))
 *(.eh_frame_hdr)
                0x00846f4c                . = ALIGN (0x4)
                0x00846f4c                PROVIDE (__preinit_array_start, ABSOLUTE (.))
 *(.preinit_array)
                0x00846f4c                PROVIDE (__preinit_array_end, ABSOLUTE (.))
                0x00846f4c                PROVIDE (__init_array_start, ABSOLUTE (.))
 *(.init_array)
                0x00846f4c                PROVIDE (__init_array_end, ABSOLUTE (.))
                0x00846f4c                PROVIDE (__fini_array_start, ABSOLUTE (.))
 *(.fini_array)
                0x00846f4c                PROVIDE (__fini_array_end, ABSOLUTE (.))
 *(.eh_frame)
 *(.gcc_except_table)
 *(.dynamic)
                0x00846f4c                PROVIDE (__CTOR_LIST__, ABSOLUTE (.))
 *(.ctors)
 *(SORT(.ctors.*))
 .ctors.65535   0x00846f4c        0x4 d:/altera/13.0sp1/nios2eds/bin/gnu/h-i686-mingw32/bin/../lib/gcc/nios2-elf/4.1.2/../../../../nios2-elf/lib\libc.a(lib_a-__call_atexit.o)
                0x00846f50                PROVIDE (__CTOR_END__, ABSOLUTE (.))
                0x00846f50                PROVIDE (__DTOR_LIST__, ABSOLUTE (.))
 *(.dtors)
 *(SORT(.dtors.*))
                0x00846f50                PROVIDE (__DTOR_END__, ABSOLUTE (.))
 *(.jcr)
                0x00846f50                . = ALIGN (0x4)

.rodata         0x00846f50     0x428c
                0x00846f50                PROVIDE (__ram_rodata_start, ABSOLUTE (.))
                0x00846f50                . = ALIGN (0x4)
 *(.rodata .rodata.* .gnu.linkonce.r.*)
 .rodata        0x00846f50       0x60 obj/default/LCD.o
 .rodata        0x00846fb0       0xa8 obj/default/SSS_DE2_115.o
 .rodata        0x00847058      0xba4 obj/default/alt_error_handler.o
 .rodata        0x00847bfc       0x64 obj/default/dm9000a.o
 .rodata        0x00847c60      0x170 obj/default/iniche_init.o
 .rodata        0x00847dd0      0x234 obj/default/network_utilities.o
 .rodata        0x00848004      0x2e0 obj/default/simple_socket_server.o
 .rodata        0x008482e4       0x14 d:/altera/13.0sp1/nios2eds/bin/gnu/h-i686-mingw32/bin/../lib/gcc/nios2-elf/4.1.2\libgcc.a(_thenan_df.o)
                0x008482e4                __thenan_df
 .rodata        0x008482f8      0x100 d:/altera/13.0sp1/nios2eds/bin/gnu/h-i686-mingw32/bin/../lib/gcc/nios2-elf/4.1.2\libgcc.a(_clz.o)
                0x008482f8                __clz_tab
 .rodata        0x008483f8      0x281 d:/altera/13.0sp1/nios2eds/bin/gnu/h-i686-mingw32/bin/../lib/gcc/nios2-elf/4.1.2/../../../../nios2-elf/lib\libc.a(lib_a-ctype_.o)
                0x008483f8                _ctype_
 *fill*         0x00848679        0x3 00
 .rodata.str1.4
                0x0084867c        0x2 d:/altera/13.0sp1/nios2eds/bin/gnu/h-i686-mingw32/bin/../lib/gcc/nios2-elf/4.1.2/../../../../nios2-elf/lib\libc.a(lib_a-impure.o)
                                  0x4 (size before relaxing)
 *fill*         0x0084867e        0x2 00
 .rodata.str1.4
                0x00848680        0x3 d:/altera/13.0sp1/nios2eds/bin/gnu/h-i686-mingw32/bin/../lib/gcc/nios2-elf/4.1.2/../../../../nios2-elf/lib\libc.a(lib_a-perror.o)
                                  0x4 (size before relaxing)
 *fill*         0x00848683        0x1 00
 .rodata.str1.4
                0x00848684        0x2 d:/altera/13.0sp1/nios2eds/bin/gnu/h-i686-mingw32/bin/../lib/gcc/nios2-elf/4.1.2/../../../../nios2-elf/lib\libc.a(lib_a-puts.o)
                                  0x4 (size before relaxing)
 *fill*         0x00848686        0x2 00
 .rodata.str1.4
                0x00848688      0x7a2 d:/altera/13.0sp1/nios2eds/bin/gnu/h-i686-mingw32/bin/../lib/gcc/nios2-elf/4.1.2/../../../../nios2-elf/lib\libc.a(lib_a-strerror.o)
                                0x7a8 (size before relaxing)
 *fill*         0x00848e2a        0x2 00
 .rodata.str1.4
                0x00848e2c       0x5e d:/altera/13.0sp1/nios2eds/bin/gnu/h-i686-mingw32/bin/../lib/gcc/nios2-elf/4.1.2/../../../../nios2-elf/lib\libc.a(lib_a-vfprintf.o)
                                 0x60 (size before relaxing)
 .rodata        0x00848e8a       0x20 d:/altera/13.0sp1/nios2eds/bin/gnu/h-i686-mingw32/bin/../lib/gcc/nios2-elf/4.1.2/../../../../nios2-elf/lib\libc.a(lib_a-vfprintf.o)
 *fill*         0x00848eaa        0x2 00
 .rodata.str1.4
                0x00848eac       0x10 d:/altera/13.0sp1/nios2eds/bin/gnu/h-i686-mingw32/bin/../lib/gcc/nios2-elf/4.1.2/../../../../nios2-elf/lib\libc.a(lib_a-dtoa.o)
                                 0x14 (size before relaxing)
 .rodata.str1.4
                0x00848ebc       0x10 d:/altera/13.0sp1/nios2eds/bin/gnu/h-i686-mingw32/bin/../lib/gcc/nios2-elf/4.1.2/../../../../nios2-elf/lib\libc.a(lib_a-locale.o)
                                 0x18 (size before relaxing)
 .rodata        0x00848ecc       0x30 d:/altera/13.0sp1/nios2eds/bin/gnu/h-i686-mingw32/bin/../lib/gcc/nios2-elf/4.1.2/../../../../nios2-elf/lib\libc.a(lib_a-locale.o)
 .rodata        0x00848efc      0x124 d:/altera/13.0sp1/nios2eds/bin/gnu/h-i686-mingw32/bin/../lib/gcc/nios2-elf/4.1.2/../../../../nios2-elf/lib\libc.a(lib_a-mprec.o)
                0x00848efc                __mprec_tens
                0x00848fc4                __mprec_bigtens
                0x00848fec                __mprec_tinytens
 .rodata        0x00849020       0x14 ../lab7_bsp/\libucosii_bsp.a(alt_main.o)
 .rodata        0x00849034      0x120 ../lab7_bsp/\libucosii_bsp.a(os_core.o)
                0x00849034                OSUnMapTbl
 .rodata        0x00849154       0x60 ../lab7_bsp/\libucosii_bsp.a(alt_sys_init.o)
 .rodata        0x008491b4       0xd8 ../lab7_bsp/\libucosii_bsp.a(ipnet.o)
 .rodata        0x0084928c       0xec ../lab7_bsp/\libucosii_bsp.a(ipstart.o)
 .rodata        0x00849378      0x54c ../lab7_bsp/\libucosii_bsp.a(igmp_cmn.o)
 .rodata        0x008498c4       0xb8 ../lab7_bsp/\libucosii_bsp.a(in_utils.o)
 .rodata        0x0084997c       0x34 ../lab7_bsp/\libucosii_bsp.a(netmain.o)
 .rodata        0x008499b0       0x94 ../lab7_bsp/\libucosii_bsp.a(parseip.o)
 .rodata        0x00849a44      0x1a8 ../lab7_bsp/\libucosii_bsp.a(tk_crnos.o)
 .rodata        0x00849bec        0x8 ../lab7_bsp/\libucosii_bsp.a(dhcpclnt.o)
 .rodata        0x00849bf4      0x118 ../lab7_bsp/\libucosii_bsp.a(pktalloc.o)
 .rodata        0x00849d0c       0x84 ../lab7_bsp/\libucosii_bsp.a(udp_open.o)
 .rodata        0x00849d90       0x2c ../lab7_bsp/\libucosii_bsp.a(brdutils.o)
 .rodata        0x00849dbc      0x26c ../lab7_bsp/\libucosii_bsp.a(osportco.o)
 .rodata        0x0084a028       0xa0 ../lab7_bsp/\libucosii_bsp.a(targnios.o)
 .rodata        0x0084a0c8       0x90 ../lab7_bsp/\libucosii_bsp.a(nptcp.o)
 .rodata        0x0084a158        0x8 ../lab7_bsp/\libucosii_bsp.a(sockcall.o)
 .rodata        0x0084a160       0x50 ../lab7_bsp/\libucosii_bsp.a(socket.o)
 .rodata        0x0084a1b0       0x40 ../lab7_bsp/\libucosii_bsp.a(socket2.o)
 .rodata        0x0084a1f0       0x20 ../lab7_bsp/\libucosii_bsp.a(tcp_in.o)
 .rodata        0x0084a210       0x40 ../lab7_bsp/\libucosii_bsp.a(tcp_out.o)
 .rodata        0x0084a250       0x24 ../lab7_bsp/\libucosii_bsp.a(tcp_subr.o)
 .rodata        0x0084a274       0x2c ../lab7_bsp/\libucosii_bsp.a(tcp_usr.o)
 .rodata        0x0084a2a0        0xc ../lab7_bsp/\libucosii_bsp.a(alt_dev.o)
 .rodata        0x0084a2ac        0x4 ../lab7_bsp/\libucosii_bsp.a(os_cpu_c.o)
 .rodata        0x0084a2b0      0x1d4 ../lab7_bsp/\libucosii_bsp.a(allports.o)
 .rodata        0x0084a484       0x34 ../lab7_bsp/\libucosii_bsp.a(tk_misc.o)
 .rodata        0x0084a4b8       0x44 ../lab7_bsp/\libucosii_bsp.a(et_arp.o)
 .rodata        0x0084a4fc      0x1dc ../lab7_bsp/\libucosii_bsp.a(ip.o)
 .rodata        0x0084a6d8      0x158 ../lab7_bsp/\libucosii_bsp.a(ip_reasm.o)
 .rodata        0x0084a830      0x120 ../lab7_bsp/\libucosii_bsp.a(ipdemux.o)
 .rodata        0x0084a950       0x34 ../lab7_bsp/\libucosii_bsp.a(ipport.o)
 .rodata        0x0084a984       0x24 ../lab7_bsp/\libucosii_bsp.a(ipraw.o)
 .rodata        0x0084a9a8       0x38 ../lab7_bsp/\libucosii_bsp.a(iproute.o)
 .rodata        0x0084a9e0       0xe8 ../lab7_bsp/\libucosii_bsp.a(udp.o)
 .rodata        0x0084aac8      0x2d0 ../lab7_bsp/\libucosii_bsp.a(u_mctest.o)
 .rodata        0x0084ad98       0xf8 ../lab7_bsp/\libucosii_bsp.a(dhcsetup.o)
 .rodata        0x0084ae90       0x34 ../lab7_bsp/\libucosii_bsp.a(vfsfiles.o)
 .rodata        0x0084aec4      0x318 ../lab7_bsp/\libucosii_bsp.a(icmp.o)
 *(.rodata1)
                0x0084b1dc                . = ALIGN (0x4)
                0x0084b1dc                PROVIDE (__ram_rodata_end, ABSOLUTE (.))
                0x00846f50                PROVIDE (__flash_rodata_start, LOADADDR (.rodata))

.rwdata         0x0084b1dc     0x213c
                0x0084b1dc                PROVIDE (__ram_rwdata_start, ABSOLUTE (.))
                0x0084b1dc                . = ALIGN (0x4)
 *(.got.plt)
 *(.got)
 *(.data1)
 *(.data .data.* .gnu.linkonce.d.*)
 .data          0x0084b1dc        0x0 ../lab7_bsp//obj/HAL/src/crt0.o
 .data          0x0084b1dc        0x0 obj/default/LCD.o
 .data          0x0084b1dc        0x0 obj/default/SSS_DE2_115.o
 .data          0x0084b1dc        0x0 obj/default/alt_error_handler.o
 .data          0x0084b1dc        0x0 obj/default/dm9000a.o
 .data          0x0084b1dc       0x18 obj/default/iniche_init.o
                0x0084b1dc                ssstask
 .data          0x0084b1f4        0x0 obj/default/led.o
 .data          0x0084b1f4        0x0 obj/default/network_utilities.o
 .data          0x0084b1f4        0x0 obj/default/simple_socket_server.o
 .data          0x0084b1f4        0x0 obj/default/tse_my_system.o
 .data          0x0084b1f4        0x0 d:/altera/13.0sp1/nios2eds/bin/gnu/h-i686-mingw32/bin/../lib/gcc/nios2-elf/4.1.2\libgcc.a(_fixunsdfsi.o)
 .data          0x0084b1f4        0x0 d:/altera/13.0sp1/nios2eds/bin/gnu/h-i686-mingw32/bin/../lib/gcc/nios2-elf/4.1.2\libgcc.a(_addsub_df.o)
 .data          0x0084b1f4        0x0 d:/altera/13.0sp1/nios2eds/bin/gnu/h-i686-mingw32/bin/../lib/gcc/nios2-elf/4.1.2\libgcc.a(_mul_df.o)
 .data          0x0084b1f4        0x0 d:/altera/13.0sp1/nios2eds/bin/gnu/h-i686-mingw32/bin/../lib/gcc/nios2-elf/4.1.2\libgcc.a(_ge_df.o)
 .data          0x0084b1f4        0x0 d:/altera/13.0sp1/nios2eds/bin/gnu/h-i686-mingw32/bin/../lib/gcc/nios2-elf/4.1.2\libgcc.a(_df_to_si.o)
 .data          0x0084b1f4        0x0 d:/altera/13.0sp1/nios2eds/bin/gnu/h-i686-mingw32/bin/../lib/gcc/nios2-elf/4.1.2\libgcc.a(_thenan_df.o)
 .data          0x0084b1f4        0x0 d:/altera/13.0sp1/nios2eds/bin/gnu/h-i686-mingw32/bin/../lib/gcc/nios2-elf/4.1.2\libgcc.a(_usi_to_df.o)
 .data          0x0084b1f4        0x0 d:/altera/13.0sp1/nios2eds/bin/gnu/h-i686-mingw32/bin/../lib/gcc/nios2-elf/4.1.2\libgcc.a(_muldi3.o)
 .data          0x0084b1f4        0x0 d:/altera/13.0sp1/nios2eds/bin/gnu/h-i686-mingw32/bin/../lib/gcc/nios2-elf/4.1.2\libgcc.a(_clzsi2.o)
 .data          0x0084b1f4        0x0 d:/altera/13.0sp1/nios2eds/bin/gnu/h-i686-mingw32/bin/../lib/gcc/nios2-elf/4.1.2\libgcc.a(_pack_df.o)
 .data          0x0084b1f4        0x0 d:/altera/13.0sp1/nios2eds/bin/gnu/h-i686-mingw32/bin/../lib/gcc/nios2-elf/4.1.2\libgcc.a(_unpack_df.o)
 .data          0x0084b1f4        0x0 d:/altera/13.0sp1/nios2eds/bin/gnu/h-i686-mingw32/bin/../lib/gcc/nios2-elf/4.1.2\libgcc.a(_fpcmp_parts_df.o)
 .data          0x0084b1f4        0x0 d:/altera/13.0sp1/nios2eds/bin/gnu/h-i686-mingw32/bin/../lib/gcc/nios2-elf/4.1.2\libgcc.a(_clz.o)
 .data          0x0084b1f4        0x0 d:/altera/13.0sp1/nios2eds/bin/gnu/h-i686-mingw32/bin/../lib/gcc/nios2-elf/4.1.2/../../../../nios2-elf/lib\libc.a(lib_a-atoi.o)
 .data          0x0084b1f4        0x0 d:/altera/13.0sp1/nios2eds/bin/gnu/h-i686-mingw32/bin/../lib/gcc/nios2-elf/4.1.2/../../../../nios2-elf/lib\libc.a(lib_a-ctype_.o)
 .data          0x0084b1f4        0x0 d:/altera/13.0sp1/nios2eds/bin/gnu/h-i686-mingw32/bin/../lib/gcc/nios2-elf/4.1.2/../../../../nios2-elf/lib\libc.a(lib_a-errno.o)
 .data          0x0084b1f4        0x0 d:/altera/13.0sp1/nios2eds/bin/gnu/h-i686-mingw32/bin/../lib/gcc/nios2-elf/4.1.2/../../../../nios2-elf/lib\libc.a(lib_a-exit.o)
 .data          0x0084b1f4        0x0 d:/altera/13.0sp1/nios2eds/bin/gnu/h-i686-mingw32/bin/../lib/gcc/nios2-elf/4.1.2/../../../../nios2-elf/lib\libc.a(lib_a-fprintf.o)
 .data          0x0084b1f4        0x0 d:/altera/13.0sp1/nios2eds/bin/gnu/h-i686-mingw32/bin/../lib/gcc/nios2-elf/4.1.2/../../../../nios2-elf/lib\libc.a(lib_a-fwrite.o)
 .data          0x0084b1f4        0x0 d:/altera/13.0sp1/nios2eds/bin/gnu/h-i686-mingw32/bin/../lib/gcc/nios2-elf/4.1.2/../../../../nios2-elf/lib\libc.a(lib_a-getc.o)
 .data          0x0084b1f4      0x400 d:/altera/13.0sp1/nios2eds/bin/gnu/h-i686-mingw32/bin/../lib/gcc/nios2-elf/4.1.2/../../../../nios2-elf/lib\libc.a(lib_a-impure.o)
 .data          0x0084b5f4        0x0 d:/altera/13.0sp1/nios2eds/bin/gnu/h-i686-mingw32/bin/../lib/gcc/nios2-elf/4.1.2/../../../../nios2-elf/lib\libc.a(lib_a-memcpy.o)
 .data          0x0084b5f4        0x0 d:/altera/13.0sp1/nios2eds/bin/gnu/h-i686-mingw32/bin/../lib/gcc/nios2-elf/4.1.2/../../../../nios2-elf/lib\libc.a(lib_a-memmove.o)
 .data          0x0084b5f4        0x0 d:/altera/13.0sp1/nios2eds/bin/gnu/h-i686-mingw32/bin/../lib/gcc/nios2-elf/4.1.2/../../../../nios2-elf/lib\libc.a(lib_a-memset.o)
 .data          0x0084b5f4        0x0 d:/altera/13.0sp1/nios2eds/bin/gnu/h-i686-mingw32/bin/../lib/gcc/nios2-elf/4.1.2/../../../../nios2-elf/lib\libc.a(lib_a-perror.o)
 .data          0x0084b5f4        0x0 d:/altera/13.0sp1/nios2eds/bin/gnu/h-i686-mingw32/bin/../lib/gcc/nios2-elf/4.1.2/../../../../nios2-elf/lib\libc.a(lib_a-printf.o)
 .data          0x0084b5f4        0x0 d:/altera/13.0sp1/nios2eds/bin/gnu/h-i686-mingw32/bin/../lib/gcc/nios2-elf/4.1.2/../../../../nios2-elf/lib\libc.a(lib_a-putc.o)
 .data          0x0084b5f4        0x0 d:/altera/13.0sp1/nios2eds/bin/gnu/h-i686-mingw32/bin/../lib/gcc/nios2-elf/4.1.2/../../../../nios2-elf/lib\libc.a(lib_a-putchar.o)
 .data          0x0084b5f4        0x0 d:/altera/13.0sp1/nios2eds/bin/gnu/h-i686-mingw32/bin/../lib/gcc/nios2-elf/4.1.2/../../../../nios2-elf/lib\libc.a(lib_a-puts.o)
 .data          0x0084b5f4        0x0 d:/altera/13.0sp1/nios2eds/bin/gnu/h-i686-mingw32/bin/../lib/gcc/nios2-elf/4.1.2/../../../../nios2-elf/lib\libc.a(lib_a-rget.o)
 .data          0x0084b5f4        0x0 d:/altera/13.0sp1/nios2eds/bin/gnu/h-i686-mingw32/bin/../lib/gcc/nios2-elf/4.1.2/../../../../nios2-elf/lib\libc.a(lib_a-strchr.o)
 .data          0x0084b5f4        0x0 d:/altera/13.0sp1/nios2eds/bin/gnu/h-i686-mingw32/bin/../lib/gcc/nios2-elf/4.1.2/../../../../nios2-elf/lib\libc.a(lib_a-strcmp.o)
 .data          0x0084b5f4        0x0 d:/altera/13.0sp1/nios2eds/bin/gnu/h-i686-mingw32/bin/../lib/gcc/nios2-elf/4.1.2/../../../../nios2-elf/lib\libc.a(lib_a-strerror.o)
 .data          0x0084b5f4        0x0 d:/altera/13.0sp1/nios2eds/bin/gnu/h-i686-mingw32/bin/../lib/gcc/nios2-elf/4.1.2/../../../../nios2-elf/lib\libc.a(lib_a-strlen.o)
 .data          0x0084b5f4        0x0 d:/altera/13.0sp1/nios2eds/bin/gnu/h-i686-mingw32/bin/../lib/gcc/nios2-elf/4.1.2/../../../../nios2-elf/lib\libc.a(lib_a-strtol.o)
 .data          0x0084b5f4        0x0 d:/altera/13.0sp1/nios2eds/bin/gnu/h-i686-mingw32/bin/../lib/gcc/nios2-elf/4.1.2/../../../../nios2-elf/lib\libc.a(lib_a-u_strerr.o)
 .data          0x0084b5f4        0x0 d:/altera/13.0sp1/nios2eds/bin/gnu/h-i686-mingw32/bin/../lib/gcc/nios2-elf/4.1.2/../../../../nios2-elf/lib\libc.a(lib_a-vfprintf.o)
 .data          0x0084b5f4        0x0 d:/altera/13.0sp1/nios2eds/bin/gnu/h-i686-mingw32/bin/../lib/gcc/nios2-elf/4.1.2/../../../../nios2-elf/lib\libc.a(lib_a-wbuf.o)
 .data          0x0084b5f4        0x0 d:/altera/13.0sp1/nios2eds/bin/gnu/h-i686-mingw32/bin/../lib/gcc/nios2-elf/4.1.2/../../../../nios2-elf/lib\libc.a(lib_a-wsetup.o)
 .data          0x0084b5f4        0x0 d:/altera/13.0sp1/nios2eds/bin/gnu/h-i686-mingw32/bin/../lib/gcc/nios2-elf/4.1.2/../../../../nios2-elf/lib\libc.a(lib_a-__call_atexit.o)
 .data          0x0084b5f4        0x0 d:/altera/13.0sp1/nios2eds/bin/gnu/h-i686-mingw32/bin/../lib/gcc/nios2-elf/4.1.2/../../../../nios2-elf/lib\libc.a(lib_a-dtoa.o)
 .data          0x0084b5f4        0x0 d:/altera/13.0sp1/nios2eds/bin/gnu/h-i686-mingw32/bin/../lib/gcc/nios2-elf/4.1.2/../../../../nios2-elf/lib\libc.a(lib_a-fflush.o)
 .data          0x0084b5f4        0x0 d:/altera/13.0sp1/nios2eds/bin/gnu/h-i686-mingw32/bin/../lib/gcc/nios2-elf/4.1.2/../../../../nios2-elf/lib\libc.a(lib_a-findfp.o)
 .data          0x0084b5f4        0x0 d:/altera/13.0sp1/nios2eds/bin/gnu/h-i686-mingw32/bin/../lib/gcc/nios2-elf/4.1.2/../../../../nios2-elf/lib\libc.a(lib_a-fputc.o)
 .data          0x0084b5f4        0x0 d:/altera/13.0sp1/nios2eds/bin/gnu/h-i686-mingw32/bin/../lib/gcc/nios2-elf/4.1.2/../../../../nios2-elf/lib\libc.a(lib_a-fputs.o)
 .data          0x0084b5f4        0x0 d:/altera/13.0sp1/nios2eds/bin/gnu/h-i686-mingw32/bin/../lib/gcc/nios2-elf/4.1.2/../../../../nios2-elf/lib\libc.a(lib_a-freer.o)
 .data          0x0084b5f4        0x0 d:/altera/13.0sp1/nios2eds/bin/gnu/h-i686-mingw32/bin/../lib/gcc/nios2-elf/4.1.2/../../../../nios2-elf/lib\libc.a(lib_a-fvwrite.o)
 .data          0x0084b5f4        0x0 d:/altera/13.0sp1/nios2eds/bin/gnu/h-i686-mingw32/bin/../lib/gcc/nios2-elf/4.1.2/../../../../nios2-elf/lib\libc.a(lib_a-fwalk.o)
 .data          0x0084b5f4        0xc d:/altera/13.0sp1/nios2eds/bin/gnu/h-i686-mingw32/bin/../lib/gcc/nios2-elf/4.1.2/../../../../nios2-elf/lib\libc.a(lib_a-locale.o)
                0x0084b5f4                __lc_ctype
 .data          0x0084b600        0x0 d:/altera/13.0sp1/nios2eds/bin/gnu/h-i686-mingw32/bin/../lib/gcc/nios2-elf/4.1.2/../../../../nios2-elf/lib\libc.a(lib_a-makebuf.o)
 .data          0x0084b600      0x408 d:/altera/13.0sp1/nios2eds/bin/gnu/h-i686-mingw32/bin/../lib/gcc/nios2-elf/4.1.2/../../../../nios2-elf/lib\libc.a(lib_a-mallocr.o)
                0x0084b600                __malloc_av_
 .data          0x0084ba08        0x0 d:/altera/13.0sp1/nios2eds/bin/gnu/h-i686-mingw32/bin/../lib/gcc/nios2-elf/4.1.2/../../../../nios2-elf/lib\libc.a(lib_a-memchr.o)
 .data          0x0084ba08        0x0 d:/altera/13.0sp1/nios2eds/bin/gnu/h-i686-mingw32/bin/../lib/gcc/nios2-elf/4.1.2/../../../../nios2-elf/lib\libc.a(lib_a-mprec.o)
 .data          0x0084ba08        0x0 d:/altera/13.0sp1/nios2eds/bin/gnu/h-i686-mingw32/bin/../lib/gcc/nios2-elf/4.1.2/../../../../nios2-elf/lib\libc.a(lib_a-reallocr.o)
 .data          0x0084ba08        0x0 d:/altera/13.0sp1/nios2eds/bin/gnu/h-i686-mingw32/bin/../lib/gcc/nios2-elf/4.1.2/../../../../nios2-elf/lib\libc.a(lib_a-refill.o)
 .data          0x0084ba08        0x0 d:/altera/13.0sp1/nios2eds/bin/gnu/h-i686-mingw32/bin/../lib/gcc/nios2-elf/4.1.2/../../../../nios2-elf/lib\libc.a(lib_a-s_isinfd.o)
 .data          0x0084ba08        0x0 d:/altera/13.0sp1/nios2eds/bin/gnu/h-i686-mingw32/bin/../lib/gcc/nios2-elf/4.1.2/../../../../nios2-elf/lib\libc.a(lib_a-s_isnand.o)
 .data          0x0084ba08        0x0 d:/altera/13.0sp1/nios2eds/bin/gnu/h-i686-mingw32/bin/../lib/gcc/nios2-elf/4.1.2/../../../../nios2-elf/lib\libc.a(lib_a-sbrkr.o)
 .data          0x0084ba08        0x0 d:/altera/13.0sp1/nios2eds/bin/gnu/h-i686-mingw32/bin/../lib/gcc/nios2-elf/4.1.2/../../../../nios2-elf/lib\libc.a(lib_a-stdio.o)
 .data          0x0084ba08        0x0 d:/altera/13.0sp1/nios2eds/bin/gnu/h-i686-mingw32/bin/../lib/gcc/nios2-elf/4.1.2/../../../../nios2-elf/lib\libc.a(lib_a-writer.o)
 .data          0x0084ba08        0x0 d:/altera/13.0sp1/nios2eds/bin/gnu/h-i686-mingw32/bin/../lib/gcc/nios2-elf/4.1.2/../../../../nios2-elf/lib\libc.a(lib_a-callocr.o)
 .data          0x0084ba08        0x0 d:/altera/13.0sp1/nios2eds/bin/gnu/h-i686-mingw32/bin/../lib/gcc/nios2-elf/4.1.2/../../../../nios2-elf/lib\libc.a(lib_a-closer.o)
 .data          0x0084ba08        0x0 d:/altera/13.0sp1/nios2eds/bin/gnu/h-i686-mingw32/bin/../lib/gcc/nios2-elf/4.1.2/../../../../nios2-elf/lib\libc.a(lib_a-fclose.o)
 .data          0x0084ba08        0x0 d:/altera/13.0sp1/nios2eds/bin/gnu/h-i686-mingw32/bin/../lib/gcc/nios2-elf/4.1.2/../../../../nios2-elf/lib\libc.a(lib_a-fstatr.o)
 .data          0x0084ba08        0x0 d:/altera/13.0sp1/nios2eds/bin/gnu/h-i686-mingw32/bin/../lib/gcc/nios2-elf/4.1.2/../../../../nios2-elf/lib\libc.a(lib_a-int_errno.o)
 .data          0x0084ba08        0x0 d:/altera/13.0sp1/nios2eds/bin/gnu/h-i686-mingw32/bin/../lib/gcc/nios2-elf/4.1.2/../../../../nios2-elf/lib\libc.a(lib_a-isattyr.o)
 .data          0x0084ba08        0x0 d:/altera/13.0sp1/nios2eds/bin/gnu/h-i686-mingw32/bin/../lib/gcc/nios2-elf/4.1.2/../../../../nios2-elf/lib\libc.a(lib_a-lseekr.o)
 .data          0x0084ba08        0x0 d:/altera/13.0sp1/nios2eds/bin/gnu/h-i686-mingw32/bin/../lib/gcc/nios2-elf/4.1.2/../../../../nios2-elf/lib\libc.a(lib_a-readr.o)
 .data          0x0084ba08        0x0 d:/altera/13.0sp1/nios2eds/bin/gnu/h-i686-mingw32/bin/../lib/gcc/nios2-elf/4.1.2\libgcc.a(_udivdi3.o)
 .data          0x0084ba08        0x0 d:/altera/13.0sp1/nios2eds/bin/gnu/h-i686-mingw32/bin/../lib/gcc/nios2-elf/4.1.2\libgcc.a(_umoddi3.o)
 .data          0x0084ba08        0x0 d:/altera/13.0sp1/nios2eds/bin/gnu/h-i686-mingw32/bin/../lib/gcc/nios2-elf/4.1.2\libgcc.a(_div_df.o)
 .data          0x0084ba08        0x0 d:/altera/13.0sp1/nios2eds/bin/gnu/h-i686-mingw32/bin/../lib/gcc/nios2-elf/4.1.2\libgcc.a(_eq_df.o)
 .data          0x0084ba08        0x0 d:/altera/13.0sp1/nios2eds/bin/gnu/h-i686-mingw32/bin/../lib/gcc/nios2-elf/4.1.2\libgcc.a(_ne_df.o)
 .data          0x0084ba08        0x0 d:/altera/13.0sp1/nios2eds/bin/gnu/h-i686-mingw32/bin/../lib/gcc/nios2-elf/4.1.2\libgcc.a(_gt_df.o)
 .data          0x0084ba08        0x0 d:/altera/13.0sp1/nios2eds/bin/gnu/h-i686-mingw32/bin/../lib/gcc/nios2-elf/4.1.2\libgcc.a(_lt_df.o)
 .data          0x0084ba08        0x0 d:/altera/13.0sp1/nios2eds/bin/gnu/h-i686-mingw32/bin/../lib/gcc/nios2-elf/4.1.2\libgcc.a(_si_to_df.o)
 .data          0x0084ba08        0x0 d:/altera/13.0sp1/nios2eds/bin/gnu/h-i686-mingw32/bin/../lib/gcc/nios2-elf/4.1.2\libgcc.a(lib2-divmod.o)
 .data          0x0084ba08        0x0 ../lab7_bsp/\libucosii_bsp.a(alt_exit.o)
 .data          0x0084ba08        0x0 ../lab7_bsp/\libucosii_bsp.a(alt_flash_dev.o)
 .data          0x0084ba08        0x0 ../lab7_bsp/\libucosii_bsp.a(alt_fstat.o)
 .data          0x0084ba08        0x0 ../lab7_bsp/\libucosii_bsp.a(alt_irq_register.o)
 .data          0x0084ba08        0x0 ../lab7_bsp/\libucosii_bsp.a(alt_irq_vars.o)
 .data          0x0084ba08        0x0 ../lab7_bsp/\libucosii_bsp.a(alt_isatty.o)
 .data          0x0084ba08        0x0 ../lab7_bsp/\libucosii_bsp.a(alt_lseek.o)
 .data          0x0084ba08        0x0 ../lab7_bsp/\libucosii_bsp.a(alt_main.o)
 .data          0x0084ba08        0x0 ../lab7_bsp/\libucosii_bsp.a(alt_sbrk.o)
 .data          0x0084ba08        0x0 ../lab7_bsp/\libucosii_bsp.a(alt_usleep.o)
 .data          0x0084ba08        0x0 ../lab7_bsp/\libucosii_bsp.a(alt_env_lock.o)
 .data          0x0084ba08        0x0 ../lab7_bsp/\libucosii_bsp.a(alt_malloc_lock.o)
 .data          0x0084ba08        0x0 ../lab7_bsp/\libucosii_bsp.a(os_core.o)
 .data          0x0084ba08        0x0 ../lab7_bsp/\libucosii_bsp.a(os_dbg.o)
 .data          0x0084ba08        0x0 ../lab7_bsp/\libucosii_bsp.a(os_flag.o)
 .data          0x0084ba08        0x0 ../lab7_bsp/\libucosii_bsp.a(os_mem.o)
 .data          0x0084ba08        0x0 ../lab7_bsp/\libucosii_bsp.a(os_q.o)
 .data          0x0084ba08        0x0 ../lab7_bsp/\libucosii_bsp.a(os_sem.o)
 .data          0x0084ba08        0x0 ../lab7_bsp/\libucosii_bsp.a(os_task.o)
 .data          0x0084ba08        0x0 ../lab7_bsp/\libucosii_bsp.a(os_time.o)
 .data          0x0084ba08     0x1400 ../lab7_bsp/\libucosii_bsp.a(alt_sys_init.o)
 .data          0x0084ce08        0x0 ../lab7_bsp/\libucosii_bsp.a(altera_avalon_cfi_flash.o)
 .data          0x0084ce08        0x0 ../lab7_bsp/\libucosii_bsp.a(altera_avalon_cfi_flash_table.o)
 .data          0x0084ce08        0x0 ../lab7_bsp/\libucosii_bsp.a(altera_avalon_epcs_flash_controller.o)
 .data          0x0084ce08        0x0 ../lab7_bsp/\libucosii_bsp.a(altera_avalon_jtag_uart_fd.o)
 .data          0x0084ce08        0x0 ../lab7_bsp/\libucosii_bsp.a(altera_avalon_jtag_uart_init.o)
 .data          0x0084ce08        0x0 ../lab7_bsp/\libucosii_bsp.a(altera_avalon_jtag_uart_ioctl.o)
 .data          0x0084ce08        0x0 ../lab7_bsp/\libucosii_bsp.a(altera_avalon_jtag_uart_read.o)
 .data          0x0084ce08        0x0 ../lab7_bsp/\libucosii_bsp.a(altera_avalon_jtag_uart_write.o)
 .data          0x0084ce08        0x0 ../lab7_bsp/\libucosii_bsp.a(altera_avalon_lcd_16207.o)
 .data          0x0084ce08        0x0 ../lab7_bsp/\libucosii_bsp.a(altera_avalon_lcd_16207_fd.o)
 .data          0x0084ce08        0x0 ../lab7_bsp/\libucosii_bsp.a(altera_avalon_timer_sc.o)
 .data          0x0084ce08        0x0 ../lab7_bsp/\libucosii_bsp.a(altera_avalon_uart_fd.o)
 .data          0x0084ce08        0x0 ../lab7_bsp/\libucosii_bsp.a(altera_avalon_uart_init.o)
 .data          0x0084ce08        0x0 ../lab7_bsp/\libucosii_bsp.a(altera_avalon_uart_read.o)
 .data          0x0084ce08        0x0 ../lab7_bsp/\libucosii_bsp.a(altera_avalon_uart_write.o)
 .data          0x0084ce08        0x0 ../lab7_bsp/\libucosii_bsp.a(epcs_commands.o)
 .data          0x0084ce08        0x0 ../lab7_bsp/\libucosii_bsp.a(alt_iniche_close.o)
 .data          0x0084ce08        0x0 ../lab7_bsp/\libucosii_bsp.a(alt_iniche_dev.o)
 .data          0x0084ce08        0x0 ../lab7_bsp/\libucosii_bsp.a(alt_iniche_read.o)
 .data          0x0084ce08        0x0 ../lab7_bsp/\libucosii_bsp.a(alt_iniche_write.o)
 .data          0x0084ce08        0x0 ../lab7_bsp/\libucosii_bsp.a(ipnet.o)
 .data          0x0084ce08        0x0 ../lab7_bsp/\libucosii_bsp.a(ipstart.o)
 .data          0x0084ce08        0x0 ../lab7_bsp/\libucosii_bsp.a(igmp_cmn.o)
 .data          0x0084ce08        0x0 ../lab7_bsp/\libucosii_bsp.a(bsdsock.o)
 .data          0x0084ce08        0x0 ../lab7_bsp/\libucosii_bsp.a(cksum.o)
 .data          0x0084ce08        0x0 ../lab7_bsp/\libucosii_bsp.a(in_utils.o)
 .data          0x0084ce08       0x30 ../lab7_bsp/\libucosii_bsp.a(netmain.o)
                0x0084ce08                nettasks
 .data          0x0084ce38        0x0 ../lab7_bsp/\libucosii_bsp.a(parseip.o)
 .data          0x0084ce38        0x0 ../lab7_bsp/\libucosii_bsp.a(tk_crnos.o)
 .data          0x0084ce38        0x0 ../lab7_bsp/\libucosii_bsp.a(dhcpclnt.o)
 .data          0x0084ce38        0x0 ../lab7_bsp/\libucosii_bsp.a(dhcputil.o)
 .data          0x0084ce38        0x0 ../lab7_bsp/\libucosii_bsp.a(pktalloc.o)
 .data          0x0084ce38        0x0 ../lab7_bsp/\libucosii_bsp.a(q.o)
 .data          0x0084ce38        0x0 ../lab7_bsp/\libucosii_bsp.a(udp_open.o)
 .data          0x0084ce38        0x0 ../lab7_bsp/\libucosii_bsp.a(asm_cksum.o)
 .data          0x0084ce38        0x0 ../lab7_bsp/\libucosii_bsp.a(brdutils.o)
 .data          0x0084ce38        0x0 ../lab7_bsp/\libucosii_bsp.a(osportco.o)
 .data          0x0084ce38        0x0 ../lab7_bsp/\libucosii_bsp.a(targnios.o)
 .data          0x0084ce38       0x48 ../lab7_bsp/\libucosii_bsp.a(nptcp.o)
                0x0084ce38                tcp_protosw
                0x0084ce50                udp_protosw
                0x0084ce68                rawip_protosw
 .data          0x0084ce80        0x0 ../lab7_bsp/\libucosii_bsp.a(rawsock.o)
 .data          0x0084ce80        0x0 ../lab7_bsp/\libucosii_bsp.a(sockcall.o)
 .data          0x0084ce80        0x0 ../lab7_bsp/\libucosii_bsp.a(socket.o)
 .data          0x0084ce80        0x0 ../lab7_bsp/\libucosii_bsp.a(socket2.o)
 .data          0x0084ce80        0x0 ../lab7_bsp/\libucosii_bsp.a(soselect.o)
 .data          0x0084ce80        0x0 ../lab7_bsp/\libucosii_bsp.a(tcp_in.o)
 .data          0x0084ce80        0xb ../lab7_bsp/\libucosii_bsp.a(tcp_out.o)
                0x0084ce80                tcp_outflags
 .data          0x0084ce8b        0x0 ../lab7_bsp/\libucosii_bsp.a(tcp_subr.o)
 .data          0x0084ce8b        0xd ../lab7_bsp/\libucosii_bsp.a(tcp_timr.o)
                0x0084ce8b                tcp_backoff
 .data          0x0084ce98        0x0 ../lab7_bsp/\libucosii_bsp.a(tcp_usr.o)
 .data          0x0084ce98        0x0 ../lab7_bsp/\libucosii_bsp.a(tcpport.o)
 .data          0x0084ce98        0x0 ../lab7_bsp/\libucosii_bsp.a(udpsock.o)
 .data          0x0084ce98        0x0 ../lab7_bsp/\libucosii_bsp.a(alt_alarm_start.o)
 .data          0x0084ce98        0x0 ../lab7_bsp/\libucosii_bsp.a(alt_busy_sleep.o)
 .data          0x0084ce98        0x0 ../lab7_bsp/\libucosii_bsp.a(alt_close.o)
 .data          0x0084ce98        0x0 ../lab7_bsp/\libucosii_bsp.a(alt_dcache_flush.o)
 .data          0x0084ce98      0x1a8 ../lab7_bsp/\libucosii_bsp.a(alt_dev.o)
                0x0084ce98                alt_dev_null
                0x0084cec0                alt_fd_list
 .data          0x0084d040        0x0 ../lab7_bsp/\libucosii_bsp.a(alt_dev_llist_insert.o)
 .data          0x0084d040        0x0 ../lab7_bsp/\libucosii_bsp.a(alt_do_ctors.o)
 .data          0x0084d040        0x0 ../lab7_bsp/\libucosii_bsp.a(alt_do_dtors.o)
 .data          0x0084d040        0x0 ../lab7_bsp/\libucosii_bsp.a(alt_errno.o)
 .data          0x0084d040        0x0 ../lab7_bsp/\libucosii_bsp.a(alt_find_dev.o)
 .data          0x0084d040        0x0 ../lab7_bsp/\libucosii_bsp.a(alt_iic.o)
 .data          0x0084d040        0x0 ../lab7_bsp/\libucosii_bsp.a(alt_iic_isr_register.o)
 .data          0x0084d040        0x0 ../lab7_bsp/\libucosii_bsp.a(alt_io_redirect.o)
 .data          0x0084d040        0x0 ../lab7_bsp/\libucosii_bsp.a(alt_irq_entry.o)
 .data          0x0084d040        0x0 ../lab7_bsp/\libucosii_bsp.a(alt_irq_handler.o)
 .data          0x0084d040        0x0 ../lab7_bsp/\libucosii_bsp.a(alt_open.o)
 .data          0x0084d040        0x0 ../lab7_bsp/\libucosii_bsp.a(alt_read.o)
 .data          0x0084d040        0x0 ../lab7_bsp/\libucosii_bsp.a(alt_release_fd.o)
 .data          0x0084d040        0x0 ../lab7_bsp/\libucosii_bsp.a(alt_remap_cached.o)
 .data          0x0084d040        0x0 ../lab7_bsp/\libucosii_bsp.a(alt_remap_uncached.o)
 .data          0x0084d040        0x0 ../lab7_bsp/\libucosii_bsp.a(alt_tick.o)
 .data          0x0084d040        0x0 ../lab7_bsp/\libucosii_bsp.a(alt_write.o)
 .data          0x0084d040        0x0 ../lab7_bsp/\libucosii_bsp.a(altera_nios2_qsys_irq.o)
 .data          0x0084d040        0x0 ../lab7_bsp/\libucosii_bsp.a(os_cpu_a.o)
 .data          0x0084d040        0x0 ../lab7_bsp/\libucosii_bsp.a(os_cpu_c.o)
 .data          0x0084d040        0x0 ../lab7_bsp/\libucosii_bsp.a(altera_avalon_cfi_flash_amd.o)
 .data          0x0084d040        0x0 ../lab7_bsp/\libucosii_bsp.a(altera_avalon_cfi_flash_intel.o)
 .data          0x0084d040        0x0 ../lab7_bsp/\libucosii_bsp.a(altera_avalon_spi.o)
 .data          0x0084d040       0x18 ../lab7_bsp/\libucosii_bsp.a(allports.o)
                0x0084d040                icmpdu_types
 .data          0x0084d058        0x0 ../lab7_bsp/\libucosii_bsp.a(timeouts.o)
 .data          0x0084d058        0x0 ../lab7_bsp/\libucosii_bsp.a(tk_misc.o)
 .data          0x0084d058        0x0 ../lab7_bsp/\libucosii_bsp.a(alt_iniche_fcntl.o)
 .data          0x0084d058        0x0 ../lab7_bsp/\libucosii_bsp.a(et_arp.o)
 .data          0x0084d058        0x0 ../lab7_bsp/\libucosii_bsp.a(iface.o)
 .data          0x0084d058        0x0 ../lab7_bsp/\libucosii_bsp.a(ip.o)
 .data          0x0084d058        0x0 ../lab7_bsp/\libucosii_bsp.a(ip_reasm.o)
 .data          0x0084d058        0x0 ../lab7_bsp/\libucosii_bsp.a(ipdemux.o)
 .data          0x0084d058        0x0 ../lab7_bsp/\libucosii_bsp.a(ipmc.o)
 .data          0x0084d058        0x0 ../lab7_bsp/\libucosii_bsp.a(ipport.o)
 .data          0x0084d058        0x0 ../lab7_bsp/\libucosii_bsp.a(ipraw.o)
 .data          0x0084d058        0x9 ../lab7_bsp/\libucosii_bsp.a(iproute.o)
                0x0084d058                rtp_priority
 .data          0x0084d061        0x0 ../lab7_bsp/\libucosii_bsp.a(udp.o)
 .data          0x0084d061        0x0 ../lab7_bsp/\libucosii_bsp.a(igmp.o)
 .data          0x0084d061        0x0 ../lab7_bsp/\libucosii_bsp.a(igmp2.o)
 .data          0x0084d061        0x0 ../lab7_bsp/\libucosii_bsp.a(ipopt.o)
 .data          0x0084d061        0x0 ../lab7_bsp/\libucosii_bsp.a(u_mctest.o)
 .data          0x0084d061        0x0 ../lab7_bsp/\libucosii_bsp.a(dhcsetup.o)
 *fill*         0x0084d061        0x3 00
 .data          0x0084d064       0xd4 ../lab7_bsp/\libucosii_bsp.a(memdev.o)
                0x0084d064                mdio
                0x0084d088                mdlist
 .data          0x0084d138        0x0 ../lab7_bsp/\libucosii_bsp.a(tcpcksum.o)
 .data          0x0084d138        0x0 ../lab7_bsp/\libucosii_bsp.a(in_pcb.o)
 .data          0x0084d138       0x80 ../lab7_bsp/\libucosii_bsp.a(vfsfiles.o)
                0x0084d138                vfs_root_path
 .data          0x0084d1b8        0x0 ../lab7_bsp/\libucosii_bsp.a(vfsport.o)
 .data          0x0084d1b8        0x0 ../lab7_bsp/\libucosii_bsp.a(alt_exception_entry.o)
 .data          0x0084d1b8        0x0 ../lab7_bsp/\libucosii_bsp.a(alt_fcntl.o)
 .data          0x0084d1b8        0x0 ../lab7_bsp/\libucosii_bsp.a(alt_find_file.o)
 .data          0x0084d1b8        0x0 ../lab7_bsp/\libucosii_bsp.a(alt_get_fd.o)
 .data          0x0084d1b8       0x18 ../lab7_bsp/\libucosii_bsp.a(icmp.o)
 .data          0x0084d1d0        0x0 d:/altera/13.0sp1/nios2eds/bin/gnu/h-i686-mingw32/bin/../lib/gcc/nios2-elf/4.1.2/../../../../nios2-elf/lib\libc.a(lib_a-atexit.o)
 .data          0x0084d1d0        0x0 d:/altera/13.0sp1/nios2eds/bin/gnu/h-i686-mingw32/bin/../lib/gcc/nios2-elf/4.1.2/../../../../nios2-elf/lib\libc.a(lib_a-calloc.o)
 .data          0x0084d1d0        0x0 d:/altera/13.0sp1/nios2eds/bin/gnu/h-i686-mingw32/bin/../lib/gcc/nios2-elf/4.1.2/../../../../nios2-elf/lib\libc.a(lib_a-malloc.o)
 .data          0x0084d1d0        0x0 d:/altera/13.0sp1/nios2eds/bin/gnu/h-i686-mingw32/bin/../lib/gcc/nios2-elf/4.1.2/../../../../nios2-elf/lib\libc.a(lib_a-memcmp.o)
 .data          0x0084d1d0        0x0 d:/altera/13.0sp1/nios2eds/bin/gnu/h-i686-mingw32/bin/../lib/gcc/nios2-elf/4.1.2/../../../../nios2-elf/lib\libc.a(lib_a-sprintf.o)
 .data          0x0084d1d0        0x0 d:/altera/13.0sp1/nios2eds/bin/gnu/h-i686-mingw32/bin/../lib/gcc/nios2-elf/4.1.2/../../../../nios2-elf/lib\libc.a(lib_a-strcpy.o)
 .data          0x0084d1d0        0x0 d:/altera/13.0sp1/nios2eds/bin/gnu/h-i686-mingw32/bin/../lib/gcc/nios2-elf/4.1.2/../../../../nios2-elf/lib\libc.a(lib_a-strncmp.o)
 .data          0x0084d1d0        0x0 d:/altera/13.0sp1/nios2eds/bin/gnu/h-i686-mingw32/bin/../lib/gcc/nios2-elf/4.1.2/../../../../nios2-elf/lib\libc.a(lib_a-strncpy.o)
 .data          0x0084d1d0        0x0 d:/altera/13.0sp1/nios2eds/bin/gnu/h-i686-mingw32/bin/../lib/gcc/nios2-elf/4.1.2/../../../../nios2-elf/lib\libc.a(lib_a-vprintf.o)
 .data          0x0084d1d0        0x0 d:/altera/13.0sp1/nios2eds/bin/gnu/h-i686-mingw32/bin/../lib/gcc/nios2-elf/4.1.2/../../../../nios2-elf/lib\libc.a(lib_a-vsprintf.o)
 .data          0x0084d1d0        0x0 d:/altera/13.0sp1/nios2eds/bin/gnu/h-i686-mingw32/bin/../lib/gcc/nios2-elf/4.1.2/../../../../nios2-elf/lib\libc.a(lib_a-__atexit.o)
                0x008551d0                _gp = ABSOLUTE ((. + 0x8000))
                0x008551d0                PROVIDE (gp, _gp)
 *(.rwdata .rwdata.*)
 *(.sdata .sdata.* .gnu.linkonce.s.*)
 .sdata         0x0084d1d0        0x4 d:/altera/13.0sp1/nios2eds/bin/gnu/h-i686-mingw32/bin/../lib/gcc/nios2-elf/4.1.2/../../../../nios2-elf/lib\libc.a(lib_a-ctype_.o)
                0x0084d1d0                __ctype_ptr
 .sdata         0x0084d1d4        0x8 d:/altera/13.0sp1/nios2eds/bin/gnu/h-i686-mingw32/bin/../lib/gcc/nios2-elf/4.1.2/../../../../nios2-elf/lib\libc.a(lib_a-impure.o)
                0x0084d1d4                _impure_ptr
                0x0084d1d8                _global_impure_ptr
 .sdata         0x0084d1dc        0x8 d:/altera/13.0sp1/nios2eds/bin/gnu/h-i686-mingw32/bin/../lib/gcc/nios2-elf/4.1.2/../../../../nios2-elf/lib\libc.a(lib_a-locale.o)
                0x0084d1dc                __mb_cur_max
 .sdata         0x0084d1e4        0x8 d:/altera/13.0sp1/nios2eds/bin/gnu/h-i686-mingw32/bin/../lib/gcc/nios2-elf/4.1.2/../../../../nios2-elf/lib\libc.a(lib_a-mallocr.o)
                0x0084d1e4                __malloc_trim_threshold
                0x0084d1e8                __malloc_sbrk_base
 .sdata         0x0084d1ec        0x8 ../lab7_bsp/\libucosii_bsp.a(alt_flash_dev.o)
                0x0084d1ec                alt_flash_dev_list
 .sdata         0x0084d1f4        0x4 ../lab7_bsp/\libucosii_bsp.a(alt_irq_vars.o)
                0x0084d1f4                alt_priority_mask
 .sdata         0x0084d1f8        0x4 ../lab7_bsp/\libucosii_bsp.a(alt_sbrk.o)
 .sdata         0x0084d1fc        0x4 ../lab7_bsp/\libucosii_bsp.a(alt_env_lock.o)
 .sdata         0x0084d200        0x4 ../lab7_bsp/\libucosii_bsp.a(alt_malloc_lock.o)
 .sdata         0x0084d204       0x74 ../lab7_bsp/\libucosii_bsp.a(os_dbg.o)
                0x0084d204                OSDebugEn
                0x0084d208                OSEndiannessTest
                0x0084d20c                OSEventEn
                0x0084d20e                OSEventMax
                0x0084d210                OSEventNameSize
                0x0084d212                OSEventSize
                0x0084d214                OSEventTblSize
                0x0084d216                OSEventMultiEn
                0x0084d218                OSFlagEn
                0x0084d21a                OSFlagGrpSize
                0x0084d21c                OSFlagNodeSize
                0x0084d21e                OSFlagWidth
                0x0084d220                OSFlagMax
                0x0084d222                OSFlagNameSize
                0x0084d224                OSLowestPrio
                0x0084d226                OSMboxEn
                0x0084d228                OSMemEn
                0x0084d22a                OSMemMax
                0x0084d22c                OSMemNameSize
                0x0084d22e                OSMemSize
                0x0084d230                OSMemTblSize
                0x0084d232                OSMutexEn
                0x0084d234                OSPtrSize
                0x0084d236                OSQEn
                0x0084d238                OSQMax
                0x0084d23a                OSQSize
                0x0084d23c                OSRdyTblSize
                0x0084d23e                OSSemEn
                0x0084d240                OSStkWidth
                0x0084d242                OSTaskCreateEn
                0x0084d244                OSTaskCreateExtEn
                0x0084d246                OSTaskDelEn
                0x0084d248                OSTaskIdleStkSize
                0x0084d24a                OSTaskProfileEn
                0x0084d24c                OSTaskMax
                0x0084d24e                OSTaskNameSize
                0x0084d250                OSTaskStatEn
                0x0084d252                OSTaskStatStkSize
                0x0084d254                OSTaskStatStkChkEn
                0x0084d256                OSTaskSwHookEn
                0x0084d258                OSTCBPrioTblMax
                0x0084d25a                OSTCBSize
                0x0084d25c                OSTicksPerSec
                0x0084d25e                OSTimeTickHookEn
                0x0084d260                OSVersionNbr
                0x0084d262                OSTmrEn
                0x0084d264                OSTmrCfgMax
                0x0084d266                OSTmrCfgNameSize
                0x0084d268                OSTmrCfgWheelSize
                0x0084d26a                OSTmrCfgTicksPerSec
                0x0084d26c                OSTmrSize
                0x0084d26e                OSTmrTblSize
                0x0084d270                OSTmrWheelSize
                0x0084d272                OSTmrWheelTblSize
                0x0084d274                OSDataSize
 .sdata         0x0084d278        0x4 ../lab7_bsp/\libucosii_bsp.a(altera_avalon_lcd_16207.o)
 .sdata         0x0084d27c        0x8 ../lab7_bsp/\libucosii_bsp.a(alt_iniche_dev.o)
                0x0084d27c                alt_iniche_dev_list
 .sdata         0x0084d284        0x4 ../lab7_bsp/\libucosii_bsp.a(ipstart.o)
                0x0084d284                ipmcfail_str
 .sdata         0x0084d288        0x4 ../lab7_bsp/\libucosii_bsp.a(cksum.o)
 .sdata         0x0084d28c        0x4 ../lab7_bsp/\libucosii_bsp.a(netmain.o)
                0x0084d28c                num_net_tasks
 .sdata         0x0084d290        0x4 ../lab7_bsp/\libucosii_bsp.a(parseip.o)
                0x0084d290                pton_error
 .sdata         0x0084d294        0xc ../lab7_bsp/\libucosii_bsp.a(dhcpclnt.o)
                0x0084d294                xids
                0x0084d298                reqlist
                0x0084d29c                reqlist_len
 .sdata         0x0084d2a0       0x10 ../lab7_bsp/\libucosii_bsp.a(pktalloc.o)
                0x0084d2a0                lilbufs
                0x0084d2a4                lilbufsiz
                0x0084d2a8                bigbufs
                0x0084d2ac                bigbufsiz
 .sdata         0x0084d2b0        0x4 ../lab7_bsp/\libucosii_bsp.a(brdutils.o)
                0x0084d2b0                kb_last
 .sdata         0x0084d2b4        0x4 ../lab7_bsp/\libucosii_bsp.a(nptcp.o)
                0x0084d2b4                TCPTV_MSL
 .sdata         0x0084d2b8        0x2 ../lab7_bsp/\libucosii_bsp.a(socket.o)
                0x0084d2b8                socket_defaults
 .sdata         0x0084d2ba        0x1 ../lab7_bsp/\libucosii_bsp.a(tcp_in.o)
                0x0084d2ba                tcprexmtthresh
 *fill*         0x0084d2bb        0x1 00
 .sdata         0x0084d2bc        0x4 ../lab7_bsp/\libucosii_bsp.a(tcp_subr.o)
                0x0084d2bc                tcp_ttl
 .sdata         0x0084d2c0        0x8 ../lab7_bsp/\libucosii_bsp.a(tcp_timr.o)
                0x0084d2c0                tcp_keepidle
                0x0084d2c4                tcp_keepintvl
 .sdata         0x0084d2c8        0x8 ../lab7_bsp/\libucosii_bsp.a(tcp_usr.o)
                0x0084d2c8                tcp_sendspace
                0x0084d2cc                tcp_recvspace
 .sdata         0x0084d2d0       0x14 ../lab7_bsp/\libucosii_bsp.a(alt_dev.o)
                0x0084d2d0                alt_fs_list
                0x0084d2d8                alt_dev_list
                0x0084d2e0                alt_max_fd
 .sdata         0x0084d2e4        0x4 ../lab7_bsp/\libucosii_bsp.a(alt_errno.o)
                0x0084d2e4                alt_errno
 .sdata         0x0084d2e8        0x8 ../lab7_bsp/\libucosii_bsp.a(alt_tick.o)
                0x0084d2e8                alt_alarm_list
 .sdata         0x0084d2f0       0x10 ../lab7_bsp/\libucosii_bsp.a(allports.o)
                0x0084d2f0                name
                0x0084d2f4                prompt
                0x0084d2f8                pingdelay
                0x0084d2fc                deflength
 .sdata         0x0084d300        0x4 ../lab7_bsp/\libucosii_bsp.a(et_arp.o)
                0x0084d300                arp_ageout
 .sdata         0x0084d304        0x8 ../lab7_bsp/\libucosii_bsp.a(ip.o)
                0x0084d308                ipRoutes
 .sdata         0x0084d30c        0x4 ../lab7_bsp/\libucosii_bsp.a(u_mctest.o)
 .sdata         0x0084d310        0x4 ../lab7_bsp/\libucosii_bsp.a(memdev.o)
                0x0084d310                mdlist_size
 .sdata         0x0084d314        0x4 ../lab7_bsp/\libucosii_bsp.a(vfsfiles.o)
                0x0084d314                http_root_path
 *(.sdata2 .sdata2.* .gnu.linkonce.s2.*)
                0x0084d318                . = ALIGN (0x4)
                0x0084d318                _edata = ABSOLUTE (.)
                0x0084d318                PROVIDE (edata, ABSOLUTE (.))
                0x0084d318                PROVIDE (__ram_rwdata_end, ABSOLUTE (.))
                0x0084b1dc                PROVIDE (__flash_rwdata_start, LOADADDR (.rwdata))

.bss            0x0084d318     0xaa24
                0x0084d318                __bss_start = ABSOLUTE (.)
                0x0084d318                PROVIDE (__sbss_start, ABSOLUTE (.))
                0x0084d318                PROVIDE (___sbss_start, ABSOLUTE (.))
 *(.dynsbss)
 *(.sbss .sbss.* .gnu.linkonce.sb.*)
 .sbss          0x0084d318        0x8 obj/default/SSS_DE2_115.o
                0x0084d318                last_flash_sector_offset
                0x0084d31c                last_flash_sector
 .sbss          0x0084d320        0x8 obj/default/dm9000a.o
                0x0084d320                autoReset
                0x0084d324                netisrs
 .sbss          0x0084d328        0x1 obj/default/iniche_init.o
                0x0084d328                to_ssstask
 *fill*         0x0084d329        0x3 00
 .sbss          0x0084d32c       0x10 obj/default/simple_socket_server.o
                0x0084d330                SSSLEDCommandQ
                0x0084d334                SSSLEDLightshowSem
                0x0084d338                SSSLEDEventFlag
 .sbss          0x0084d33c        0xc d:/altera/13.0sp1/nios2eds/bin/gnu/h-i686-mingw32/bin/../lib/gcc/nios2-elf/4.1.2/../../../../nios2-elf/lib\libc.a(lib_a-locale.o)
                0x0084d33c                __nlocale_changed
                0x0084d340                __mlocale_changed
                0x0084d344                _PathLocale
 .sbss          0x0084d348        0xc d:/altera/13.0sp1/nios2eds/bin/gnu/h-i686-mingw32/bin/../lib/gcc/nios2-elf/4.1.2/../../../../nios2-elf/lib\libc.a(lib_a-mallocr.o)
                0x0084d348                __malloc_top_pad
                0x0084d34c                __malloc_max_sbrked_mem
                0x0084d350                __malloc_max_total_mem
 .sbss          0x0084d354        0x4 d:/altera/13.0sp1/nios2eds/bin/gnu/h-i686-mingw32/bin/../lib/gcc/nios2-elf/4.1.2/../../../../nios2-elf/lib\libc.a(lib_a-int_errno.o)
                0x0084d354                errno
 .sbss          0x0084d358        0x4 ../lab7_bsp/\libucosii_bsp.a(alt_irq_vars.o)
                0x0084d358                alt_irq_active
 .sbss          0x0084d35c        0xc ../lab7_bsp/\libucosii_bsp.a(alt_main.o)
                0x0084d35c                alt_argc
                0x0084d360                alt_argv
                0x0084d364                alt_envp
 .sbss          0x0084d368        0x8 ../lab7_bsp/\libucosii_bsp.a(alt_env_lock.o)
                0x0084d36c                alt_envsem
 .sbss          0x0084d370        0x8 ../lab7_bsp/\libucosii_bsp.a(alt_malloc_lock.o)
                0x0084d374                alt_heapsem
 .sbss          0x0084d378       0x50 ../lab7_bsp/\libucosii_bsp.a(os_core.o)
                0x0084d378                OSLockNesting
                0x0084d379                OSRunning
                0x0084d37c                OSIdleCtr
                0x0084d380                OSPrioHighRdy
                0x0084d381                OSPrioCur
                0x0084d384                OSTCBList
                0x0084d388                OSTickStepState
                0x0084d38c                OSCtxSwCtr
                0x0084d390                OSIdleCtrMax
                0x0084d394                OSTCBFreeList
                0x0084d398                OSCPUUsage
                0x0084d399                OSTaskCtr
                0x0084d39c                OSMemFreeList
                0x0084d3a0                OSTCBHighRdy
                0x0084d3a4                OSQFreeList
                0x0084d3a8                OSRdyGrp
                0x0084d3a9                OSRdyTbl
                0x0084d3ac                OSEventFreeList
                0x0084d3b0                OSIntNesting
                0x0084d3b4                OSTCBCur
                0x0084d3b8                OSTime
                0x0084d3bc                OSFlagFreeList
                0x0084d3c0                OSStatRdy
                0x0084d3c4                OSIdleCtrRun
 .sbss          0x0084d3c8        0xc ../lab7_bsp/\libucosii_bsp.a(ipnet.o)
                0x0084d3c8                MaxLnh
                0x0084d3cc                MaxMtu
                0x0084d3d0                NDEBUG
 .sbss          0x0084d3d4        0x8 ../lab7_bsp/\libucosii_bsp.a(ipstart.o)
                0x0084d3d4                ifNumber
 .sbss          0x0084d3dc       0x10 ../lab7_bsp/\libucosii_bsp.a(igmp_cmn.o)
                0x0084d3dc                igmp_timers_are_running
                0x0084d3e0                igmp_cticks
                0x0084d3e4                igmp_all_hosts_group
                0x0084d3e8                igmp_all_rtrs_group
 .sbss          0x0084d3ec        0xe ../lab7_bsp/\libucosii_bsp.a(netmain.o)
                0x0084d3ec                netmain_wakes
                0x0084d3f0                nettick_wakes
                0x0084d3f4                iniche_net_ready
                0x0084d3f8                to_netmain
                0x0084d3f9                to_nettick
 *fill*         0x0084d3fa        0x2 00
 .sbss          0x0084d3fc        0x4 ../lab7_bsp/\libucosii_bsp.a(tk_crnos.o)
                0x0084d3fc                tcp_sleep_timeout
 .sbss          0x0084d400       0x34 ../lab7_bsp/\libucosii_bsp.a(dhcpclnt.o)
                0x0084d400                dhc_conn
                0x0084d404                dsc_errors
                0x0084d408                dsc_discovers
                0x0084d40c                dsc_offers
                0x0084d410                dsc_requests
                0x0084d414                dsc_acks
                0x0084d418                dsc_bpreplys
                0x0084d41c                dsc_declines
                0x0084d420                dsc_releases
                0x0084d424                dsc_naks
                0x0084d428                dsc_renew
                0x0084d42c                dsc_rebind
                0x0084d430                dsc_rlyerrs
 .sbss          0x0084d434        0x4 ../lab7_bsp/\libucosii_bsp.a(udp_open.o)
                0x0084d434                firstudp
 .sbss          0x0084d438       0x18 ../lab7_bsp/\libucosii_bsp.a(brdutils.o)
                0x0084d43c                cticks_initialized
                0x0084d440                irq_level
                0x0084d448                cticks_factor
                0x0084d44c                OS_TPS
 .sbss          0x0084d450       0x18 ../lab7_bsp/\libucosii_bsp.a(osportco.o)
                0x0084d450                tcp_sleep_count
                0x0084d454                tcp_wakeup_count
                0x0084d458                netq_intmask
                0x0084d45c                old_mode
                0x0084d460                global_TCPwakeup_setIndx
                0x0084d464                cticks
 .sbss          0x0084d468        0xc ../lab7_bsp/\libucosii_bsp.a(targnios.o)
                0x0084d468                memtrapsize
                0x0084d46c                mheap_sem_ptr
                0x0084d470                rcvdq_sem_ptr
 .sbss          0x0084d474       0x12 ../lab7_bsp/\libucosii_bsp.a(nptcp.o)
                0x0084d474                nextslow
                0x0084d47c                mbstat
                0x0084d484                select_wait
 *fill*         0x0084d486        0x2 00
 .sbss          0x0084d488        0x8 ../lab7_bsp/\libucosii_bsp.a(tcp_in.o)
                0x0084d488                tcpprintfs
                0x0084d48c                dropline
 .sbss          0x0084d490        0x4 ../lab7_bsp/\libucosii_bsp.a(tcp_out.o)
                0x0084d490                tcp_optionbuf
 .sbss          0x0084d494        0x8 ../lab7_bsp/\libucosii_bsp.a(tcp_timr.o)
                0x0084d494                tcp_maxidle
                0x0084d498                tcp_iss
 .sbss          0x0084d49c        0x4 ../lab7_bsp/\libucosii_bsp.a(alt_dev.o)
                0x0084d49c                alt_fd_list_lock
 .sbss          0x0084d4a0        0x8 ../lab7_bsp/\libucosii_bsp.a(alt_tick.o)
                0x0084d4a0                _alt_tick_rate
                0x0084d4a4                _alt_nticks
 .sbss          0x0084d4a8        0x8 ../lab7_bsp/\libucosii_bsp.a(allports.o)
                0x0084d4a8                activehost
 .sbss          0x0084d4b0        0xc ../lab7_bsp/\libucosii_bsp.a(timeouts.o)
                0x0084d4b0                nextppp
                0x0084d4b4                port_1s_callout
 .sbss          0x0084d4bc       0x1c ../lab7_bsp/\libucosii_bsp.a(et_arp.o)
                0x0084d4c0                arpcache
                0x0084d4c4                arpReqsIn
                0x0084d4c8                arpReqsOut
                0x0084d4cc                arpRepsIn
                0x0084d4d0                arpRepsOut
 .sbss          0x0084d4d8        0x4 ../lab7_bsp/\libucosii_bsp.a(ip.o)
                0x0084d4d8                rt_mib
 .sbss          0x0084d4dc        0xc ../lab7_bsp/\libucosii_bsp.a(ip_reasm.o)
                0x0084d4dc                ipr_curr_mem
                0x0084d4e0                h_ireq
                0x0084d4e4                ire_cticks
 .sbss          0x0084d4e8       0x11 ../lab7_bsp/\libucosii_bsp.a(ipport.o)
                0x0084d4e8                port_prep
                0x0084d4ec                net_system_exit
                0x0084d4f0                so_evtmap_create
                0x0084d4f4                so_evtmap_delete
                0x0084d4f8                so_evtmap
 *fill*         0x0084d4f9        0x3 00
 .sbss          0x0084d4fc        0x4 ../lab7_bsp/\libucosii_bsp.a(ipraw.o)
                0x0084d4fc                ipraw_eps
 .sbss          0x0084d500        0x4 ../lab7_bsp/\libucosii_bsp.a(iproute.o)
                0x0084d500                cachedRoute
 .sbss          0x0084d504        0x2 ../lab7_bsp/\libucosii_bsp.a(udp.o)
 *fill*         0x0084d506        0x2 00
 .sbss          0x0084d508        0x8 ../lab7_bsp/\libucosii_bsp.a(in_pcb.o)
                0x0084d508                inpcb_cachehits
                0x0084d50c                inpcb_cachemiss
 .sbss          0x0084d510       0x20 ../lab7_bsp/\libucosii_bsp.a(vfsfiles.o)
                0x0084d510                vfsystems
                0x0084d514                vfiles
                0x0084d518                vfsfiles
                0x0084d51c                vfopen_error
                0x0084d520                vfs_dir_stale
                0x0084d524                vfs_open_files
                0x0084d528                vfs_total_rw_space
                0x0084d52c                vfs_total_dyna_files
 .sbss          0x0084d530        0x4 ../lab7_bsp/\libucosii_bsp.a(icmp.o)
                0x0084d530                icmpdu_hook
 *(.sbss2 .sbss2.* .gnu.linkonce.sb2.*)
 *(.scommon)
                0x0084d534                PROVIDE (__sbss_end, ABSOLUTE (.))
                0x0084d534                PROVIDE (___sbss_end, ABSOLUTE (.))
 *(.dynbss)
 *(.bss .bss.* .gnu.linkonce.b.*)
 .bss           0x0084d534        0x0 ../lab7_bsp//obj/HAL/src/crt0.o
 .bss           0x0084d534        0x0 obj/default/LCD.o
 .bss           0x0084d534        0x0 obj/default/SSS_DE2_115.o
 .bss           0x0084d534        0x0 obj/default/alt_error_handler.o
 .bss           0x0084d534        0x0 obj/default/dm9000a.o
 .bss           0x0084d534        0x0 obj/default/iniche_init.o
 .bss           0x0084d534        0x0 obj/default/led.o
 .bss           0x0084d534        0x0 obj/default/network_utilities.o
 .bss           0x0084d534      0x5f0 obj/default/simple_socket_server.o
 .bss           0x0084db24        0x0 obj/default/tse_my_system.o
 .bss           0x0084db24        0x0 d:/altera/13.0sp1/nios2eds/bin/gnu/h-i686-mingw32/bin/../lib/gcc/nios2-elf/4.1.2\libgcc.a(_fixunsdfsi.o)
 .bss           0x0084db24        0x0 d:/altera/13.0sp1/nios2eds/bin/gnu/h-i686-mingw32/bin/../lib/gcc/nios2-elf/4.1.2\libgcc.a(_addsub_df.o)
 .bss           0x0084db24        0x0 d:/altera/13.0sp1/nios2eds/bin/gnu/h-i686-mingw32/bin/../lib/gcc/nios2-elf/4.1.2\libgcc.a(_mul_df.o)
 .bss           0x0084db24        0x0 d:/altera/13.0sp1/nios2eds/bin/gnu/h-i686-mingw32/bin/../lib/gcc/nios2-elf/4.1.2\libgcc.a(_ge_df.o)
 .bss           0x0084db24        0x0 d:/altera/13.0sp1/nios2eds/bin/gnu/h-i686-mingw32/bin/../lib/gcc/nios2-elf/4.1.2\libgcc.a(_df_to_si.o)
 .bss           0x0084db24        0x0 d:/altera/13.0sp1/nios2eds/bin/gnu/h-i686-mingw32/bin/../lib/gcc/nios2-elf/4.1.2\libgcc.a(_thenan_df.o)
 .bss           0x0084db24        0x0 d:/altera/13.0sp1/nios2eds/bin/gnu/h-i686-mingw32/bin/../lib/gcc/nios2-elf/4.1.2\libgcc.a(_usi_to_df.o)
 .bss           0x0084db24        0x0 d:/altera/13.0sp1/nios2eds/bin/gnu/h-i686-mingw32/bin/../lib/gcc/nios2-elf/4.1.2\libgcc.a(_muldi3.o)
 .bss           0x0084db24        0x0 d:/altera/13.0sp1/nios2eds/bin/gnu/h-i686-mingw32/bin/../lib/gcc/nios2-elf/4.1.2\libgcc.a(_clzsi2.o)
 .bss           0x0084db24        0x0 d:/altera/13.0sp1/nios2eds/bin/gnu/h-i686-mingw32/bin/../lib/gcc/nios2-elf/4.1.2\libgcc.a(_pack_df.o)
 .bss           0x0084db24        0x0 d:/altera/13.0sp1/nios2eds/bin/gnu/h-i686-mingw32/bin/../lib/gcc/nios2-elf/4.1.2\libgcc.a(_unpack_df.o)
 .bss           0x0084db24        0x0 d:/altera/13.0sp1/nios2eds/bin/gnu/h-i686-mingw32/bin/../lib/gcc/nios2-elf/4.1.2\libgcc.a(_fpcmp_parts_df.o)
 .bss           0x0084db24        0x0 d:/altera/13.0sp1/nios2eds/bin/gnu/h-i686-mingw32/bin/../lib/gcc/nios2-elf/4.1.2\libgcc.a(_clz.o)
 .bss           0x0084db24        0x0 d:/altera/13.0sp1/nios2eds/bin/gnu/h-i686-mingw32/bin/../lib/gcc/nios2-elf/4.1.2/../../../../nios2-elf/lib\libc.a(lib_a-atoi.o)
 .bss           0x0084db24        0x0 d:/altera/13.0sp1/nios2eds/bin/gnu/h-i686-mingw32/bin/../lib/gcc/nios2-elf/4.1.2/../../../../nios2-elf/lib\libc.a(lib_a-ctype_.o)
 .bss           0x0084db24        0x0 d:/altera/13.0sp1/nios2eds/bin/gnu/h-i686-mingw32/bin/../lib/gcc/nios2-elf/4.1.2/../../../../nios2-elf/lib\libc.a(lib_a-errno.o)
 .bss           0x0084db24        0x0 d:/altera/13.0sp1/nios2eds/bin/gnu/h-i686-mingw32/bin/../lib/gcc/nios2-elf/4.1.2/../../../../nios2-elf/lib\libc.a(lib_a-exit.o)
 .bss           0x0084db24        0x0 d:/altera/13.0sp1/nios2eds/bin/gnu/h-i686-mingw32/bin/../lib/gcc/nios2-elf/4.1.2/../../../../nios2-elf/lib\libc.a(lib_a-fprintf.o)
 .bss           0x0084db24        0x0 d:/altera/13.0sp1/nios2eds/bin/gnu/h-i686-mingw32/bin/../lib/gcc/nios2-elf/4.1.2/../../../../nios2-elf/lib\libc.a(lib_a-fwrite.o)
 .bss           0x0084db24        0x0 d:/altera/13.0sp1/nios2eds/bin/gnu/h-i686-mingw32/bin/../lib/gcc/nios2-elf/4.1.2/../../../../nios2-elf/lib\libc.a(lib_a-getc.o)
 .bss           0x0084db24        0x0 d:/altera/13.0sp1/nios2eds/bin/gnu/h-i686-mingw32/bin/../lib/gcc/nios2-elf/4.1.2/../../../../nios2-elf/lib\libc.a(lib_a-impure.o)
 .bss           0x0084db24        0x0 d:/altera/13.0sp1/nios2eds/bin/gnu/h-i686-mingw32/bin/../lib/gcc/nios2-elf/4.1.2/../../../../nios2-elf/lib\libc.a(lib_a-memcpy.o)
 .bss           0x0084db24        0x0 d:/altera/13.0sp1/nios2eds/bin/gnu/h-i686-mingw32/bin/../lib/gcc/nios2-elf/4.1.2/../../../../nios2-elf/lib\libc.a(lib_a-memmove.o)
 .bss           0x0084db24        0x0 d:/altera/13.0sp1/nios2eds/bin/gnu/h-i686-mingw32/bin/../lib/gcc/nios2-elf/4.1.2/../../../../nios2-elf/lib\libc.a(lib_a-memset.o)
 .bss           0x0084db24        0x0 d:/altera/13.0sp1/nios2eds/bin/gnu/h-i686-mingw32/bin/../lib/gcc/nios2-elf/4.1.2/../../../../nios2-elf/lib\libc.a(lib_a-perror.o)
 .bss           0x0084db24        0x0 d:/altera/13.0sp1/nios2eds/bin/gnu/h-i686-mingw32/bin/../lib/gcc/nios2-elf/4.1.2/../../../../nios2-elf/lib\libc.a(lib_a-printf.o)
 .bss           0x0084db24        0x0 d:/altera/13.0sp1/nios2eds/bin/gnu/h-i686-mingw32/bin/../lib/gcc/nios2-elf/4.1.2/../../../../nios2-elf/lib\libc.a(lib_a-putc.o)
 .bss           0x0084db24        0x0 d:/altera/13.0sp1/nios2eds/bin/gnu/h-i686-mingw32/bin/../lib/gcc/nios2-elf/4.1.2/../../../../nios2-elf/lib\libc.a(lib_a-putchar.o)
 .bss           0x0084db24        0x0 d:/altera/13.0sp1/nios2eds/bin/gnu/h-i686-mingw32/bin/../lib/gcc/nios2-elf/4.1.2/../../../../nios2-elf/lib\libc.a(lib_a-puts.o)
 .bss           0x0084db24        0x0 d:/altera/13.0sp1/nios2eds/bin/gnu/h-i686-mingw32/bin/../lib/gcc/nios2-elf/4.1.2/../../../../nios2-elf/lib\libc.a(lib_a-rget.o)
 .bss           0x0084db24        0x0 d:/altera/13.0sp1/nios2eds/bin/gnu/h-i686-mingw32/bin/../lib/gcc/nios2-elf/4.1.2/../../../../nios2-elf/lib\libc.a(lib_a-strchr.o)
 .bss           0x0084db24        0x0 d:/altera/13.0sp1/nios2eds/bin/gnu/h-i686-mingw32/bin/../lib/gcc/nios2-elf/4.1.2/../../../../nios2-elf/lib\libc.a(lib_a-strcmp.o)
 .bss           0x0084db24        0x0 d:/altera/13.0sp1/nios2eds/bin/gnu/h-i686-mingw32/bin/../lib/gcc/nios2-elf/4.1.2/../../../../nios2-elf/lib\libc.a(lib_a-strerror.o)
 .bss           0x0084db24        0x0 d:/altera/13.0sp1/nios2eds/bin/gnu/h-i686-mingw32/bin/../lib/gcc/nios2-elf/4.1.2/../../../../nios2-elf/lib\libc.a(lib_a-strlen.o)
 .bss           0x0084db24        0x0 d:/altera/13.0sp1/nios2eds/bin/gnu/h-i686-mingw32/bin/../lib/gcc/nios2-elf/4.1.2/../../../../nios2-elf/lib\libc.a(lib_a-strtol.o)
 .bss           0x0084db24        0x0 d:/altera/13.0sp1/nios2eds/bin/gnu/h-i686-mingw32/bin/../lib/gcc/nios2-elf/4.1.2/../../../../nios2-elf/lib\libc.a(lib_a-u_strerr.o)
 .bss           0x0084db24        0x0 d:/altera/13.0sp1/nios2eds/bin/gnu/h-i686-mingw32/bin/../lib/gcc/nios2-elf/4.1.2/../../../../nios2-elf/lib\libc.a(lib_a-vfprintf.o)
 .bss           0x0084db24        0x0 d:/altera/13.0sp1/nios2eds/bin/gnu/h-i686-mingw32/bin/../lib/gcc/nios2-elf/4.1.2/../../../../nios2-elf/lib\libc.a(lib_a-wbuf.o)
 .bss           0x0084db24        0x0 d:/altera/13.0sp1/nios2eds/bin/gnu/h-i686-mingw32/bin/../lib/gcc/nios2-elf/4.1.2/../../../../nios2-elf/lib\libc.a(lib_a-wsetup.o)
 .bss           0x0084db24        0x0 d:/altera/13.0sp1/nios2eds/bin/gnu/h-i686-mingw32/bin/../lib/gcc/nios2-elf/4.1.2/../../../../nios2-elf/lib\libc.a(lib_a-__call_atexit.o)
 .bss           0x0084db24        0x0 d:/altera/13.0sp1/nios2eds/bin/gnu/h-i686-mingw32/bin/../lib/gcc/nios2-elf/4.1.2/../../../../nios2-elf/lib\libc.a(lib_a-dtoa.o)
 .bss           0x0084db24        0x0 d:/altera/13.0sp1/nios2eds/bin/gnu/h-i686-mingw32/bin/../lib/gcc/nios2-elf/4.1.2/../../../../nios2-elf/lib\libc.a(lib_a-fflush.o)
 .bss           0x0084db24        0x0 d:/altera/13.0sp1/nios2eds/bin/gnu/h-i686-mingw32/bin/../lib/gcc/nios2-elf/4.1.2/../../../../nios2-elf/lib\libc.a(lib_a-findfp.o)
 .bss           0x0084db24        0x0 d:/altera/13.0sp1/nios2eds/bin/gnu/h-i686-mingw32/bin/../lib/gcc/nios2-elf/4.1.2/../../../../nios2-elf/lib\libc.a(lib_a-fputc.o)
 .bss           0x0084db24        0x0 d:/altera/13.0sp1/nios2eds/bin/gnu/h-i686-mingw32/bin/../lib/gcc/nios2-elf/4.1.2/../../../../nios2-elf/lib\libc.a(lib_a-fputs.o)
 .bss           0x0084db24        0x0 d:/altera/13.0sp1/nios2eds/bin/gnu/h-i686-mingw32/bin/../lib/gcc/nios2-elf/4.1.2/../../../../nios2-elf/lib\libc.a(lib_a-freer.o)
 .bss           0x0084db24        0x0 d:/altera/13.0sp1/nios2eds/bin/gnu/h-i686-mingw32/bin/../lib/gcc/nios2-elf/4.1.2/../../../../nios2-elf/lib\libc.a(lib_a-fvwrite.o)
 .bss           0x0084db24        0x0 d:/altera/13.0sp1/nios2eds/bin/gnu/h-i686-mingw32/bin/../lib/gcc/nios2-elf/4.1.2/../../../../nios2-elf/lib\libc.a(lib_a-fwalk.o)
 .bss           0x0084db24        0x0 d:/altera/13.0sp1/nios2eds/bin/gnu/h-i686-mingw32/bin/../lib/gcc/nios2-elf/4.1.2/../../../../nios2-elf/lib\libc.a(lib_a-locale.o)
 .bss           0x0084db24        0x0 d:/altera/13.0sp1/nios2eds/bin/gnu/h-i686-mingw32/bin/../lib/gcc/nios2-elf/4.1.2/../../../../nios2-elf/lib\libc.a(lib_a-makebuf.o)
 .bss           0x0084db24       0x28 d:/altera/13.0sp1/nios2eds/bin/gnu/h-i686-mingw32/bin/../lib/gcc/nios2-elf/4.1.2/../../../../nios2-elf/lib\libc.a(lib_a-mallocr.o)
                0x0084db24                __malloc_current_mallinfo
 .bss           0x0084db4c        0x0 d:/altera/13.0sp1/nios2eds/bin/gnu/h-i686-mingw32/bin/../lib/gcc/nios2-elf/4.1.2/../../../../nios2-elf/lib\libc.a(lib_a-memchr.o)
 .bss           0x0084db4c        0x0 d:/altera/13.0sp1/nios2eds/bin/gnu/h-i686-mingw32/bin/../lib/gcc/nios2-elf/4.1.2/../../../../nios2-elf/lib\libc.a(lib_a-mprec.o)
 .bss           0x0084db4c        0x0 d:/altera/13.0sp1/nios2eds/bin/gnu/h-i686-mingw32/bin/../lib/gcc/nios2-elf/4.1.2/../../../../nios2-elf/lib\libc.a(lib_a-reallocr.o)
 .bss           0x0084db4c        0x0 d:/altera/13.0sp1/nios2eds/bin/gnu/h-i686-mingw32/bin/../lib/gcc/nios2-elf/4.1.2/../../../../nios2-elf/lib\libc.a(lib_a-refill.o)
 .bss           0x0084db4c        0x0 d:/altera/13.0sp1/nios2eds/bin/gnu/h-i686-mingw32/bin/../lib/gcc/nios2-elf/4.1.2/../../../../nios2-elf/lib\libc.a(lib_a-s_isinfd.o)
 .bss           0x0084db4c        0x0 d:/altera/13.0sp1/nios2eds/bin/gnu/h-i686-mingw32/bin/../lib/gcc/nios2-elf/4.1.2/../../../../nios2-elf/lib\libc.a(lib_a-s_isnand.o)
 .bss           0x0084db4c        0x0 d:/altera/13.0sp1/nios2eds/bin/gnu/h-i686-mingw32/bin/../lib/gcc/nios2-elf/4.1.2/../../../../nios2-elf/lib\libc.a(lib_a-sbrkr.o)
 .bss           0x0084db4c        0x0 d:/altera/13.0sp1/nios2eds/bin/gnu/h-i686-mingw32/bin/../lib/gcc/nios2-elf/4.1.2/../../../../nios2-elf/lib\libc.a(lib_a-stdio.o)
 .bss           0x0084db4c        0x0 d:/altera/13.0sp1/nios2eds/bin/gnu/h-i686-mingw32/bin/../lib/gcc/nios2-elf/4.1.2/../../../../nios2-elf/lib\libc.a(lib_a-writer.o)
 .bss           0x0084db4c        0x0 d:/altera/13.0sp1/nios2eds/bin/gnu/h-i686-mingw32/bin/../lib/gcc/nios2-elf/4.1.2/../../../../nios2-elf/lib\libc.a(lib_a-callocr.o)
 .bss           0x0084db4c        0x0 d:/altera/13.0sp1/nios2eds/bin/gnu/h-i686-mingw32/bin/../lib/gcc/nios2-elf/4.1.2/../../../../nios2-elf/lib\libc.a(lib_a-closer.o)
 .bss           0x0084db4c        0x0 d:/altera/13.0sp1/nios2eds/bin/gnu/h-i686-mingw32/bin/../lib/gcc/nios2-elf/4.1.2/../../../../nios2-elf/lib\libc.a(lib_a-fclose.o)
 .bss           0x0084db4c        0x0 d:/altera/13.0sp1/nios2eds/bin/gnu/h-i686-mingw32/bin/../lib/gcc/nios2-elf/4.1.2/../../../../nios2-elf/lib\libc.a(lib_a-fstatr.o)
 .bss           0x0084db4c        0x0 d:/altera/13.0sp1/nios2eds/bin/gnu/h-i686-mingw32/bin/../lib/gcc/nios2-elf/4.1.2/../../../../nios2-elf/lib\libc.a(lib_a-int_errno.o)
 .bss           0x0084db4c        0x0 d:/altera/13.0sp1/nios2eds/bin/gnu/h-i686-mingw32/bin/../lib/gcc/nios2-elf/4.1.2/../../../../nios2-elf/lib\libc.a(lib_a-isattyr.o)
 .bss           0x0084db4c        0x0 d:/altera/13.0sp1/nios2eds/bin/gnu/h-i686-mingw32/bin/../lib/gcc/nios2-elf/4.1.2/../../../../nios2-elf/lib\libc.a(lib_a-lseekr.o)
 .bss           0x0084db4c        0x0 d:/altera/13.0sp1/nios2eds/bin/gnu/h-i686-mingw32/bin/../lib/gcc/nios2-elf/4.1.2/../../../../nios2-elf/lib\libc.a(lib_a-readr.o)
 .bss           0x0084db4c        0x0 d:/altera/13.0sp1/nios2eds/bin/gnu/h-i686-mingw32/bin/../lib/gcc/nios2-elf/4.1.2\libgcc.a(_udivdi3.o)
 .bss           0x0084db4c        0x0 d:/altera/13.0sp1/nios2eds/bin/gnu/h-i686-mingw32/bin/../lib/gcc/nios2-elf/4.1.2\libgcc.a(_umoddi3.o)
 .bss           0x0084db4c        0x0 d:/altera/13.0sp1/nios2eds/bin/gnu/h-i686-mingw32/bin/../lib/gcc/nios2-elf/4.1.2\libgcc.a(_div_df.o)
 .bss           0x0084db4c        0x0 d:/altera/13.0sp1/nios2eds/bin/gnu/h-i686-mingw32/bin/../lib/gcc/nios2-elf/4.1.2\libgcc.a(_eq_df.o)
 .bss           0x0084db4c        0x0 d:/altera/13.0sp1/nios2eds/bin/gnu/h-i686-mingw32/bin/../lib/gcc/nios2-elf/4.1.2\libgcc.a(_ne_df.o)
 .bss           0x0084db4c        0x0 d:/altera/13.0sp1/nios2eds/bin/gnu/h-i686-mingw32/bin/../lib/gcc/nios2-elf/4.1.2\libgcc.a(_gt_df.o)
 .bss           0x0084db4c        0x0 d:/altera/13.0sp1/nios2eds/bin/gnu/h-i686-mingw32/bin/../lib/gcc/nios2-elf/4.1.2\libgcc.a(_lt_df.o)
 .bss           0x0084db4c        0x0 d:/altera/13.0sp1/nios2eds/bin/gnu/h-i686-mingw32/bin/../lib/gcc/nios2-elf/4.1.2\libgcc.a(_si_to_df.o)
 .bss           0x0084db4c        0x0 d:/altera/13.0sp1/nios2eds/bin/gnu/h-i686-mingw32/bin/../lib/gcc/nios2-elf/4.1.2\libgcc.a(lib2-divmod.o)
 .bss           0x0084db4c        0x0 ../lab7_bsp/\libucosii_bsp.a(alt_exit.o)
 .bss           0x0084db4c        0x0 ../lab7_bsp/\libucosii_bsp.a(alt_flash_dev.o)
 .bss           0x0084db4c        0x0 ../lab7_bsp/\libucosii_bsp.a(alt_fstat.o)
 .bss           0x0084db4c        0x0 ../lab7_bsp/\libucosii_bsp.a(alt_irq_register.o)
 .bss           0x0084db4c        0x0 ../lab7_bsp/\libucosii_bsp.a(alt_irq_vars.o)
 .bss           0x0084db4c        0x0 ../lab7_bsp/\libucosii_bsp.a(alt_isatty.o)
 .bss           0x0084db4c        0x0 ../lab7_bsp/\libucosii_bsp.a(alt_lseek.o)
 .bss           0x0084db4c        0x0 ../lab7_bsp/\libucosii_bsp.a(alt_main.o)
 .bss           0x0084db4c        0x0 ../lab7_bsp/\libucosii_bsp.a(alt_sbrk.o)
 .bss           0x0084db4c        0x0 ../lab7_bsp/\libucosii_bsp.a(alt_usleep.o)
 .bss           0x0084db4c        0x0 ../lab7_bsp/\libucosii_bsp.a(alt_env_lock.o)
 .bss           0x0084db4c        0x0 ../lab7_bsp/\libucosii_bsp.a(alt_malloc_lock.o)
 .bss           0x0084db4c        0x0 ../lab7_bsp/\libucosii_bsp.a(os_core.o)
 .bss           0x0084db4c        0x0 ../lab7_bsp/\libucosii_bsp.a(os_dbg.o)
 .bss           0x0084db4c        0x0 ../lab7_bsp/\libucosii_bsp.a(os_flag.o)
 .bss           0x0084db4c        0x0 ../lab7_bsp/\libucosii_bsp.a(os_mem.o)
 .bss           0x0084db4c        0x0 ../lab7_bsp/\libucosii_bsp.a(os_q.o)
 .bss           0x0084db4c        0x0 ../lab7_bsp/\libucosii_bsp.a(os_sem.o)
 .bss           0x0084db4c        0x0 ../lab7_bsp/\libucosii_bsp.a(os_task.o)
 .bss           0x0084db4c        0x0 ../lab7_bsp/\libucosii_bsp.a(os_time.o)
 .bss           0x0084db4c        0x0 ../lab7_bsp/\libucosii_bsp.a(alt_sys_init.o)
 .bss           0x0084db4c        0x0 ../lab7_bsp/\libucosii_bsp.a(altera_avalon_cfi_flash.o)
 .bss           0x0084db4c        0x0 ../lab7_bsp/\libucosii_bsp.a(altera_avalon_cfi_flash_table.o)
 .bss           0x0084db4c        0x0 ../lab7_bsp/\libucosii_bsp.a(altera_avalon_epcs_flash_controller.o)
 .bss           0x0084db4c        0x0 ../lab7_bsp/\libucosii_bsp.a(altera_avalon_jtag_uart_fd.o)
 .bss           0x0084db4c        0x0 ../lab7_bsp/\libucosii_bsp.a(altera_avalon_jtag_uart_init.o)
 .bss           0x0084db4c        0x0 ../lab7_bsp/\libucosii_bsp.a(altera_avalon_jtag_uart_ioctl.o)
 .bss           0x0084db4c        0x0 ../lab7_bsp/\libucosii_bsp.a(altera_avalon_jtag_uart_read.o)
 .bss           0x0084db4c        0x0 ../lab7_bsp/\libucosii_bsp.a(altera_avalon_jtag_uart_write.o)
 .bss           0x0084db4c        0x0 ../lab7_bsp/\libucosii_bsp.a(altera_avalon_lcd_16207.o)
 .bss           0x0084db4c        0x0 ../lab7_bsp/\libucosii_bsp.a(altera_avalon_lcd_16207_fd.o)
 .bss           0x0084db4c        0x0 ../lab7_bsp/\libucosii_bsp.a(altera_avalon_timer_sc.o)
 .bss           0x0084db4c        0x0 ../lab7_bsp/\libucosii_bsp.a(altera_avalon_uart_fd.o)
 .bss           0x0084db4c        0x0 ../lab7_bsp/\libucosii_bsp.a(altera_avalon_uart_init.o)
 .bss           0x0084db4c        0x0 ../lab7_bsp/\libucosii_bsp.a(altera_avalon_uart_read.o)
 .bss           0x0084db4c        0x0 ../lab7_bsp/\libucosii_bsp.a(altera_avalon_uart_write.o)
 .bss           0x0084db4c        0x0 ../lab7_bsp/\libucosii_bsp.a(epcs_commands.o)
 .bss           0x0084db4c        0x0 ../lab7_bsp/\libucosii_bsp.a(alt_iniche_close.o)
 .bss           0x0084db4c        0x0 ../lab7_bsp/\libucosii_bsp.a(alt_iniche_dev.o)
 .bss           0x0084db4c        0x0 ../lab7_bsp/\libucosii_bsp.a(alt_iniche_read.o)
 .bss           0x0084db4c        0x0 ../lab7_bsp/\libucosii_bsp.a(alt_iniche_write.o)
 .bss           0x0084db4c        0x0 ../lab7_bsp/\libucosii_bsp.a(ipnet.o)
 .bss           0x0084db4c       0x3c ../lab7_bsp/\libucosii_bsp.a(ipstart.o)
 .bss           0x0084db88        0x0 ../lab7_bsp/\libucosii_bsp.a(igmp_cmn.o)
 .bss           0x0084db88        0x0 ../lab7_bsp/\libucosii_bsp.a(bsdsock.o)
 .bss           0x0084db88        0x0 ../lab7_bsp/\libucosii_bsp.a(cksum.o)
 .bss           0x0084db88       0x18 ../lab7_bsp/\libucosii_bsp.a(in_utils.o)
 .bss           0x0084dba0        0x0 ../lab7_bsp/\libucosii_bsp.a(netmain.o)
 .bss           0x0084dba0       0x1e ../lab7_bsp/\libucosii_bsp.a(parseip.o)
 .bss           0x0084dbbe        0x0 ../lab7_bsp/\libucosii_bsp.a(tk_crnos.o)
 .bss           0x0084dbbe        0x0 ../lab7_bsp/\libucosii_bsp.a(dhcpclnt.o)
 .bss           0x0084dbbe        0x0 ../lab7_bsp/\libucosii_bsp.a(dhcputil.o)
 .bss           0x0084dbbe        0x0 ../lab7_bsp/\libucosii_bsp.a(pktalloc.o)
 .bss           0x0084dbbe        0x0 ../lab7_bsp/\libucosii_bsp.a(q.o)
 .bss           0x0084dbbe        0x0 ../lab7_bsp/\libucosii_bsp.a(udp_open.o)
 .bss           0x0084dbbe        0x0 ../lab7_bsp/\libucosii_bsp.a(asm_cksum.o)
 .bss           0x0084dbbe        0x0 ../lab7_bsp/\libucosii_bsp.a(brdutils.o)
 .bss           0x0084dbbe        0x0 ../lab7_bsp/\libucosii_bsp.a(osportco.o)
 .bss           0x0084dbbe        0x0 ../lab7_bsp/\libucosii_bsp.a(targnios.o)
 .bss           0x0084dbbe        0x0 ../lab7_bsp/\libucosii_bsp.a(nptcp.o)
 .bss           0x0084dbbe        0x0 ../lab7_bsp/\libucosii_bsp.a(rawsock.o)
 .bss           0x0084dbbe        0x0 ../lab7_bsp/\libucosii_bsp.a(sockcall.o)
 .bss           0x0084dbbe        0x0 ../lab7_bsp/\libucosii_bsp.a(socket.o)
 .bss           0x0084dbbe        0x0 ../lab7_bsp/\libucosii_bsp.a(socket2.o)
 .bss           0x0084dbbe        0x0 ../lab7_bsp/\libucosii_bsp.a(soselect.o)
 .bss           0x0084dbbe        0x0 ../lab7_bsp/\libucosii_bsp.a(tcp_in.o)
 .bss           0x0084dbbe        0x0 ../lab7_bsp/\libucosii_bsp.a(tcp_out.o)
 .bss           0x0084dbbe        0x0 ../lab7_bsp/\libucosii_bsp.a(tcp_subr.o)
 .bss           0x0084dbbe        0x0 ../lab7_bsp/\libucosii_bsp.a(tcp_timr.o)
 .bss           0x0084dbbe        0x0 ../lab7_bsp/\libucosii_bsp.a(tcp_usr.o)
 .bss           0x0084dbbe        0x0 ../lab7_bsp/\libucosii_bsp.a(tcpport.o)
 .bss           0x0084dbbe        0x0 ../lab7_bsp/\libucosii_bsp.a(udpsock.o)
 .bss           0x0084dbbe        0x0 ../lab7_bsp/\libucosii_bsp.a(alt_alarm_start.o)
 .bss           0x0084dbbe        0x0 ../lab7_bsp/\libucosii_bsp.a(alt_busy_sleep.o)
 .bss           0x0084dbbe        0x0 ../lab7_bsp/\libucosii_bsp.a(alt_close.o)
 .bss           0x0084dbbe        0x0 ../lab7_bsp/\libucosii_bsp.a(alt_dcache_flush.o)
 .bss           0x0084dbbe        0x0 ../lab7_bsp/\libucosii_bsp.a(alt_dev.o)
 .bss           0x0084dbbe        0x0 ../lab7_bsp/\libucosii_bsp.a(alt_dev_llist_insert.o)
 .bss           0x0084dbbe        0x0 ../lab7_bsp/\libucosii_bsp.a(alt_do_ctors.o)
 .bss           0x0084dbbe        0x0 ../lab7_bsp/\libucosii_bsp.a(alt_do_dtors.o)
 .bss           0x0084dbbe        0x0 ../lab7_bsp/\libucosii_bsp.a(alt_errno.o)
 .bss           0x0084dbbe        0x0 ../lab7_bsp/\libucosii_bsp.a(alt_find_dev.o)
 .bss           0x0084dbbe        0x0 ../lab7_bsp/\libucosii_bsp.a(alt_iic.o)
 .bss           0x0084dbbe        0x0 ../lab7_bsp/\libucosii_bsp.a(alt_iic_isr_register.o)
 .bss           0x0084dbbe        0x0 ../lab7_bsp/\libucosii_bsp.a(alt_io_redirect.o)
 .bss           0x0084dbbe        0x0 ../lab7_bsp/\libucosii_bsp.a(alt_irq_entry.o)
 .bss           0x0084dbbe        0x0 ../lab7_bsp/\libucosii_bsp.a(alt_irq_handler.o)
 .bss           0x0084dbbe        0x0 ../lab7_bsp/\libucosii_bsp.a(alt_open.o)
 .bss           0x0084dbbe        0x0 ../lab7_bsp/\libucosii_bsp.a(alt_read.o)
 .bss           0x0084dbbe        0x0 ../lab7_bsp/\libucosii_bsp.a(alt_release_fd.o)
 .bss           0x0084dbbe        0x0 ../lab7_bsp/\libucosii_bsp.a(alt_remap_cached.o)
 .bss           0x0084dbbe        0x0 ../lab7_bsp/\libucosii_bsp.a(alt_remap_uncached.o)
 .bss           0x0084dbbe        0x0 ../lab7_bsp/\libucosii_bsp.a(alt_tick.o)
 .bss           0x0084dbbe        0x0 ../lab7_bsp/\libucosii_bsp.a(alt_write.o)
 .bss           0x0084dbbe        0x0 ../lab7_bsp/\libucosii_bsp.a(altera_nios2_qsys_irq.o)
 .bss           0x0084dbbe        0x0 ../lab7_bsp/\libucosii_bsp.a(os_cpu_a.o)
 .bss           0x0084dbbe        0x0 ../lab7_bsp/\libucosii_bsp.a(os_cpu_c.o)
 .bss           0x0084dbbe        0x0 ../lab7_bsp/\libucosii_bsp.a(altera_avalon_cfi_flash_amd.o)
 .bss           0x0084dbbe        0x0 ../lab7_bsp/\libucosii_bsp.a(altera_avalon_cfi_flash_intel.o)
 .bss           0x0084dbbe        0x0 ../lab7_bsp/\libucosii_bsp.a(altera_avalon_spi.o)
 .bss           0x0084dbbe        0x0 ../lab7_bsp/\libucosii_bsp.a(allports.o)
 .bss           0x0084dbbe        0x0 ../lab7_bsp/\libucosii_bsp.a(timeouts.o)
 .bss           0x0084dbbe        0x0 ../lab7_bsp/\libucosii_bsp.a(tk_misc.o)
 .bss           0x0084dbbe        0x0 ../lab7_bsp/\libucosii_bsp.a(alt_iniche_fcntl.o)
 .bss           0x0084dbbe        0x0 ../lab7_bsp/\libucosii_bsp.a(et_arp.o)
 .bss           0x0084dbbe        0x0 ../lab7_bsp/\libucosii_bsp.a(iface.o)
 .bss           0x0084dbbe        0x0 ../lab7_bsp/\libucosii_bsp.a(ip.o)
 .bss           0x0084dbbe        0x0 ../lab7_bsp/\libucosii_bsp.a(ip_reasm.o)
 .bss           0x0084dbbe        0x0 ../lab7_bsp/\libucosii_bsp.a(ipdemux.o)
 .bss           0x0084dbbe        0x0 ../lab7_bsp/\libucosii_bsp.a(ipmc.o)
 .bss           0x0084dbbe        0x0 ../lab7_bsp/\libucosii_bsp.a(ipport.o)
 .bss           0x0084dbbe        0x0 ../lab7_bsp/\libucosii_bsp.a(ipraw.o)
 .bss           0x0084dbbe        0x0 ../lab7_bsp/\libucosii_bsp.a(iproute.o)
 .bss           0x0084dbbe        0x0 ../lab7_bsp/\libucosii_bsp.a(udp.o)
 .bss           0x0084dbbe        0x0 ../lab7_bsp/\libucosii_bsp.a(igmp.o)
 .bss           0x0084dbbe        0x0 ../lab7_bsp/\libucosii_bsp.a(igmp2.o)
 .bss           0x0084dbbe        0x0 ../lab7_bsp/\libucosii_bsp.a(ipopt.o)
 .bss           0x0084dbbe        0x0 ../lab7_bsp/\libucosii_bsp.a(u_mctest.o)
 .bss           0x0084dbbe        0x0 ../lab7_bsp/\libucosii_bsp.a(dhcsetup.o)
 .bss           0x0084dbbe        0x0 ../lab7_bsp/\libucosii_bsp.a(memdev.o)
 .bss           0x0084dbbe        0x0 ../lab7_bsp/\libucosii_bsp.a(tcpcksum.o)
 .bss           0x0084dbbe        0x0 ../lab7_bsp/\libucosii_bsp.a(in_pcb.o)
 .bss           0x0084dbbe        0x0 ../lab7_bsp/\libucosii_bsp.a(vfsfiles.o)
 .bss           0x0084dbbe        0x0 ../lab7_bsp/\libucosii_bsp.a(vfsport.o)
 .bss           0x0084dbbe        0x0 ../lab7_bsp/\libucosii_bsp.a(alt_exception_entry.o)
 .bss           0x0084dbbe        0x0 ../lab7_bsp/\libucosii_bsp.a(alt_fcntl.o)
 .bss           0x0084dbbe        0x0 ../lab7_bsp/\libucosii_bsp.a(alt_find_file.o)
 .bss           0x0084dbbe        0x0 ../lab7_bsp/\libucosii_bsp.a(alt_get_fd.o)
 .bss           0x0084dbbe        0x0 ../lab7_bsp/\libucosii_bsp.a(icmp.o)
 .bss           0x0084dbbe        0x0 d:/altera/13.0sp1/nios2eds/bin/gnu/h-i686-mingw32/bin/../lib/gcc/nios2-elf/4.1.2/../../../../nios2-elf/lib\libc.a(lib_a-atexit.o)
 .bss           0x0084dbbe        0x0 d:/altera/13.0sp1/nios2eds/bin/gnu/h-i686-mingw32/bin/../lib/gcc/nios2-elf/4.1.2/../../../../nios2-elf/lib\libc.a(lib_a-calloc.o)
 .bss           0x0084dbbe        0x0 d:/altera/13.0sp1/nios2eds/bin/gnu/h-i686-mingw32/bin/../lib/gcc/nios2-elf/4.1.2/../../../../nios2-elf/lib\libc.a(lib_a-malloc.o)
 .bss           0x0084dbbe        0x0 d:/altera/13.0sp1/nios2eds/bin/gnu/h-i686-mingw32/bin/../lib/gcc/nios2-elf/4.1.2/../../../../nios2-elf/lib\libc.a(lib_a-memcmp.o)
 .bss           0x0084dbbe        0x0 d:/altera/13.0sp1/nios2eds/bin/gnu/h-i686-mingw32/bin/../lib/gcc/nios2-elf/4.1.2/../../../../nios2-elf/lib\libc.a(lib_a-sprintf.o)
 .bss           0x0084dbbe        0x0 d:/altera/13.0sp1/nios2eds/bin/gnu/h-i686-mingw32/bin/../lib/gcc/nios2-elf/4.1.2/../../../../nios2-elf/lib\libc.a(lib_a-strcpy.o)
 .bss           0x0084dbbe        0x0 d:/altera/13.0sp1/nios2eds/bin/gnu/h-i686-mingw32/bin/../lib/gcc/nios2-elf/4.1.2/../../../../nios2-elf/lib\libc.a(lib_a-strncmp.o)
 .bss           0x0084dbbe        0x0 d:/altera/13.0sp1/nios2eds/bin/gnu/h-i686-mingw32/bin/../lib/gcc/nios2-elf/4.1.2/../../../../nios2-elf/lib\libc.a(lib_a-strncpy.o)
 .bss           0x0084dbbe        0x0 d:/altera/13.0sp1/nios2eds/bin/gnu/h-i686-mingw32/bin/../lib/gcc/nios2-elf/4.1.2/../../../../nios2-elf/lib\libc.a(lib_a-vprintf.o)
 .bss           0x0084dbbe        0x0 d:/altera/13.0sp1/nios2eds/bin/gnu/h-i686-mingw32/bin/../lib/gcc/nios2-elf/4.1.2/../../../../nios2-elf/lib\libc.a(lib_a-vsprintf.o)
 .bss           0x0084dbbe        0x0 d:/altera/13.0sp1/nios2eds/bin/gnu/h-i686-mingw32/bin/../lib/gcc/nios2-elf/4.1.2/../../../../nios2-elf/lib\libc.a(lib_a-__atexit.o)
 *(COMMON)
 *fill*         0x0084dbbe        0x2 00
 COMMON         0x0084dbc0       0x44 obj/default/dm9000a.o
                0x0084dbc0                g_dm9ka
 COMMON         0x0084dc04     0x2000 obj/default/iniche_init.o
                0x0084dc04                SSSInitialTaskStk
 COMMON         0x0084fc04     0x4078 obj/default/simple_socket_server.o
                0x0084fc04                LED7SegLightshowTaskStk
                0x00851c04                SSSLEDCommandQTbl
                0x00851c7c                LEDManagementTaskStk
 COMMON         0x00853c7c     0x3224 ../lab7_bsp/\libucosii_bsp.a(os_core.o)
                0x00853c7c                OSFlagTbl
                0x00853fec                OSMemTbl
                0x00854c1c                OSTaskStatStk
                0x0085541c                OSQTbl
                0x008555fc                OSTaskIdleStk
                0x00855dfc                OSEventTbl
                0x0085693c                OSTCBTbl
                0x00856e4c                OSTCBPrioTbl
 COMMON         0x00856ea0       0x14 ../lab7_bsp/\libucosii_bsp.a(ipnet.o)
                0x00856ea0                rcvdq
 COMMON         0x00856eb4      0x310 ../lab7_bsp/\libucosii_bsp.a(ipstart.o)
                0x00856eb4                netstatic
                0x008571b4                nets
 COMMON         0x008571c4       0x64 ../lab7_bsp/\libucosii_bsp.a(igmp_cmn.o)
                0x008571c4                igmpstats
 COMMON         0x00857228       0x24 ../lab7_bsp/\libucosii_bsp.a(in_utils.o)
                0x00857228                eth_prt_buf
                0x0085723a                ipreturn
 COMMON         0x0085724c       0xf0 ../lab7_bsp/\libucosii_bsp.a(dhcpclnt.o)
                0x0085724c                dhc_states
 COMMON         0x0085733c      0x128 ../lab7_bsp/\libucosii_bsp.a(pktalloc.o)
                0x0085733c                lilfreeq
                0x00857350                memestats
                0x00857360                pktlog
                0x00857450                bigfreeq
 COMMON         0x00857464      0x1ec ../lab7_bsp/\libucosii_bsp.a(osportco.o)
                0x00857464                global_tcb_ext
                0x00857560                global_TCPwakeup_set
 COMMON         0x00857650       0x58 ../lab7_bsp/\libucosii_bsp.a(targnios.o)
                0x00857650                resid_semaphore
                0x00857690                app_semaphore
 COMMON         0x008576a8       0x78 ../lab7_bsp/\libucosii_bsp.a(nptcp.o)
                0x008576a8                soq
                0x008576bc                tcpmib
                0x008576f8                mbufq
                0x0085770c                mfreeq
 COMMON         0x00857720       0x28 ../lab7_bsp/\libucosii_bsp.a(tcp_in.o)
                0x00857720                tcp_saveti
 COMMON         0x00857748      0x10c ../lab7_bsp/\libucosii_bsp.a(tcp_subr.o)
                0x00857748                tcb
                0x00857774                tcpstat
 COMMON         0x00857854      0x100 ../lab7_bsp/\libucosii_bsp.a(alt_irq_handler.o)
                0x00857854                alt_irq
 COMMON         0x00857954       0x64 ../lab7_bsp/\libucosii_bsp.a(timeouts.o)
                0x00857954                intimers
 COMMON         0x008579b8      0x100 ../lab7_bsp/\libucosii_bsp.a(et_arp.o)
                0x008579b8                arp_table
 COMMON         0x00857ab8       0x14 ../lab7_bsp/\libucosii_bsp.a(iface.o)
                0x00857ab8                netlist
 COMMON         0x00857acc       0x50 ../lab7_bsp/\libucosii_bsp.a(ip.o)
                0x00857acc                ip_mib
 COMMON         0x00857b1c       0x18 ../lab7_bsp/\libucosii_bsp.a(ip_reasm.o)
                0x00857b1c                ire_stats
 COMMON         0x00857b34       0x10 ../lab7_bsp/\libucosii_bsp.a(udp.o)
                0x00857b34                udp_mib
 COMMON         0x00857b44       0x68 ../lab7_bsp/\libucosii_bsp.a(icmp.o)
                0x00857b44                icmp_mib
 COMMON         0x00857bac      0x190 d:/altera/13.0sp1/nios2eds/bin/gnu/h-i686-mingw32/bin/../lib/gcc/nios2-elf/4.1.2/../../../../nios2-elf/lib\libc.a(lib_a-atexit.o)
                0x00857bac                _atexit0
                0x00857d3c                . = ALIGN (0x4)
                0x00857d3c                __bss_end = ABSOLUTE (.)

.sdram_0        0x00857d3c        0x0
                0x00857d3c                PROVIDE (_alt_partition_sdram_0_start, ABSOLUTE (.))
 *(.sdram_0. sdram_0.*)
                0x00857d3c                . = ALIGN (0x4)
                0x00857d3c                PROVIDE (_alt_partition_sdram_0_end, ABSOLUTE (.))
                0x00857d3c                _end = ABSOLUTE (.)
                0x00857d3c                end = ABSOLUTE (.)
                0x00857d3c                __alt_stack_base = ABSOLUTE (.)
                0x00857d3c                PROVIDE (_alt_partition_sdram_0_load_addr, LOADADDR (.sdram_0))

.cfi_flash_0    0x01400020        0x0
                0x01400020                PROVIDE (_alt_partition_cfi_flash_0_start, ABSOLUTE (.))
 *(.cfi_flash_0. cfi_flash_0.*)
                0x01400020                . = ALIGN (0x4)
                0x01400020                PROVIDE (_alt_partition_cfi_flash_0_end, ABSOLUTE (.))
                0x01400020                PROVIDE (_alt_partition_cfi_flash_0_load_addr, LOADADDR (.cfi_flash_0))

.sram_0         0x01a00000        0x0
                0x01a00000                PROVIDE (_alt_partition_sram_0_start, ABSOLUTE (.))
 *(.sram_0. sram_0.*)
                0x01a00000                . = ALIGN (0x4)
                0x01a00000                PROVIDE (_alt_partition_sram_0_end, ABSOLUTE (.))
                0x01a00000                PROVIDE (_alt_partition_sram_0_load_addr, LOADADDR (.sram_0))

.epcs_controller
                0x01a81800        0x0
                0x01a81800                PROVIDE (_alt_partition_epcs_controller_start, ABSOLUTE (.))
 *(.epcs_controller. epcs_controller.*)
                0x01a81800                . = ALIGN (0x4)
                0x01a81800                PROVIDE (_alt_partition_epcs_controller_end, ABSOLUTE (.))
                0x01a81800                PROVIDE (_alt_partition_epcs_controller_load_addr, LOADADDR (.epcs_controller))

.stab
 *(.stab)

.stabstr
 *(.stabstr)

.stab.excl
 *(.stab.excl)

.stab.exclstr
 *(.stab.exclstr)

.stab.index
 *(.stab.index)

.stab.indexstr
 *(.stab.indexstr)

.comment        0x00000000       0x26
 *(.comment)
 .comment       0x00000000       0x26 obj/default/LCD.o
                                 0x27 (size before relaxing)
 .comment       0x00000000       0x27 obj/default/SSS_DE2_115.o
 .comment       0x00000000       0x27 obj/default/alt_error_handler.o
 .comment       0x00000000       0x27 obj/default/dm9000a.o
 .comment       0x00000000       0x27 obj/default/iniche_init.o
 .comment       0x00000000       0x27 obj/default/led.o
 .comment       0x00000000       0x27 obj/default/network_utilities.o
 .comment       0x00000000       0x27 obj/default/simple_socket_server.o
 .comment       0x00000000       0x27 obj/default/tse_my_system.o
 .comment       0x00000000       0x27 d:/altera/13.0sp1/nios2eds/bin/gnu/h-i686-mingw32/bin/../lib/gcc/nios2-elf/4.1.2\libgcc.a(_fixunsdfsi.o)
 .comment       0x00000000       0x27 d:/altera/13.0sp1/nios2eds/bin/gnu/h-i686-mingw32/bin/../lib/gcc/nios2-elf/4.1.2\libgcc.a(_addsub_df.o)
 .comment       0x00000000       0x27 d:/altera/13.0sp1/nios2eds/bin/gnu/h-i686-mingw32/bin/../lib/gcc/nios2-elf/4.1.2\libgcc.a(_mul_df.o)
 .comment       0x00000000       0x27 d:/altera/13.0sp1/nios2eds/bin/gnu/h-i686-mingw32/bin/../lib/gcc/nios2-elf/4.1.2\libgcc.a(_ge_df.o)
 .comment       0x00000000       0x27 d:/altera/13.0sp1/nios2eds/bin/gnu/h-i686-mingw32/bin/../lib/gcc/nios2-elf/4.1.2\libgcc.a(_df_to_si.o)
 .comment       0x00000000       0x27 d:/altera/13.0sp1/nios2eds/bin/gnu/h-i686-mingw32/bin/../lib/gcc/nios2-elf/4.1.2\libgcc.a(_thenan_df.o)
 .comment       0x00000000       0x27 d:/altera/13.0sp1/nios2eds/bin/gnu/h-i686-mingw32/bin/../lib/gcc/nios2-elf/4.1.2\libgcc.a(_usi_to_df.o)
 .comment       0x00000000       0x27 d:/altera/13.0sp1/nios2eds/bin/gnu/h-i686-mingw32/bin/../lib/gcc/nios2-elf/4.1.2\libgcc.a(_muldi3.o)
 .comment       0x00000000       0x27 d:/altera/13.0sp1/nios2eds/bin/gnu/h-i686-mingw32/bin/../lib/gcc/nios2-elf/4.1.2\libgcc.a(_clzsi2.o)
 .comment       0x00000000       0x27 d:/altera/13.0sp1/nios2eds/bin/gnu/h-i686-mingw32/bin/../lib/gcc/nios2-elf/4.1.2\libgcc.a(_pack_df.o)
 .comment       0x00000000       0x27 d:/altera/13.0sp1/nios2eds/bin/gnu/h-i686-mingw32/bin/../lib/gcc/nios2-elf/4.1.2\libgcc.a(_unpack_df.o)
 .comment       0x00000000       0x27 d:/altera/13.0sp1/nios2eds/bin/gnu/h-i686-mingw32/bin/../lib/gcc/nios2-elf/4.1.2\libgcc.a(_fpcmp_parts_df.o)
 .comment       0x00000000       0x27 d:/altera/13.0sp1/nios2eds/bin/gnu/h-i686-mingw32/bin/../lib/gcc/nios2-elf/4.1.2\libgcc.a(_clz.o)
 .comment       0x00000000       0x27 d:/altera/13.0sp1/nios2eds/bin/gnu/h-i686-mingw32/bin/../lib/gcc/nios2-elf/4.1.2/../../../../nios2-elf/lib\libc.a(lib_a-atoi.o)
 .comment       0x00000000       0x27 d:/altera/13.0sp1/nios2eds/bin/gnu/h-i686-mingw32/bin/../lib/gcc/nios2-elf/4.1.2/../../../../nios2-elf/lib\libc.a(lib_a-ctype_.o)
 .comment       0x00000000       0x27 d:/altera/13.0sp1/nios2eds/bin/gnu/h-i686-mingw32/bin/../lib/gcc/nios2-elf/4.1.2/../../../../nios2-elf/lib\libc.a(lib_a-errno.o)
 .comment       0x00000000       0x27 d:/altera/13.0sp1/nios2eds/bin/gnu/h-i686-mingw32/bin/../lib/gcc/nios2-elf/4.1.2/../../../../nios2-elf/lib\libc.a(lib_a-exit.o)
 .comment       0x00000000       0x27 d:/altera/13.0sp1/nios2eds/bin/gnu/h-i686-mingw32/bin/../lib/gcc/nios2-elf/4.1.2/../../../../nios2-elf/lib\libc.a(lib_a-fprintf.o)
 .comment       0x00000000       0x27 d:/altera/13.0sp1/nios2eds/bin/gnu/h-i686-mingw32/bin/../lib/gcc/nios2-elf/4.1.2/../../../../nios2-elf/lib\libc.a(lib_a-fwrite.o)
 .comment       0x00000000       0x27 d:/altera/13.0sp1/nios2eds/bin/gnu/h-i686-mingw32/bin/../lib/gcc/nios2-elf/4.1.2/../../../../nios2-elf/lib\libc.a(lib_a-getc.o)
 .comment       0x00000000       0x27 d:/altera/13.0sp1/nios2eds/bin/gnu/h-i686-mingw32/bin/../lib/gcc/nios2-elf/4.1.2/../../../../nios2-elf/lib\libc.a(lib_a-impure.o)
 .comment       0x00000000       0x27 d:/altera/13.0sp1/nios2eds/bin/gnu/h-i686-mingw32/bin/../lib/gcc/nios2-elf/4.1.2/../../../../nios2-elf/lib\libc.a(lib_a-memcpy.o)
 .comment       0x00000000       0x27 d:/altera/13.0sp1/nios2eds/bin/gnu/h-i686-mingw32/bin/../lib/gcc/nios2-elf/4.1.2/../../../../nios2-elf/lib\libc.a(lib_a-memmove.o)
 .comment       0x00000000       0x27 d:/altera/13.0sp1/nios2eds/bin/gnu/h-i686-mingw32/bin/../lib/gcc/nios2-elf/4.1.2/../../../../nios2-elf/lib\libc.a(lib_a-memset.o)
 .comment       0x00000000       0x27 d:/altera/13.0sp1/nios2eds/bin/gnu/h-i686-mingw32/bin/../lib/gcc/nios2-elf/4.1.2/../../../../nios2-elf/lib\libc.a(lib_a-perror.o)
 .comment       0x00000000       0x27 d:/altera/13.0sp1/nios2eds/bin/gnu/h-i686-mingw32/bin/../lib/gcc/nios2-elf/4.1.2/../../../../nios2-elf/lib\libc.a(lib_a-printf.o)
 .comment       0x00000000       0x27 d:/altera/13.0sp1/nios2eds/bin/gnu/h-i686-mingw32/bin/../lib/gcc/nios2-elf/4.1.2/../../../../nios2-elf/lib\libc.a(lib_a-putc.o)
 .comment       0x00000000       0x27 d:/altera/13.0sp1/nios2eds/bin/gnu/h-i686-mingw32/bin/../lib/gcc/nios2-elf/4.1.2/../../../../nios2-elf/lib\libc.a(lib_a-putchar.o)
 .comment       0x00000000       0x27 d:/altera/13.0sp1/nios2eds/bin/gnu/h-i686-mingw32/bin/../lib/gcc/nios2-elf/4.1.2/../../../../nios2-elf/lib\libc.a(lib_a-puts.o)
 .comment       0x00000000       0x27 d:/altera/13.0sp1/nios2eds/bin/gnu/h-i686-mingw32/bin/../lib/gcc/nios2-elf/4.1.2/../../../../nios2-elf/lib\libc.a(lib_a-rget.o)
 .comment       0x00000000       0x27 d:/altera/13.0sp1/nios2eds/bin/gnu/h-i686-mingw32/bin/../lib/gcc/nios2-elf/4.1.2/../../../../nios2-elf/lib\libc.a(lib_a-strchr.o)
 .comment       0x00000000       0x27 d:/altera/13.0sp1/nios2eds/bin/gnu/h-i686-mingw32/bin/../lib/gcc/nios2-elf/4.1.2/../../../../nios2-elf/lib\libc.a(lib_a-strcmp.o)
 .comment       0x00000000       0x27 d:/altera/13.0sp1/nios2eds/bin/gnu/h-i686-mingw32/bin/../lib/gcc/nios2-elf/4.1.2/../../../../nios2-elf/lib\libc.a(lib_a-strerror.o)
 .comment       0x00000000       0x27 d:/altera/13.0sp1/nios2eds/bin/gnu/h-i686-mingw32/bin/../lib/gcc/nios2-elf/4.1.2/../../../../nios2-elf/lib\libc.a(lib_a-strlen.o)
 .comment       0x00000000       0x27 d:/altera/13.0sp1/nios2eds/bin/gnu/h-i686-mingw32/bin/../lib/gcc/nios2-elf/4.1.2/../../../../nios2-elf/lib\libc.a(lib_a-strtol.o)
 .comment       0x00000000       0x27 d:/altera/13.0sp1/nios2eds/bin/gnu/h-i686-mingw32/bin/../lib/gcc/nios2-elf/4.1.2/../../../../nios2-elf/lib\libc.a(lib_a-u_strerr.o)
 .comment       0x00000000       0x27 d:/altera/13.0sp1/nios2eds/bin/gnu/h-i686-mingw32/bin/../lib/gcc/nios2-elf/4.1.2/../../../../nios2-elf/lib\libc.a(lib_a-vfprintf.o)
 .comment       0x00000000       0x27 d:/altera/13.0sp1/nios2eds/bin/gnu/h-i686-mingw32/bin/../lib/gcc/nios2-elf/4.1.2/../../../../nios2-elf/lib\libc.a(lib_a-wbuf.o)
 .comment       0x00000000       0x27 d:/altera/13.0sp1/nios2eds/bin/gnu/h-i686-mingw32/bin/../lib/gcc/nios2-elf/4.1.2/../../../../nios2-elf/lib\libc.a(lib_a-wsetup.o)
 .comment       0x00000000       0x27 d:/altera/13.0sp1/nios2eds/bin/gnu/h-i686-mingw32/bin/../lib/gcc/nios2-elf/4.1.2/../../../../nios2-elf/lib\libc.a(lib_a-__call_atexit.o)
 .comment       0x00000000       0x27 d:/altera/13.0sp1/nios2eds/bin/gnu/h-i686-mingw32/bin/../lib/gcc/nios2-elf/4.1.2/../../../../nios2-elf/lib\libc.a(lib_a-dtoa.o)
 .comment       0x00000000       0x27 d:/altera/13.0sp1/nios2eds/bin/gnu/h-i686-mingw32/bin/../lib/gcc/nios2-elf/4.1.2/../../../../nios2-elf/lib\libc.a(lib_a-fflush.o)
 .comment       0x00000000       0x27 d:/altera/13.0sp1/nios2eds/bin/gnu/h-i686-mingw32/bin/../lib/gcc/nios2-elf/4.1.2/../../../../nios2-elf/lib\libc.a(lib_a-findfp.o)
 .comment       0x00000000       0x27 d:/altera/13.0sp1/nios2eds/bin/gnu/h-i686-mingw32/bin/../lib/gcc/nios2-elf/4.1.2/../../../../nios2-elf/lib\libc.a(lib_a-fputc.o)
 .comment       0x00000000       0x27 d:/altera/13.0sp1/nios2eds/bin/gnu/h-i686-mingw32/bin/../lib/gcc/nios2-elf/4.1.2/../../../../nios2-elf/lib\libc.a(lib_a-fputs.o)
 .comment       0x00000000       0x27 d:/altera/13.0sp1/nios2eds/bin/gnu/h-i686-mingw32/bin/../lib/gcc/nios2-elf/4.1.2/../../../../nios2-elf/lib\libc.a(lib_a-freer.o)
 .comment       0x00000000       0x27 d:/altera/13.0sp1/nios2eds/bin/gnu/h-i686-mingw32/bin/../lib/gcc/nios2-elf/4.1.2/../../../../nios2-elf/lib\libc.a(lib_a-fvwrite.o)
 .comment       0x00000000       0x27 d:/altera/13.0sp1/nios2eds/bin/gnu/h-i686-mingw32/bin/../lib/gcc/nios2-elf/4.1.2/../../../../nios2-elf/lib\libc.a(lib_a-fwalk.o)
 .comment       0x00000000       0x27 d:/altera/13.0sp1/nios2eds/bin/gnu/h-i686-mingw32/bin/../lib/gcc/nios2-elf/4.1.2/../../../../nios2-elf/lib\libc.a(lib_a-locale.o)
 .comment       0x00000000       0x27 d:/altera/13.0sp1/nios2eds/bin/gnu/h-i686-mingw32/bin/../lib/gcc/nios2-elf/4.1.2/../../../../nios2-elf/lib\libc.a(lib_a-makebuf.o)
 .comment       0x00000000       0x27 d:/altera/13.0sp1/nios2eds/bin/gnu/h-i686-mingw32/bin/../lib/gcc/nios2-elf/4.1.2/../../../../nios2-elf/lib\libc.a(lib_a-mallocr.o)
 .comment       0x00000000       0x27 d:/altera/13.0sp1/nios2eds/bin/gnu/h-i686-mingw32/bin/../lib/gcc/nios2-elf/4.1.2/../../../../nios2-elf/lib\libc.a(lib_a-memchr.o)
 .comment       0x00000000       0x27 d:/altera/13.0sp1/nios2eds/bin/gnu/h-i686-mingw32/bin/../lib/gcc/nios2-elf/4.1.2/../../../../nios2-elf/lib\libc.a(lib_a-mprec.o)
 .comment       0x00000000       0x27 d:/altera/13.0sp1/nios2eds/bin/gnu/h-i686-mingw32/bin/../lib/gcc/nios2-elf/4.1.2/../../../../nios2-elf/lib\libc.a(lib_a-reallocr.o)
 .comment       0x00000000       0x27 d:/altera/13.0sp1/nios2eds/bin/gnu/h-i686-mingw32/bin/../lib/gcc/nios2-elf/4.1.2/../../../../nios2-elf/lib\libc.a(lib_a-refill.o)
 .comment       0x00000000       0x27 d:/altera/13.0sp1/nios2eds/bin/gnu/h-i686-mingw32/bin/../lib/gcc/nios2-elf/4.1.2/../../../../nios2-elf/lib\libc.a(lib_a-s_isinfd.o)
 .comment       0x00000000       0x27 d:/altera/13.0sp1/nios2eds/bin/gnu/h-i686-mingw32/bin/../lib/gcc/nios2-elf/4.1.2/../../../../nios2-elf/lib\libc.a(lib_a-s_isnand.o)
 .comment       0x00000000       0x27 d:/altera/13.0sp1/nios2eds/bin/gnu/h-i686-mingw32/bin/../lib/gcc/nios2-elf/4.1.2/../../../../nios2-elf/lib\libc.a(lib_a-sbrkr.o)
 .comment       0x00000000       0x27 d:/altera/13.0sp1/nios2eds/bin/gnu/h-i686-mingw32/bin/../lib/gcc/nios2-elf/4.1.2/../../../../nios2-elf/lib\libc.a(lib_a-stdio.o)
 .comment       0x00000000       0x27 d:/altera/13.0sp1/nios2eds/bin/gnu/h-i686-mingw32/bin/../lib/gcc/nios2-elf/4.1.2/../../../../nios2-elf/lib\libc.a(lib_a-writer.o)
 .comment       0x00000000       0x27 d:/altera/13.0sp1/nios2eds/bin/gnu/h-i686-mingw32/bin/../lib/gcc/nios2-elf/4.1.2/../../../../nios2-elf/lib\libc.a(lib_a-callocr.o)
 .comment       0x00000000       0x27 d:/altera/13.0sp1/nios2eds/bin/gnu/h-i686-mingw32/bin/../lib/gcc/nios2-elf/4.1.2/../../../../nios2-elf/lib\libc.a(lib_a-closer.o)
 .comment       0x00000000       0x27 d:/altera/13.0sp1/nios2eds/bin/gnu/h-i686-mingw32/bin/../lib/gcc/nios2-elf/4.1.2/../../../../nios2-elf/lib\libc.a(lib_a-fclose.o)
 .comment       0x00000000       0x27 d:/altera/13.0sp1/nios2eds/bin/gnu/h-i686-mingw32/bin/../lib/gcc/nios2-elf/4.1.2/../../../../nios2-elf/lib\libc.a(lib_a-fstatr.o)
 .comment       0x00000000       0x27 d:/altera/13.0sp1/nios2eds/bin/gnu/h-i686-mingw32/bin/../lib/gcc/nios2-elf/4.1.2/../../../../nios2-elf/lib\libc.a(lib_a-int_errno.o)
 .comment       0x00000000       0x27 d:/altera/13.0sp1/nios2eds/bin/gnu/h-i686-mingw32/bin/../lib/gcc/nios2-elf/4.1.2/../../../../nios2-elf/lib\libc.a(lib_a-isattyr.o)
 .comment       0x00000000       0x27 d:/altera/13.0sp1/nios2eds/bin/gnu/h-i686-mingw32/bin/../lib/gcc/nios2-elf/4.1.2/../../../../nios2-elf/lib\libc.a(lib_a-lseekr.o)
 .comment       0x00000000       0x27 d:/altera/13.0sp1/nios2eds/bin/gnu/h-i686-mingw32/bin/../lib/gcc/nios2-elf/4.1.2/../../../../nios2-elf/lib\libc.a(lib_a-readr.o)
 .comment       0x00000000       0x27 d:/altera/13.0sp1/nios2eds/bin/gnu/h-i686-mingw32/bin/../lib/gcc/nios2-elf/4.1.2\libgcc.a(_udivdi3.o)
 .comment       0x00000000       0x27 d:/altera/13.0sp1/nios2eds/bin/gnu/h-i686-mingw32/bin/../lib/gcc/nios2-elf/4.1.2\libgcc.a(_umoddi3.o)
 .comment       0x00000000       0x27 d:/altera/13.0sp1/nios2eds/bin/gnu/h-i686-mingw32/bin/../lib/gcc/nios2-elf/4.1.2\libgcc.a(_div_df.o)
 .comment       0x00000000       0x27 d:/altera/13.0sp1/nios2eds/bin/gnu/h-i686-mingw32/bin/../lib/gcc/nios2-elf/4.1.2\libgcc.a(_eq_df.o)
 .comment       0x00000000       0x27 d:/altera/13.0sp1/nios2eds/bin/gnu/h-i686-mingw32/bin/../lib/gcc/nios2-elf/4.1.2\libgcc.a(_ne_df.o)
 .comment       0x00000000       0x27 d:/altera/13.0sp1/nios2eds/bin/gnu/h-i686-mingw32/bin/../lib/gcc/nios2-elf/4.1.2\libgcc.a(_gt_df.o)
 .comment       0x00000000       0x27 d:/altera/13.0sp1/nios2eds/bin/gnu/h-i686-mingw32/bin/../lib/gcc/nios2-elf/4.1.2\libgcc.a(_lt_df.o)
 .comment       0x00000000       0x27 d:/altera/13.0sp1/nios2eds/bin/gnu/h-i686-mingw32/bin/../lib/gcc/nios2-elf/4.1.2\libgcc.a(_si_to_df.o)
 .comment       0x00000000       0x27 d:/altera/13.0sp1/nios2eds/bin/gnu/h-i686-mingw32/bin/../lib/gcc/nios2-elf/4.1.2\libgcc.a(lib2-divmod.o)
 .comment       0x00000000       0x27 ../lab7_bsp/\libucosii_bsp.a(alt_exit.o)
 .comment       0x00000000       0x27 ../lab7_bsp/\libucosii_bsp.a(alt_flash_dev.o)
 .comment       0x00000000       0x27 ../lab7_bsp/\libucosii_bsp.a(alt_fstat.o)
 .comment       0x00000000       0x27 ../lab7_bsp/\libucosii_bsp.a(alt_irq_register.o)
 .comment       0x00000000       0x27 ../lab7_bsp/\libucosii_bsp.a(alt_irq_vars.o)
 .comment       0x00000000       0x27 ../lab7_bsp/\libucosii_bsp.a(alt_isatty.o)
 .comment       0x00000000       0x27 ../lab7_bsp/\libucosii_bsp.a(alt_lseek.o)
 .comment       0x00000000       0x27 ../lab7_bsp/\libucosii_bsp.a(alt_main.o)
 .comment       0x00000000       0x27 ../lab7_bsp/\libucosii_bsp.a(alt_sbrk.o)
 .comment       0x00000000       0x27 ../lab7_bsp/\libucosii_bsp.a(alt_usleep.o)
 .comment       0x00000000       0x27 ../lab7_bsp/\libucosii_bsp.a(alt_env_lock.o)
 .comment       0x00000000       0x27 ../lab7_bsp/\libucosii_bsp.a(alt_malloc_lock.o)
 .comment       0x00000000       0x27 ../lab7_bsp/\libucosii_bsp.a(os_core.o)
 .comment       0x00000000       0x27 ../lab7_bsp/\libucosii_bsp.a(os_dbg.o)
 .comment       0x00000000       0x27 ../lab7_bsp/\libucosii_bsp.a(os_flag.o)
 .comment       0x00000000       0x27 ../lab7_bsp/\libucosii_bsp.a(os_mem.o)
 .comment       0x00000000       0x27 ../lab7_bsp/\libucosii_bsp.a(os_q.o)
 .comment       0x00000000       0x27 ../lab7_bsp/\libucosii_bsp.a(os_sem.o)
 .comment       0x00000000       0x27 ../lab7_bsp/\libucosii_bsp.a(os_task.o)
 .comment       0x00000000       0x27 ../lab7_bsp/\libucosii_bsp.a(os_time.o)
 .comment       0x00000000       0x27 ../lab7_bsp/\libucosii_bsp.a(alt_sys_init.o)
 .comment       0x00000000       0x27 ../lab7_bsp/\libucosii_bsp.a(altera_avalon_cfi_flash.o)
 .comment       0x00000000       0x27 ../lab7_bsp/\libucosii_bsp.a(altera_avalon_cfi_flash_table.o)
 .comment       0x00000000       0x27 ../lab7_bsp/\libucosii_bsp.a(altera_avalon_epcs_flash_controller.o)
 .comment       0x00000000       0x27 ../lab7_bsp/\libucosii_bsp.a(altera_avalon_jtag_uart_fd.o)
 .comment       0x00000000       0x27 ../lab7_bsp/\libucosii_bsp.a(altera_avalon_jtag_uart_init.o)
 .comment       0x00000000       0x27 ../lab7_bsp/\libucosii_bsp.a(altera_avalon_jtag_uart_ioctl.o)
 .comment       0x00000000       0x27 ../lab7_bsp/\libucosii_bsp.a(altera_avalon_jtag_uart_read.o)
 .comment       0x00000000       0x27 ../lab7_bsp/\libucosii_bsp.a(altera_avalon_jtag_uart_write.o)
 .comment       0x00000000       0x27 ../lab7_bsp/\libucosii_bsp.a(altera_avalon_lcd_16207.o)
 .comment       0x00000000       0x27 ../lab7_bsp/\libucosii_bsp.a(altera_avalon_lcd_16207_fd.o)
 .comment       0x00000000       0x27 ../lab7_bsp/\libucosii_bsp.a(altera_avalon_timer_sc.o)
 .comment       0x00000000       0x27 ../lab7_bsp/\libucosii_bsp.a(altera_avalon_uart_fd.o)
 .comment       0x00000000       0x27 ../lab7_bsp/\libucosii_bsp.a(altera_avalon_uart_init.o)
 .comment       0x00000000       0x27 ../lab7_bsp/\libucosii_bsp.a(altera_avalon_uart_read.o)
 .comment       0x00000000       0x27 ../lab7_bsp/\libucosii_bsp.a(altera_avalon_uart_write.o)
 .comment       0x00000000       0x27 ../lab7_bsp/\libucosii_bsp.a(epcs_commands.o)
 .comment       0x00000000       0x27 ../lab7_bsp/\libucosii_bsp.a(alt_iniche_close.o)
 .comment       0x00000000       0x27 ../lab7_bsp/\libucosii_bsp.a(alt_iniche_dev.o)
 .comment       0x00000000       0x27 ../lab7_bsp/\libucosii_bsp.a(alt_iniche_read.o)
 .comment       0x00000000       0x27 ../lab7_bsp/\libucosii_bsp.a(alt_iniche_write.o)
 .comment       0x00000000       0x27 ../lab7_bsp/\libucosii_bsp.a(ipnet.o)
 .comment       0x00000000       0x27 ../lab7_bsp/\libucosii_bsp.a(ipstart.o)
 .comment       0x00000000       0x27 ../lab7_bsp/\libucosii_bsp.a(igmp_cmn.o)
 .comment       0x00000000       0x27 ../lab7_bsp/\libucosii_bsp.a(bsdsock.o)
 .comment       0x00000000       0x27 ../lab7_bsp/\libucosii_bsp.a(cksum.o)
 .comment       0x00000000       0x27 ../lab7_bsp/\libucosii_bsp.a(in_utils.o)
 .comment       0x00000000       0x27 ../lab7_bsp/\libucosii_bsp.a(netmain.o)
 .comment       0x00000000       0x27 ../lab7_bsp/\libucosii_bsp.a(parseip.o)
 .comment       0x00000000       0x27 ../lab7_bsp/\libucosii_bsp.a(tk_crnos.o)
 .comment       0x00000000       0x27 ../lab7_bsp/\libucosii_bsp.a(dhcpclnt.o)
 .comment       0x00000000       0x27 ../lab7_bsp/\libucosii_bsp.a(dhcputil.o)
 .comment       0x00000000       0x27 ../lab7_bsp/\libucosii_bsp.a(pktalloc.o)
 .comment       0x00000000       0x27 ../lab7_bsp/\libucosii_bsp.a(q.o)
 .comment       0x00000000       0x27 ../lab7_bsp/\libucosii_bsp.a(udp_open.o)
 .comment       0x00000000       0x27 ../lab7_bsp/\libucosii_bsp.a(brdutils.o)
 .comment       0x00000000       0x27 ../lab7_bsp/\libucosii_bsp.a(osportco.o)
 .comment       0x00000000       0x27 ../lab7_bsp/\libucosii_bsp.a(targnios.o)
 .comment       0x00000000       0x27 ../lab7_bsp/\libucosii_bsp.a(nptcp.o)
 .comment       0x00000000       0x27 ../lab7_bsp/\libucosii_bsp.a(rawsock.o)
 .comment       0x00000000       0x27 ../lab7_bsp/\libucosii_bsp.a(sockcall.o)
 .comment       0x00000000       0x27 ../lab7_bsp/\libucosii_bsp.a(socket.o)
 .comment       0x00000000       0x27 ../lab7_bsp/\libucosii_bsp.a(socket2.o)
 .comment       0x00000000       0x27 ../lab7_bsp/\libucosii_bsp.a(soselect.o)
 .comment       0x00000000       0x27 ../lab7_bsp/\libucosii_bsp.a(tcp_in.o)
 .comment       0x00000000       0x27 ../lab7_bsp/\libucosii_bsp.a(tcp_out.o)
 .comment       0x00000000       0x27 ../lab7_bsp/\libucosii_bsp.a(tcp_subr.o)
 .comment       0x00000000       0x27 ../lab7_bsp/\libucosii_bsp.a(tcp_timr.o)
 .comment       0x00000000       0x27 ../lab7_bsp/\libucosii_bsp.a(tcp_usr.o)
 .comment       0x00000000       0x27 ../lab7_bsp/\libucosii_bsp.a(tcpport.o)
 .comment       0x00000000       0x27 ../lab7_bsp/\libucosii_bsp.a(udpsock.o)
 .comment       0x00000000       0x27 ../lab7_bsp/\libucosii_bsp.a(alt_alarm_start.o)
 .comment       0x00000000       0x27 ../lab7_bsp/\libucosii_bsp.a(alt_busy_sleep.o)
 .comment       0x00000000       0x27 ../lab7_bsp/\libucosii_bsp.a(alt_close.o)
 .comment       0x00000000       0x27 ../lab7_bsp/\libucosii_bsp.a(alt_dcache_flush.o)
 .comment       0x00000000       0x27 ../lab7_bsp/\libucosii_bsp.a(alt_dev.o)
 .comment       0x00000000       0x27 ../lab7_bsp/\libucosii_bsp.a(alt_dev_llist_insert.o)
 .comment       0x00000000       0x27 ../lab7_bsp/\libucosii_bsp.a(alt_do_ctors.o)
 .comment       0x00000000       0x27 ../lab7_bsp/\libucosii_bsp.a(alt_do_dtors.o)
 .comment       0x00000000       0x27 ../lab7_bsp/\libucosii_bsp.a(alt_errno.o)
 .comment       0x00000000       0x27 ../lab7_bsp/\libucosii_bsp.a(alt_find_dev.o)
 .comment       0x00000000       0x27 ../lab7_bsp/\libucosii_bsp.a(alt_iic.o)
 .comment       0x00000000       0x27 ../lab7_bsp/\libucosii_bsp.a(alt_iic_isr_register.o)
 .comment       0x00000000       0x27 ../lab7_bsp/\libucosii_bsp.a(alt_io_redirect.o)
 .comment       0x00000000       0x27 ../lab7_bsp/\libucosii_bsp.a(alt_irq_handler.o)
 .comment       0x00000000       0x27 ../lab7_bsp/\libucosii_bsp.a(alt_open.o)
 .comment       0x00000000       0x27 ../lab7_bsp/\libucosii_bsp.a(alt_read.o)
 .comment       0x00000000       0x27 ../lab7_bsp/\libucosii_bsp.a(alt_release_fd.o)
 .comment       0x00000000       0x27 ../lab7_bsp/\libucosii_bsp.a(alt_remap_cached.o)
 .comment       0x00000000       0x27 ../lab7_bsp/\libucosii_bsp.a(alt_remap_uncached.o)
 .comment       0x00000000       0x27 ../lab7_bsp/\libucosii_bsp.a(alt_tick.o)
 .comment       0x00000000       0x27 ../lab7_bsp/\libucosii_bsp.a(alt_write.o)
 .comment       0x00000000       0x27 ../lab7_bsp/\libucosii_bsp.a(altera_nios2_qsys_irq.o)
 .comment       0x00000000       0x27 ../lab7_bsp/\libucosii_bsp.a(os_cpu_c.o)
 .comment       0x00000000       0x27 ../lab7_bsp/\libucosii_bsp.a(altera_avalon_cfi_flash_amd.o)
 .comment       0x00000000       0x27 ../lab7_bsp/\libucosii_bsp.a(altera_avalon_cfi_flash_intel.o)
 .comment       0x00000000       0x27 ../lab7_bsp/\libucosii_bsp.a(altera_avalon_spi.o)
 .comment       0x00000000       0x27 ../lab7_bsp/\libucosii_bsp.a(allports.o)
 .comment       0x00000000       0x27 ../lab7_bsp/\libucosii_bsp.a(timeouts.o)
 .comment       0x00000000       0x27 ../lab7_bsp/\libucosii_bsp.a(tk_misc.o)
 .comment       0x00000000       0x27 ../lab7_bsp/\libucosii_bsp.a(alt_iniche_fcntl.o)
 .comment       0x00000000       0x27 ../lab7_bsp/\libucosii_bsp.a(et_arp.o)
 .comment       0x00000000       0x27 ../lab7_bsp/\libucosii_bsp.a(iface.o)
 .comment       0x00000000       0x27 ../lab7_bsp/\libucosii_bsp.a(ip.o)
 .comment       0x00000000       0x27 ../lab7_bsp/\libucosii_bsp.a(ip_reasm.o)
 .comment       0x00000000       0x27 ../lab7_bsp/\libucosii_bsp.a(ipdemux.o)
 .comment       0x00000000       0x27 ../lab7_bsp/\libucosii_bsp.a(ipmc.o)
 .comment       0x00000000       0x27 ../lab7_bsp/\libucosii_bsp.a(ipport.o)
 .comment       0x00000000       0x27 ../lab7_bsp/\libucosii_bsp.a(ipraw.o)
 .comment       0x00000000       0x27 ../lab7_bsp/\libucosii_bsp.a(iproute.o)
 .comment       0x00000000       0x27 ../lab7_bsp/\libucosii_bsp.a(udp.o)
 .comment       0x00000000       0x27 ../lab7_bsp/\libucosii_bsp.a(igmp.o)
 .comment       0x00000000       0x27 ../lab7_bsp/\libucosii_bsp.a(igmp2.o)
 .comment       0x00000000       0x27 ../lab7_bsp/\libucosii_bsp.a(ipopt.o)
 .comment       0x00000000       0x27 ../lab7_bsp/\libucosii_bsp.a(u_mctest.o)
 .comment       0x00000000       0x27 ../lab7_bsp/\libucosii_bsp.a(dhcsetup.o)
 .comment       0x00000000       0x27 ../lab7_bsp/\libucosii_bsp.a(memdev.o)
 .comment       0x00000000       0x27 ../lab7_bsp/\libucosii_bsp.a(tcpcksum.o)
 .comment       0x00000000       0x27 ../lab7_bsp/\libucosii_bsp.a(in_pcb.o)
 .comment       0x00000000       0x27 ../lab7_bsp/\libucosii_bsp.a(vfsfiles.o)
 .comment       0x00000000       0x27 ../lab7_bsp/\libucosii_bsp.a(vfsport.o)
 .comment       0x00000000       0x27 ../lab7_bsp/\libucosii_bsp.a(alt_fcntl.o)
 .comment       0x00000000       0x27 ../lab7_bsp/\libucosii_bsp.a(alt_find_file.o)
 .comment       0x00000000       0x27 ../lab7_bsp/\libucosii_bsp.a(alt_get_fd.o)
 .comment       0x00000000       0x27 ../lab7_bsp/\libucosii_bsp.a(icmp.o)
 .comment       0x00000000       0x27 d:/altera/13.0sp1/nios2eds/bin/gnu/h-i686-mingw32/bin/../lib/gcc/nios2-elf/4.1.2/../../../../nios2-elf/lib\libc.a(lib_a-atexit.o)
 .comment       0x00000000       0x27 d:/altera/13.0sp1/nios2eds/bin/gnu/h-i686-mingw32/bin/../lib/gcc/nios2-elf/4.1.2/../../../../nios2-elf/lib\libc.a(lib_a-calloc.o)
 .comment       0x00000000       0x27 d:/altera/13.0sp1/nios2eds/bin/gnu/h-i686-mingw32/bin/../lib/gcc/nios2-elf/4.1.2/../../../../nios2-elf/lib\libc.a(lib_a-malloc.o)
 .comment       0x00000000       0x27 d:/altera/13.0sp1/nios2eds/bin/gnu/h-i686-mingw32/bin/../lib/gcc/nios2-elf/4.1.2/../../../../nios2-elf/lib\libc.a(lib_a-memcmp.o)
 .comment       0x00000000       0x27 d:/altera/13.0sp1/nios2eds/bin/gnu/h-i686-mingw32/bin/../lib/gcc/nios2-elf/4.1.2/../../../../nios2-elf/lib\libc.a(lib_a-sprintf.o)
 .comment       0x00000000       0x27 d:/altera/13.0sp1/nios2eds/bin/gnu/h-i686-mingw32/bin/../lib/gcc/nios2-elf/4.1.2/../../../../nios2-elf/lib\libc.a(lib_a-strcpy.o)
 .comment       0x00000000       0x27 d:/altera/13.0sp1/nios2eds/bin/gnu/h-i686-mingw32/bin/../lib/gcc/nios2-elf/4.1.2/../../../../nios2-elf/lib\libc.a(lib_a-strncmp.o)
 .comment       0x00000000       0x27 d:/altera/13.0sp1/nios2eds/bin/gnu/h-i686-mingw32/bin/../lib/gcc/nios2-elf/4.1.2/../../../../nios2-elf/lib\libc.a(lib_a-strncpy.o)
 .comment       0x00000000       0x27 d:/altera/13.0sp1/nios2eds/bin/gnu/h-i686-mingw32/bin/../lib/gcc/nios2-elf/4.1.2/../../../../nios2-elf/lib\libc.a(lib_a-vprintf.o)
 .comment       0x00000000       0x27 d:/altera/13.0sp1/nios2eds/bin/gnu/h-i686-mingw32/bin/../lib/gcc/nios2-elf/4.1.2/../../../../nios2-elf/lib\libc.a(lib_a-vsprintf.o)
 .comment       0x00000000       0x27 d:/altera/13.0sp1/nios2eds/bin/gnu/h-i686-mingw32/bin/../lib/gcc/nios2-elf/4.1.2/../../../../nios2-elf/lib\libc.a(lib_a-__atexit.o)

.debug
 *(.debug)

.line
 *(.line)

.debug_srcinfo
 *(.debug_srcinfo)

.debug_sfnames
 *(.debug_sfnames)

.debug_aranges  0x00000000     0x1b90
 *(.debug_aranges)
 .debug_aranges
                0x00000000       0x20 ../lab7_bsp//obj/HAL/src/crt0.o
 .debug_aranges
                0x00000020       0x20 obj/default/LCD.o
 .debug_aranges
                0x00000040       0x20 obj/default/SSS_DE2_115.o
 .debug_aranges
                0x00000060       0x20 obj/default/alt_error_handler.o
 .debug_aranges
                0x00000080       0x20 obj/default/dm9000a.o
 .debug_aranges
                0x000000a0       0x20 obj/default/iniche_init.o
 .debug_aranges
                0x000000c0       0x20 obj/default/led.o
 .debug_aranges
                0x000000e0       0x20 obj/default/network_utilities.o
 .debug_aranges
                0x00000100       0x20 obj/default/simple_socket_server.o
 .debug_aranges
                0x00000120       0x20 d:/altera/13.0sp1/nios2eds/bin/gnu/h-i686-mingw32/bin/../lib/gcc/nios2-elf/4.1.2\libgcc.a(_fixunsdfsi.o)
 .debug_aranges
                0x00000140       0x20 d:/altera/13.0sp1/nios2eds/bin/gnu/h-i686-mingw32/bin/../lib/gcc/nios2-elf/4.1.2\libgcc.a(_addsub_df.o)
 .debug_aranges
                0x00000160       0x20 d:/altera/13.0sp1/nios2eds/bin/gnu/h-i686-mingw32/bin/../lib/gcc/nios2-elf/4.1.2\libgcc.a(_mul_df.o)
 .debug_aranges
                0x00000180       0x20 d:/altera/13.0sp1/nios2eds/bin/gnu/h-i686-mingw32/bin/../lib/gcc/nios2-elf/4.1.2\libgcc.a(_ge_df.o)
 .debug_aranges
                0x000001a0       0x20 d:/altera/13.0sp1/nios2eds/bin/gnu/h-i686-mingw32/bin/../lib/gcc/nios2-elf/4.1.2\libgcc.a(_df_to_si.o)
 .debug_aranges
                0x000001c0       0x20 d:/altera/13.0sp1/nios2eds/bin/gnu/h-i686-mingw32/bin/../lib/gcc/nios2-elf/4.1.2\libgcc.a(_usi_to_df.o)
 .debug_aranges
                0x000001e0       0x20 d:/altera/13.0sp1/nios2eds/bin/gnu/h-i686-mingw32/bin/../lib/gcc/nios2-elf/4.1.2\libgcc.a(_muldi3.o)
 .debug_aranges
                0x00000200       0x20 d:/altera/13.0sp1/nios2eds/bin/gnu/h-i686-mingw32/bin/../lib/gcc/nios2-elf/4.1.2\libgcc.a(_clzsi2.o)
 .debug_aranges
                0x00000220       0x20 d:/altera/13.0sp1/nios2eds/bin/gnu/h-i686-mingw32/bin/../lib/gcc/nios2-elf/4.1.2\libgcc.a(_pack_df.o)
 .debug_aranges
                0x00000240       0x20 d:/altera/13.0sp1/nios2eds/bin/gnu/h-i686-mingw32/bin/../lib/gcc/nios2-elf/4.1.2\libgcc.a(_unpack_df.o)
 .debug_aranges
                0x00000260       0x20 d:/altera/13.0sp1/nios2eds/bin/gnu/h-i686-mingw32/bin/../lib/gcc/nios2-elf/4.1.2\libgcc.a(_fpcmp_parts_df.o)
 .debug_aranges
                0x00000280       0x20 d:/altera/13.0sp1/nios2eds/bin/gnu/h-i686-mingw32/bin/../lib/gcc/nios2-elf/4.1.2/../../../../nios2-elf/lib\libc.a(lib_a-atoi.o)
 .debug_aranges
                0x000002a0       0x20 d:/altera/13.0sp1/nios2eds/bin/gnu/h-i686-mingw32/bin/../lib/gcc/nios2-elf/4.1.2/../../../../nios2-elf/lib\libc.a(lib_a-errno.o)
 .debug_aranges
                0x000002c0       0x20 d:/altera/13.0sp1/nios2eds/bin/gnu/h-i686-mingw32/bin/../lib/gcc/nios2-elf/4.1.2/../../../../nios2-elf/lib\libc.a(lib_a-exit.o)
 .debug_aranges
                0x000002e0       0x20 d:/altera/13.0sp1/nios2eds/bin/gnu/h-i686-mingw32/bin/../lib/gcc/nios2-elf/4.1.2/../../../../nios2-elf/lib\libc.a(lib_a-fprintf.o)
 .debug_aranges
                0x00000300       0x20 d:/altera/13.0sp1/nios2eds/bin/gnu/h-i686-mingw32/bin/../lib/gcc/nios2-elf/4.1.2/../../../../nios2-elf/lib\libc.a(lib_a-fwrite.o)
 .debug_aranges
                0x00000320       0x20 d:/altera/13.0sp1/nios2eds/bin/gnu/h-i686-mingw32/bin/../lib/gcc/nios2-elf/4.1.2/../../../../nios2-elf/lib\libc.a(lib_a-getc.o)
 .debug_aranges
                0x00000340       0x20 d:/altera/13.0sp1/nios2eds/bin/gnu/h-i686-mingw32/bin/../lib/gcc/nios2-elf/4.1.2/../../../../nios2-elf/lib\libc.a(lib_a-memcpy.o)
 .debug_aranges
                0x00000360       0x20 d:/altera/13.0sp1/nios2eds/bin/gnu/h-i686-mingw32/bin/../lib/gcc/nios2-elf/4.1.2/../../../../nios2-elf/lib\libc.a(lib_a-memmove.o)
 .debug_aranges
                0x00000380       0x20 d:/altera/13.0sp1/nios2eds/bin/gnu/h-i686-mingw32/bin/../lib/gcc/nios2-elf/4.1.2/../../../../nios2-elf/lib\libc.a(lib_a-memset.o)
 .debug_aranges
                0x000003a0       0x20 d:/altera/13.0sp1/nios2eds/bin/gnu/h-i686-mingw32/bin/../lib/gcc/nios2-elf/4.1.2/../../../../nios2-elf/lib\libc.a(lib_a-perror.o)
 .debug_aranges
                0x000003c0       0x20 d:/altera/13.0sp1/nios2eds/bin/gnu/h-i686-mingw32/bin/../lib/gcc/nios2-elf/4.1.2/../../../../nios2-elf/lib\libc.a(lib_a-printf.o)
 .debug_aranges
                0x000003e0       0x20 d:/altera/13.0sp1/nios2eds/bin/gnu/h-i686-mingw32/bin/../lib/gcc/nios2-elf/4.1.2/../../../../nios2-elf/lib\libc.a(lib_a-putc.o)
 .debug_aranges
                0x00000400       0x20 d:/altera/13.0sp1/nios2eds/bin/gnu/h-i686-mingw32/bin/../lib/gcc/nios2-elf/4.1.2/../../../../nios2-elf/lib\libc.a(lib_a-putchar.o)
 .debug_aranges
                0x00000420       0x20 d:/altera/13.0sp1/nios2eds/bin/gnu/h-i686-mingw32/bin/../lib/gcc/nios2-elf/4.1.2/../../../../nios2-elf/lib\libc.a(lib_a-puts.o)
 .debug_aranges
                0x00000440       0x20 d:/altera/13.0sp1/nios2eds/bin/gnu/h-i686-mingw32/bin/../lib/gcc/nios2-elf/4.1.2/../../../../nios2-elf/lib\libc.a(lib_a-rget.o)
 .debug_aranges
                0x00000460       0x20 d:/altera/13.0sp1/nios2eds/bin/gnu/h-i686-mingw32/bin/../lib/gcc/nios2-elf/4.1.2/../../../../nios2-elf/lib\libc.a(lib_a-strchr.o)
 .debug_aranges
                0x00000480       0x20 d:/altera/13.0sp1/nios2eds/bin/gnu/h-i686-mingw32/bin/../lib/gcc/nios2-elf/4.1.2/../../../../nios2-elf/lib\libc.a(lib_a-strcmp.o)
 .debug_aranges
                0x000004a0       0x20 d:/altera/13.0sp1/nios2eds/bin/gnu/h-i686-mingw32/bin/../lib/gcc/nios2-elf/4.1.2/../../../../nios2-elf/lib\libc.a(lib_a-strerror.o)
 .debug_aranges
                0x000004c0       0x20 d:/altera/13.0sp1/nios2eds/bin/gnu/h-i686-mingw32/bin/../lib/gcc/nios2-elf/4.1.2/../../../../nios2-elf/lib\libc.a(lib_a-strlen.o)
 .debug_aranges
                0x000004e0       0x20 d:/altera/13.0sp1/nios2eds/bin/gnu/h-i686-mingw32/bin/../lib/gcc/nios2-elf/4.1.2/../../../../nios2-elf/lib\libc.a(lib_a-strtol.o)
 .debug_aranges
                0x00000500       0x20 d:/altera/13.0sp1/nios2eds/bin/gnu/h-i686-mingw32/bin/../lib/gcc/nios2-elf/4.1.2/../../../../nios2-elf/lib\libc.a(lib_a-u_strerr.o)
 .debug_aranges
                0x00000520       0x20 d:/altera/13.0sp1/nios2eds/bin/gnu/h-i686-mingw32/bin/../lib/gcc/nios2-elf/4.1.2/../../../../nios2-elf/lib\libc.a(lib_a-vfprintf.o)
 .debug_aranges
                0x00000540       0x20 d:/altera/13.0sp1/nios2eds/bin/gnu/h-i686-mingw32/bin/../lib/gcc/nios2-elf/4.1.2/../../../../nios2-elf/lib\libc.a(lib_a-wbuf.o)
 .debug_aranges
                0x00000560       0x20 d:/altera/13.0sp1/nios2eds/bin/gnu/h-i686-mingw32/bin/../lib/gcc/nios2-elf/4.1.2/../../../../nios2-elf/lib\libc.a(lib_a-wsetup.o)
 .debug_aranges
                0x00000580       0x20 d:/altera/13.0sp1/nios2eds/bin/gnu/h-i686-mingw32/bin/../lib/gcc/nios2-elf/4.1.2/../../../../nios2-elf/lib\libc.a(lib_a-__call_atexit.o)
 .debug_aranges
                0x000005a0       0x20 d:/altera/13.0sp1/nios2eds/bin/gnu/h-i686-mingw32/bin/../lib/gcc/nios2-elf/4.1.2/../../../../nios2-elf/lib\libc.a(lib_a-dtoa.o)
 .debug_aranges
                0x000005c0       0x20 d:/altera/13.0sp1/nios2eds/bin/gnu/h-i686-mingw32/bin/../lib/gcc/nios2-elf/4.1.2/../../../../nios2-elf/lib\libc.a(lib_a-fflush.o)
 .debug_aranges
                0x000005e0       0x20 d:/altera/13.0sp1/nios2eds/bin/gnu/h-i686-mingw32/bin/../lib/gcc/nios2-elf/4.1.2/../../../../nios2-elf/lib\libc.a(lib_a-findfp.o)
 .debug_aranges
                0x00000600       0x20 d:/altera/13.0sp1/nios2eds/bin/gnu/h-i686-mingw32/bin/../lib/gcc/nios2-elf/4.1.2/../../../../nios2-elf/lib\libc.a(lib_a-fputc.o)
 .debug_aranges
                0x00000620       0x20 d:/altera/13.0sp1/nios2eds/bin/gnu/h-i686-mingw32/bin/../lib/gcc/nios2-elf/4.1.2/../../../../nios2-elf/lib\libc.a(lib_a-fputs.o)
 .debug_aranges
                0x00000640       0x20 d:/altera/13.0sp1/nios2eds/bin/gnu/h-i686-mingw32/bin/../lib/gcc/nios2-elf/4.1.2/../../../../nios2-elf/lib\libc.a(lib_a-freer.o)
 .debug_aranges
                0x00000660       0x20 d:/altera/13.0sp1/nios2eds/bin/gnu/h-i686-mingw32/bin/../lib/gcc/nios2-elf/4.1.2/../../../../nios2-elf/lib\libc.a(lib_a-fvwrite.o)
 .debug_aranges
                0x00000680       0x20 d:/altera/13.0sp1/nios2eds/bin/gnu/h-i686-mingw32/bin/../lib/gcc/nios2-elf/4.1.2/../../../../nios2-elf/lib\libc.a(lib_a-fwalk.o)
 .debug_aranges
                0x000006a0       0x20 d:/altera/13.0sp1/nios2eds/bin/gnu/h-i686-mingw32/bin/../lib/gcc/nios2-elf/4.1.2/../../../../nios2-elf/lib\libc.a(lib_a-locale.o)
 .debug_aranges
                0x000006c0       0x20 d:/altera/13.0sp1/nios2eds/bin/gnu/h-i686-mingw32/bin/../lib/gcc/nios2-elf/4.1.2/../../../../nios2-elf/lib\libc.a(lib_a-makebuf.o)
 .debug_aranges
                0x000006e0       0x20 d:/altera/13.0sp1/nios2eds/bin/gnu/h-i686-mingw32/bin/../lib/gcc/nios2-elf/4.1.2/../../../../nios2-elf/lib\libc.a(lib_a-mallocr.o)
 .debug_aranges
                0x00000700       0x20 d:/altera/13.0sp1/nios2eds/bin/gnu/h-i686-mingw32/bin/../lib/gcc/nios2-elf/4.1.2/../../../../nios2-elf/lib\libc.a(lib_a-memchr.o)
 .debug_aranges
                0x00000720       0x20 d:/altera/13.0sp1/nios2eds/bin/gnu/h-i686-mingw32/bin/../lib/gcc/nios2-elf/4.1.2/../../../../nios2-elf/lib\libc.a(lib_a-mprec.o)
 .debug_aranges
                0x00000740       0x20 d:/altera/13.0sp1/nios2eds/bin/gnu/h-i686-mingw32/bin/../lib/gcc/nios2-elf/4.1.2/../../../../nios2-elf/lib\libc.a(lib_a-reallocr.o)
 .debug_aranges
                0x00000760       0x20 d:/altera/13.0sp1/nios2eds/bin/gnu/h-i686-mingw32/bin/../lib/gcc/nios2-elf/4.1.2/../../../../nios2-elf/lib\libc.a(lib_a-refill.o)
 .debug_aranges
                0x00000780       0x20 d:/altera/13.0sp1/nios2eds/bin/gnu/h-i686-mingw32/bin/../lib/gcc/nios2-elf/4.1.2/../../../../nios2-elf/lib\libc.a(lib_a-s_isinfd.o)
 .debug_aranges
                0x000007a0       0x20 d:/altera/13.0sp1/nios2eds/bin/gnu/h-i686-mingw32/bin/../lib/gcc/nios2-elf/4.1.2/../../../../nios2-elf/lib\libc.a(lib_a-s_isnand.o)
 .debug_aranges
                0x000007c0       0x20 d:/altera/13.0sp1/nios2eds/bin/gnu/h-i686-mingw32/bin/../lib/gcc/nios2-elf/4.1.2/../../../../nios2-elf/lib\libc.a(lib_a-sbrkr.o)
 .debug_aranges
                0x000007e0       0x20 d:/altera/13.0sp1/nios2eds/bin/gnu/h-i686-mingw32/bin/../lib/gcc/nios2-elf/4.1.2/../../../../nios2-elf/lib\libc.a(lib_a-stdio.o)
 .debug_aranges
                0x00000800       0x20 d:/altera/13.0sp1/nios2eds/bin/gnu/h-i686-mingw32/bin/../lib/gcc/nios2-elf/4.1.2/../../../../nios2-elf/lib\libc.a(lib_a-writer.o)
 .debug_aranges
                0x00000820       0x20 d:/altera/13.0sp1/nios2eds/bin/gnu/h-i686-mingw32/bin/../lib/gcc/nios2-elf/4.1.2/../../../../nios2-elf/lib\libc.a(lib_a-callocr.o)
 .debug_aranges
                0x00000840       0x20 d:/altera/13.0sp1/nios2eds/bin/gnu/h-i686-mingw32/bin/../lib/gcc/nios2-elf/4.1.2/../../../../nios2-elf/lib\libc.a(lib_a-closer.o)
 .debug_aranges
                0x00000860       0x20 d:/altera/13.0sp1/nios2eds/bin/gnu/h-i686-mingw32/bin/../lib/gcc/nios2-elf/4.1.2/../../../../nios2-elf/lib\libc.a(lib_a-fclose.o)
 .debug_aranges
                0x00000880       0x20 d:/altera/13.0sp1/nios2eds/bin/gnu/h-i686-mingw32/bin/../lib/gcc/nios2-elf/4.1.2/../../../../nios2-elf/lib\libc.a(lib_a-fstatr.o)
 .debug_aranges
                0x000008a0       0x20 d:/altera/13.0sp1/nios2eds/bin/gnu/h-i686-mingw32/bin/../lib/gcc/nios2-elf/4.1.2/../../../../nios2-elf/lib\libc.a(lib_a-isattyr.o)
 .debug_aranges
                0x000008c0       0x20 d:/altera/13.0sp1/nios2eds/bin/gnu/h-i686-mingw32/bin/../lib/gcc/nios2-elf/4.1.2/../../../../nios2-elf/lib\libc.a(lib_a-lseekr.o)
 .debug_aranges
                0x000008e0       0x20 d:/altera/13.0sp1/nios2eds/bin/gnu/h-i686-mingw32/bin/../lib/gcc/nios2-elf/4.1.2/../../../../nios2-elf/lib\libc.a(lib_a-readr.o)
 .debug_aranges
                0x00000900       0x20 d:/altera/13.0sp1/nios2eds/bin/gnu/h-i686-mingw32/bin/../lib/gcc/nios2-elf/4.1.2\libgcc.a(_udivdi3.o)
 .debug_aranges
                0x00000920       0x20 d:/altera/13.0sp1/nios2eds/bin/gnu/h-i686-mingw32/bin/../lib/gcc/nios2-elf/4.1.2\libgcc.a(_umoddi3.o)
 .debug_aranges
                0x00000940       0x20 d:/altera/13.0sp1/nios2eds/bin/gnu/h-i686-mingw32/bin/../lib/gcc/nios2-elf/4.1.2\libgcc.a(_div_df.o)
 .debug_aranges
                0x00000960       0x20 d:/altera/13.0sp1/nios2eds/bin/gnu/h-i686-mingw32/bin/../lib/gcc/nios2-elf/4.1.2\libgcc.a(_eq_df.o)
 .debug_aranges
                0x00000980       0x20 d:/altera/13.0sp1/nios2eds/bin/gnu/h-i686-mingw32/bin/../lib/gcc/nios2-elf/4.1.2\libgcc.a(_ne_df.o)
 .debug_aranges
                0x000009a0       0x20 d:/altera/13.0sp1/nios2eds/bin/gnu/h-i686-mingw32/bin/../lib/gcc/nios2-elf/4.1.2\libgcc.a(_gt_df.o)
 .debug_aranges
                0x000009c0       0x20 d:/altera/13.0sp1/nios2eds/bin/gnu/h-i686-mingw32/bin/../lib/gcc/nios2-elf/4.1.2\libgcc.a(_lt_df.o)
 .debug_aranges
                0x000009e0       0x20 d:/altera/13.0sp1/nios2eds/bin/gnu/h-i686-mingw32/bin/../lib/gcc/nios2-elf/4.1.2\libgcc.a(_si_to_df.o)
 .debug_aranges
                0x00000a00       0x20 d:/altera/13.0sp1/nios2eds/bin/gnu/h-i686-mingw32/bin/../lib/gcc/nios2-elf/4.1.2\libgcc.a(lib2-divmod.o)
 .debug_aranges
                0x00000a20       0x20 ../lab7_bsp/\libucosii_bsp.a(alt_exit.o)
 .debug_aranges
                0x00000a40       0x20 ../lab7_bsp/\libucosii_bsp.a(alt_flash_dev.o)
 .debug_aranges
                0x00000a60       0x20 ../lab7_bsp/\libucosii_bsp.a(alt_fstat.o)
 .debug_aranges
                0x00000a80       0x20 ../lab7_bsp/\libucosii_bsp.a(alt_irq_register.o)
 .debug_aranges
                0x00000aa0       0x20 ../lab7_bsp/\libucosii_bsp.a(alt_isatty.o)
 .debug_aranges
                0x00000ac0       0x20 ../lab7_bsp/\libucosii_bsp.a(alt_lseek.o)
 .debug_aranges
                0x00000ae0       0x20 ../lab7_bsp/\libucosii_bsp.a(alt_main.o)
 .debug_aranges
                0x00000b00       0x20 ../lab7_bsp/\libucosii_bsp.a(alt_sbrk.o)
 .debug_aranges
                0x00000b20       0x20 ../lab7_bsp/\libucosii_bsp.a(alt_usleep.o)
 .debug_aranges
                0x00000b40       0x20 ../lab7_bsp/\libucosii_bsp.a(alt_env_lock.o)
 .debug_aranges
                0x00000b60       0x20 ../lab7_bsp/\libucosii_bsp.a(alt_malloc_lock.o)
 .debug_aranges
                0x00000b80       0x20 ../lab7_bsp/\libucosii_bsp.a(os_core.o)
 .debug_aranges
                0x00000ba0       0x20 ../lab7_bsp/\libucosii_bsp.a(os_dbg.o)
 .debug_aranges
                0x00000bc0       0x20 ../lab7_bsp/\libucosii_bsp.a(os_flag.o)
 .debug_aranges
                0x00000be0       0x20 ../lab7_bsp/\libucosii_bsp.a(os_mem.o)
 .debug_aranges
                0x00000c00       0x20 ../lab7_bsp/\libucosii_bsp.a(os_q.o)
 .debug_aranges
                0x00000c20       0x20 ../lab7_bsp/\libucosii_bsp.a(os_sem.o)
 .debug_aranges
                0x00000c40       0x20 ../lab7_bsp/\libucosii_bsp.a(os_task.o)
 .debug_aranges
                0x00000c60       0x20 ../lab7_bsp/\libucosii_bsp.a(os_time.o)
 .debug_aranges
                0x00000c80       0x20 ../lab7_bsp/\libucosii_bsp.a(alt_sys_init.o)
 .debug_aranges
                0x00000ca0       0x20 ../lab7_bsp/\libucosii_bsp.a(altera_avalon_cfi_flash.o)
 .debug_aranges
                0x00000cc0       0x20 ../lab7_bsp/\libucosii_bsp.a(altera_avalon_cfi_flash_table.o)
 .debug_aranges
                0x00000ce0       0x20 ../lab7_bsp/\libucosii_bsp.a(altera_avalon_epcs_flash_controller.o)
 .debug_aranges
                0x00000d00       0x20 ../lab7_bsp/\libucosii_bsp.a(altera_avalon_jtag_uart_fd.o)
 .debug_aranges
                0x00000d20       0x20 ../lab7_bsp/\libucosii_bsp.a(altera_avalon_jtag_uart_init.o)
 .debug_aranges
                0x00000d40       0x20 ../lab7_bsp/\libucosii_bsp.a(altera_avalon_jtag_uart_ioctl.o)
 .debug_aranges
                0x00000d60       0x20 ../lab7_bsp/\libucosii_bsp.a(altera_avalon_jtag_uart_read.o)
 .debug_aranges
                0x00000d80       0x20 ../lab7_bsp/\libucosii_bsp.a(altera_avalon_jtag_uart_write.o)
 .debug_aranges
                0x00000da0       0x20 ../lab7_bsp/\libucosii_bsp.a(altera_avalon_lcd_16207.o)
 .debug_aranges
                0x00000dc0       0x20 ../lab7_bsp/\libucosii_bsp.a(altera_avalon_lcd_16207_fd.o)
 .debug_aranges
                0x00000de0       0x20 ../lab7_bsp/\libucosii_bsp.a(altera_avalon_timer_sc.o)
 .debug_aranges
                0x00000e00       0x20 ../lab7_bsp/\libucosii_bsp.a(altera_avalon_uart_fd.o)
 .debug_aranges
                0x00000e20       0x20 ../lab7_bsp/\libucosii_bsp.a(altera_avalon_uart_init.o)
 .debug_aranges
                0x00000e40       0x20 ../lab7_bsp/\libucosii_bsp.a(altera_avalon_uart_read.o)
 .debug_aranges
                0x00000e60       0x20 ../lab7_bsp/\libucosii_bsp.a(altera_avalon_uart_write.o)
 .debug_aranges
                0x00000e80       0x20 ../lab7_bsp/\libucosii_bsp.a(epcs_commands.o)
 .debug_aranges
                0x00000ea0       0x20 ../lab7_bsp/\libucosii_bsp.a(alt_iniche_close.o)
 .debug_aranges
                0x00000ec0       0x20 ../lab7_bsp/\libucosii_bsp.a(alt_iniche_dev.o)
 .debug_aranges
                0x00000ee0       0x20 ../lab7_bsp/\libucosii_bsp.a(alt_iniche_read.o)
 .debug_aranges
                0x00000f00       0x20 ../lab7_bsp/\libucosii_bsp.a(alt_iniche_write.o)
 .debug_aranges
                0x00000f20       0x20 ../lab7_bsp/\libucosii_bsp.a(ipnet.o)
 .debug_aranges
                0x00000f40       0x20 ../lab7_bsp/\libucosii_bsp.a(ipstart.o)
 .debug_aranges
                0x00000f60       0x20 ../lab7_bsp/\libucosii_bsp.a(igmp_cmn.o)
 .debug_aranges
                0x00000f80       0x20 ../lab7_bsp/\libucosii_bsp.a(bsdsock.o)
 .debug_aranges
                0x00000fa0       0x20 ../lab7_bsp/\libucosii_bsp.a(cksum.o)
 .debug_aranges
                0x00000fc0       0x20 ../lab7_bsp/\libucosii_bsp.a(in_utils.o)
 .debug_aranges
                0x00000fe0       0x20 ../lab7_bsp/\libucosii_bsp.a(netmain.o)
 .debug_aranges
                0x00001000       0x20 ../lab7_bsp/\libucosii_bsp.a(parseip.o)
 .debug_aranges
                0x00001020       0x20 ../lab7_bsp/\libucosii_bsp.a(tk_crnos.o)
 .debug_aranges
                0x00001040       0x20 ../lab7_bsp/\libucosii_bsp.a(dhcpclnt.o)
 .debug_aranges
                0x00001060       0x20 ../lab7_bsp/\libucosii_bsp.a(dhcputil.o)
 .debug_aranges
                0x00001080       0x20 ../lab7_bsp/\libucosii_bsp.a(pktalloc.o)
 .debug_aranges
                0x000010a0       0x20 ../lab7_bsp/\libucosii_bsp.a(q.o)
 .debug_aranges
                0x000010c0       0x20 ../lab7_bsp/\libucosii_bsp.a(udp_open.o)
 .debug_aranges
                0x000010e0       0x20 ../lab7_bsp/\libucosii_bsp.a(asm_cksum.o)
 .debug_aranges
                0x00001100       0x20 ../lab7_bsp/\libucosii_bsp.a(brdutils.o)
 .debug_aranges
                0x00001120       0x20 ../lab7_bsp/\libucosii_bsp.a(osportco.o)
 .debug_aranges
                0x00001140       0x20 ../lab7_bsp/\libucosii_bsp.a(targnios.o)
 .debug_aranges
                0x00001160       0x20 ../lab7_bsp/\libucosii_bsp.a(nptcp.o)
 .debug_aranges
                0x00001180       0x20 ../lab7_bsp/\libucosii_bsp.a(rawsock.o)
 .debug_aranges
                0x000011a0       0x20 ../lab7_bsp/\libucosii_bsp.a(sockcall.o)
 .debug_aranges
                0x000011c0       0x20 ../lab7_bsp/\libucosii_bsp.a(socket.o)
 .debug_aranges
                0x000011e0       0x20 ../lab7_bsp/\libucosii_bsp.a(socket2.o)
 .debug_aranges
                0x00001200       0x20 ../lab7_bsp/\libucosii_bsp.a(soselect.o)
 .debug_aranges
                0x00001220       0x20 ../lab7_bsp/\libucosii_bsp.a(tcp_in.o)
 .debug_aranges
                0x00001240       0x20 ../lab7_bsp/\libucosii_bsp.a(tcp_out.o)
 .debug_aranges
                0x00001260       0x20 ../lab7_bsp/\libucosii_bsp.a(tcp_subr.o)
 .debug_aranges
                0x00001280       0x20 ../lab7_bsp/\libucosii_bsp.a(tcp_timr.o)
 .debug_aranges
                0x000012a0       0x20 ../lab7_bsp/\libucosii_bsp.a(tcp_usr.o)
 .debug_aranges
                0x000012c0       0x20 ../lab7_bsp/\libucosii_bsp.a(tcpport.o)
 .debug_aranges
                0x000012e0       0x20 ../lab7_bsp/\libucosii_bsp.a(udpsock.o)
 .debug_aranges
                0x00001300       0x20 ../lab7_bsp/\libucosii_bsp.a(alt_alarm_start.o)
 .debug_aranges
                0x00001320       0x20 ../lab7_bsp/\libucosii_bsp.a(alt_busy_sleep.o)
 .debug_aranges
                0x00001340       0x20 ../lab7_bsp/\libucosii_bsp.a(alt_close.o)
 .debug_aranges
                0x00001360       0x20 ../lab7_bsp/\libucosii_bsp.a(alt_dcache_flush.o)
 .debug_aranges
                0x00001380       0x20 ../lab7_bsp/\libucosii_bsp.a(alt_dev.o)
 .debug_aranges
                0x000013a0       0x20 ../lab7_bsp/\libucosii_bsp.a(alt_dev_llist_insert.o)
 .debug_aranges
                0x000013c0       0x20 ../lab7_bsp/\libucosii_bsp.a(alt_do_ctors.o)
 .debug_aranges
                0x000013e0       0x20 ../lab7_bsp/\libucosii_bsp.a(alt_do_dtors.o)
 .debug_aranges
                0x00001400       0x20 ../lab7_bsp/\libucosii_bsp.a(alt_find_dev.o)
 .debug_aranges
                0x00001420       0x20 ../lab7_bsp/\libucosii_bsp.a(alt_iic.o)
 .debug_aranges
                0x00001440       0x20 ../lab7_bsp/\libucosii_bsp.a(alt_iic_isr_register.o)
 .debug_aranges
                0x00001460       0x20 ../lab7_bsp/\libucosii_bsp.a(alt_io_redirect.o)
 .debug_aranges
                0x00001480       0x30 ../lab7_bsp/\libucosii_bsp.a(alt_irq_entry.o)
 .debug_aranges
                0x000014b0       0x28 ../lab7_bsp/\libucosii_bsp.a(alt_irq_handler.o)
 .debug_aranges
                0x000014d8       0x20 ../lab7_bsp/\libucosii_bsp.a(alt_open.o)
 .debug_aranges
                0x000014f8       0x20 ../lab7_bsp/\libucosii_bsp.a(alt_read.o)
 .debug_aranges
                0x00001518       0x20 ../lab7_bsp/\libucosii_bsp.a(alt_release_fd.o)
 .debug_aranges
                0x00001538       0x20 ../lab7_bsp/\libucosii_bsp.a(alt_remap_cached.o)
 .debug_aranges
                0x00001558       0x20 ../lab7_bsp/\libucosii_bsp.a(alt_remap_uncached.o)
 .debug_aranges
                0x00001578       0x20 ../lab7_bsp/\libucosii_bsp.a(alt_tick.o)
 .debug_aranges
                0x00001598       0x20 ../lab7_bsp/\libucosii_bsp.a(alt_write.o)
 .debug_aranges
                0x000015b8       0x20 ../lab7_bsp/\libucosii_bsp.a(altera_nios2_qsys_irq.o)
 .debug_aranges
                0x000015d8       0x20 ../lab7_bsp/\libucosii_bsp.a(os_cpu_a.o)
 .debug_aranges
                0x000015f8       0x20 ../lab7_bsp/\libucosii_bsp.a(os_cpu_c.o)
 .debug_aranges
                0x00001618       0x20 ../lab7_bsp/\libucosii_bsp.a(altera_avalon_cfi_flash_amd.o)
 .debug_aranges
                0x00001638       0x20 ../lab7_bsp/\libucosii_bsp.a(altera_avalon_cfi_flash_intel.o)
 .debug_aranges
                0x00001658       0x20 ../lab7_bsp/\libucosii_bsp.a(altera_avalon_spi.o)
 .debug_aranges
                0x00001678       0x20 ../lab7_bsp/\libucosii_bsp.a(allports.o)
 .debug_aranges
                0x00001698       0x20 ../lab7_bsp/\libucosii_bsp.a(timeouts.o)
 .debug_aranges
                0x000016b8       0x20 ../lab7_bsp/\libucosii_bsp.a(tk_misc.o)
 .debug_aranges
                0x000016d8       0x20 ../lab7_bsp/\libucosii_bsp.a(alt_iniche_fcntl.o)
 .debug_aranges
                0x000016f8       0x20 ../lab7_bsp/\libucosii_bsp.a(et_arp.o)
 .debug_aranges
                0x00001718       0x20 ../lab7_bsp/\libucosii_bsp.a(iface.o)
 .debug_aranges
                0x00001738       0x20 ../lab7_bsp/\libucosii_bsp.a(ip.o)
 .debug_aranges
                0x00001758       0x20 ../lab7_bsp/\libucosii_bsp.a(ip_reasm.o)
 .debug_aranges
                0x00001778       0x20 ../lab7_bsp/\libucosii_bsp.a(ipdemux.o)
 .debug_aranges
                0x00001798       0x20 ../lab7_bsp/\libucosii_bsp.a(ipmc.o)
 .debug_aranges
                0x000017b8       0x20 ../lab7_bsp/\libucosii_bsp.a(ipport.o)
 .debug_aranges
                0x000017d8       0x20 ../lab7_bsp/\libucosii_bsp.a(ipraw.o)
 .debug_aranges
                0x000017f8       0x20 ../lab7_bsp/\libucosii_bsp.a(iproute.o)
 .debug_aranges
                0x00001818       0x20 ../lab7_bsp/\libucosii_bsp.a(udp.o)
 .debug_aranges
                0x00001838       0x20 ../lab7_bsp/\libucosii_bsp.a(igmp.o)
 .debug_aranges
                0x00001858       0x20 ../lab7_bsp/\libucosii_bsp.a(igmp2.o)
 .debug_aranges
                0x00001878       0x20 ../lab7_bsp/\libucosii_bsp.a(ipopt.o)
 .debug_aranges
                0x00001898       0x20 ../lab7_bsp/\libucosii_bsp.a(u_mctest.o)
 .debug_aranges
                0x000018b8       0x20 ../lab7_bsp/\libucosii_bsp.a(dhcsetup.o)
 .debug_aranges
                0x000018d8       0x20 ../lab7_bsp/\libucosii_bsp.a(memdev.o)
 .debug_aranges
                0x000018f8       0x20 ../lab7_bsp/\libucosii_bsp.a(tcpcksum.o)
 .debug_aranges
                0x00001918       0x20 ../lab7_bsp/\libucosii_bsp.a(in_pcb.o)
 .debug_aranges
                0x00001938       0x20 ../lab7_bsp/\libucosii_bsp.a(vfsfiles.o)
 .debug_aranges
                0x00001958       0x20 ../lab7_bsp/\libucosii_bsp.a(vfsport.o)
 .debug_aranges
                0x00001978       0x38 ../lab7_bsp/\libucosii_bsp.a(alt_exception_entry.o)
 .debug_aranges
                0x000019b0       0x20 ../lab7_bsp/\libucosii_bsp.a(alt_fcntl.o)
 .debug_aranges
                0x000019d0       0x20 ../lab7_bsp/\libucosii_bsp.a(alt_find_file.o)
 .debug_aranges
                0x000019f0       0x20 ../lab7_bsp/\libucosii_bsp.a(alt_get_fd.o)
 .debug_aranges
                0x00001a10       0x20 ../lab7_bsp/\libucosii_bsp.a(icmp.o)
 .debug_aranges
                0x00001a30       0x20 d:/altera/13.0sp1/nios2eds/bin/gnu/h-i686-mingw32/bin/../lib/gcc/nios2-elf/4.1.2/../../../../nios2-elf/lib\libc.a(lib_a-atexit.o)
 .debug_aranges
                0x00001a50       0x20 d:/altera/13.0sp1/nios2eds/bin/gnu/h-i686-mingw32/bin/../lib/gcc/nios2-elf/4.1.2/../../../../nios2-elf/lib\libc.a(lib_a-calloc.o)
 .debug_aranges
                0x00001a70       0x20 d:/altera/13.0sp1/nios2eds/bin/gnu/h-i686-mingw32/bin/../lib/gcc/nios2-elf/4.1.2/../../../../nios2-elf/lib\libc.a(lib_a-malloc.o)
 .debug_aranges
                0x00001a90       0x20 d:/altera/13.0sp1/nios2eds/bin/gnu/h-i686-mingw32/bin/../lib/gcc/nios2-elf/4.1.2/../../../../nios2-elf/lib\libc.a(lib_a-memcmp.o)
 .debug_aranges
                0x00001ab0       0x20 d:/altera/13.0sp1/nios2eds/bin/gnu/h-i686-mingw32/bin/../lib/gcc/nios2-elf/4.1.2/../../../../nios2-elf/lib\libc.a(lib_a-sprintf.o)
 .debug_aranges
                0x00001ad0       0x20 d:/altera/13.0sp1/nios2eds/bin/gnu/h-i686-mingw32/bin/../lib/gcc/nios2-elf/4.1.2/../../../../nios2-elf/lib\libc.a(lib_a-strcpy.o)
 .debug_aranges
                0x00001af0       0x20 d:/altera/13.0sp1/nios2eds/bin/gnu/h-i686-mingw32/bin/../lib/gcc/nios2-elf/4.1.2/../../../../nios2-elf/lib\libc.a(lib_a-strncmp.o)
 .debug_aranges
                0x00001b10       0x20 d:/altera/13.0sp1/nios2eds/bin/gnu/h-i686-mingw32/bin/../lib/gcc/nios2-elf/4.1.2/../../../../nios2-elf/lib\libc.a(lib_a-strncpy.o)
 .debug_aranges
                0x00001b30       0x20 d:/altera/13.0sp1/nios2eds/bin/gnu/h-i686-mingw32/bin/../lib/gcc/nios2-elf/4.1.2/../../../../nios2-elf/lib\libc.a(lib_a-vprintf.o)
 .debug_aranges
                0x00001b50       0x20 d:/altera/13.0sp1/nios2eds/bin/gnu/h-i686-mingw32/bin/../lib/gcc/nios2-elf/4.1.2/../../../../nios2-elf/lib\libc.a(lib_a-vsprintf.o)
 .debug_aranges
                0x00001b70       0x20 d:/altera/13.0sp1/nios2eds/bin/gnu/h-i686-mingw32/bin/../lib/gcc/nios2-elf/4.1.2/../../../../nios2-elf/lib\libc.a(lib_a-__atexit.o)

.debug_pubnames
                0x00000000     0x55e8
 *(.debug_pubnames)
 .debug_pubnames
                0x00000000       0x68 obj/default/LCD.o
 .debug_pubnames
                0x00000068       0x7c obj/default/SSS_DE2_115.o
 .debug_pubnames
                0x000000e4       0x61 obj/default/alt_error_handler.o
 .debug_pubnames
                0x00000145      0x102 obj/default/dm9000a.o
 .debug_pubnames
                0x00000247       0x5f obj/default/iniche_init.o
 .debug_pubnames
                0x000002a6       0x54 obj/default/led.o
 .debug_pubnames
                0x000002fa       0xc9 obj/default/network_utilities.o
 .debug_pubnames
                0x000003c3      0x154 obj/default/simple_socket_server.o
 .debug_pubnames
                0x00000517       0x23 d:/altera/13.0sp1/nios2eds/bin/gnu/h-i686-mingw32/bin/../lib/gcc/nios2-elf/4.1.2\libgcc.a(_fixunsdfsi.o)
 .debug_pubnames
                0x0000053a       0x2c d:/altera/13.0sp1/nios2eds/bin/gnu/h-i686-mingw32/bin/../lib/gcc/nios2-elf/4.1.2\libgcc.a(_addsub_df.o)
 .debug_pubnames
                0x00000566       0x1f d:/altera/13.0sp1/nios2eds/bin/gnu/h-i686-mingw32/bin/../lib/gcc/nios2-elf/4.1.2\libgcc.a(_mul_df.o)
 .debug_pubnames
                0x00000585       0x1e d:/altera/13.0sp1/nios2eds/bin/gnu/h-i686-mingw32/bin/../lib/gcc/nios2-elf/4.1.2\libgcc.a(_ge_df.o)
 .debug_pubnames
                0x000005a3       0x20 d:/altera/13.0sp1/nios2eds/bin/gnu/h-i686-mingw32/bin/../lib/gcc/nios2-elf/4.1.2\libgcc.a(_df_to_si.o)
 .debug_pubnames
                0x000005c3       0x22 d:/altera/13.0sp1/nios2eds/bin/gnu/h-i686-mingw32/bin/../lib/gcc/nios2-elf/4.1.2\libgcc.a(_thenan_df.o)
 .debug_pubnames
                0x000005e5       0x24 d:/altera/13.0sp1/nios2eds/bin/gnu/h-i686-mingw32/bin/../lib/gcc/nios2-elf/4.1.2\libgcc.a(_usi_to_df.o)
 .debug_pubnames
                0x00000609       0x1f d:/altera/13.0sp1/nios2eds/bin/gnu/h-i686-mingw32/bin/../lib/gcc/nios2-elf/4.1.2\libgcc.a(_muldi3.o)
 .debug_pubnames
                0x00000628       0x1f d:/altera/13.0sp1/nios2eds/bin/gnu/h-i686-mingw32/bin/../lib/gcc/nios2-elf/4.1.2\libgcc.a(_clzsi2.o)
 .debug_pubnames
                0x00000647       0x1f d:/altera/13.0sp1/nios2eds/bin/gnu/h-i686-mingw32/bin/../lib/gcc/nios2-elf/4.1.2\libgcc.a(_pack_df.o)
 .debug_pubnames
                0x00000666       0x21 d:/altera/13.0sp1/nios2eds/bin/gnu/h-i686-mingw32/bin/../lib/gcc/nios2-elf/4.1.2\libgcc.a(_unpack_df.o)
 .debug_pubnames
                0x00000687       0x26 d:/altera/13.0sp1/nios2eds/bin/gnu/h-i686-mingw32/bin/../lib/gcc/nios2-elf/4.1.2\libgcc.a(_fpcmp_parts_df.o)
 .debug_pubnames
                0x000006ad       0x20 d:/altera/13.0sp1/nios2eds/bin/gnu/h-i686-mingw32/bin/../lib/gcc/nios2-elf/4.1.2\libgcc.a(_clz.o)
 .debug_pubnames
                0x000006cd       0x27 d:/altera/13.0sp1/nios2eds/bin/gnu/h-i686-mingw32/bin/../lib/gcc/nios2-elf/4.1.2/../../../../nios2-elf/lib\libc.a(lib_a-atoi.o)
 .debug_pubnames
                0x000006f4       0x2e d:/altera/13.0sp1/nios2eds/bin/gnu/h-i686-mingw32/bin/../lib/gcc/nios2-elf/4.1.2/../../../../nios2-elf/lib\libc.a(lib_a-ctype_.o)
 .debug_pubnames
                0x00000722       0x1e d:/altera/13.0sp1/nios2eds/bin/gnu/h-i686-mingw32/bin/../lib/gcc/nios2-elf/4.1.2/../../../../nios2-elf/lib\libc.a(lib_a-errno.o)
 .debug_pubnames
                0x00000740       0x1b d:/altera/13.0sp1/nios2eds/bin/gnu/h-i686-mingw32/bin/../lib/gcc/nios2-elf/4.1.2/../../../../nios2-elf/lib\libc.a(lib_a-exit.o)
 .debug_pubnames
                0x0000075b       0x2d d:/altera/13.0sp1/nios2eds/bin/gnu/h-i686-mingw32/bin/../lib/gcc/nios2-elf/4.1.2/../../../../nios2-elf/lib\libc.a(lib_a-fprintf.o)
 .debug_pubnames
                0x00000788       0x2b d:/altera/13.0sp1/nios2eds/bin/gnu/h-i686-mingw32/bin/../lib/gcc/nios2-elf/4.1.2/../../../../nios2-elf/lib\libc.a(lib_a-fwrite.o)
 .debug_pubnames
                0x000007b3       0x27 d:/altera/13.0sp1/nios2eds/bin/gnu/h-i686-mingw32/bin/../lib/gcc/nios2-elf/4.1.2/../../../../nios2-elf/lib\libc.a(lib_a-getc.o)
 .debug_pubnames
                0x000007da       0x39 d:/altera/13.0sp1/nios2eds/bin/gnu/h-i686-mingw32/bin/../lib/gcc/nios2-elf/4.1.2/../../../../nios2-elf/lib\libc.a(lib_a-impure.o)
 .debug_pubnames
                0x00000813       0x1d d:/altera/13.0sp1/nios2eds/bin/gnu/h-i686-mingw32/bin/../lib/gcc/nios2-elf/4.1.2/../../../../nios2-elf/lib\libc.a(lib_a-memcpy.o)
 .debug_pubnames
                0x00000830       0x1e d:/altera/13.0sp1/nios2eds/bin/gnu/h-i686-mingw32/bin/../lib/gcc/nios2-elf/4.1.2/../../../../nios2-elf/lib\libc.a(lib_a-memmove.o)
 .debug_pubnames
                0x0000084e       0x1d d:/altera/13.0sp1/nios2eds/bin/gnu/h-i686-mingw32/bin/../lib/gcc/nios2-elf/4.1.2/../../../../nios2-elf/lib\libc.a(lib_a-memset.o)
 .debug_pubnames
                0x0000086b       0x2b d:/altera/13.0sp1/nios2eds/bin/gnu/h-i686-mingw32/bin/../lib/gcc/nios2-elf/4.1.2/../../../../nios2-elf/lib\libc.a(lib_a-perror.o)
 .debug_pubnames
                0x00000896       0x2b d:/altera/13.0sp1/nios2eds/bin/gnu/h-i686-mingw32/bin/../lib/gcc/nios2-elf/4.1.2/../../../../nios2-elf/lib\libc.a(lib_a-printf.o)
 .debug_pubnames
                0x000008c1       0x27 d:/altera/13.0sp1/nios2eds/bin/gnu/h-i686-mingw32/bin/../lib/gcc/nios2-elf/4.1.2/../../../../nios2-elf/lib\libc.a(lib_a-putc.o)
 .debug_pubnames
                0x000008e8       0x2d d:/altera/13.0sp1/nios2eds/bin/gnu/h-i686-mingw32/bin/../lib/gcc/nios2-elf/4.1.2/../../../../nios2-elf/lib\libc.a(lib_a-putchar.o)
 .debug_pubnames
                0x00000915       0x27 d:/altera/13.0sp1/nios2eds/bin/gnu/h-i686-mingw32/bin/../lib/gcc/nios2-elf/4.1.2/../../../../nios2-elf/lib\libc.a(lib_a-puts.o)
 .debug_pubnames
                0x0000093c       0x2c d:/altera/13.0sp1/nios2eds/bin/gnu/h-i686-mingw32/bin/../lib/gcc/nios2-elf/4.1.2/../../../../nios2-elf/lib\libc.a(lib_a-rget.o)
 .debug_pubnames
                0x00000968       0x1d d:/altera/13.0sp1/nios2eds/bin/gnu/h-i686-mingw32/bin/../lib/gcc/nios2-elf/4.1.2/../../../../nios2-elf/lib\libc.a(lib_a-strchr.o)
 .debug_pubnames
                0x00000985       0x1d d:/altera/13.0sp1/nios2eds/bin/gnu/h-i686-mingw32/bin/../lib/gcc/nios2-elf/4.1.2/../../../../nios2-elf/lib\libc.a(lib_a-strcmp.o)
 .debug_pubnames
                0x000009a2       0x1f d:/altera/13.0sp1/nios2eds/bin/gnu/h-i686-mingw32/bin/../lib/gcc/nios2-elf/4.1.2/../../../../nios2-elf/lib\libc.a(lib_a-strerror.o)
 .debug_pubnames
                0x000009c1       0x1d d:/altera/13.0sp1/nios2eds/bin/gnu/h-i686-mingw32/bin/../lib/gcc/nios2-elf/4.1.2/../../../../nios2-elf/lib\libc.a(lib_a-strlen.o)
 .debug_pubnames
                0x000009de       0x2b d:/altera/13.0sp1/nios2eds/bin/gnu/h-i686-mingw32/bin/../lib/gcc/nios2-elf/4.1.2/../../../../nios2-elf/lib\libc.a(lib_a-strtol.o)
 .debug_pubnames
                0x00000a09       0x25 d:/altera/13.0sp1/nios2eds/bin/gnu/h-i686-mingw32/bin/../lib/gcc/nios2-elf/4.1.2/../../../../nios2-elf/lib\libc.a(lib_a-u_strerr.o)
 .debug_pubnames
                0x00000a2e       0x45 d:/altera/13.0sp1/nios2eds/bin/gnu/h-i686-mingw32/bin/../lib/gcc/nios2-elf/4.1.2/../../../../nios2-elf/lib\libc.a(lib_a-vfprintf.o)
 .debug_pubnames
                0x00000a73       0x2c d:/altera/13.0sp1/nios2eds/bin/gnu/h-i686-mingw32/bin/../lib/gcc/nios2-elf/4.1.2/../../../../nios2-elf/lib\libc.a(lib_a-wbuf.o)
 .debug_pubnames
                0x00000a9f       0x22 d:/altera/13.0sp1/nios2eds/bin/gnu/h-i686-mingw32/bin/../lib/gcc/nios2-elf/4.1.2/../../../../nios2-elf/lib\libc.a(lib_a-wsetup.o)
 .debug_pubnames
                0x00000ac1       0x27 d:/altera/13.0sp1/nios2eds/bin/gnu/h-i686-mingw32/bin/../lib/gcc/nios2-elf/4.1.2/../../../../nios2-elf/lib\libc.a(lib_a-__call_atexit.o)
 .debug_pubnames
                0x00000ae8       0x1e d:/altera/13.0sp1/nios2eds/bin/gnu/h-i686-mingw32/bin/../lib/gcc/nios2-elf/4.1.2/../../../../nios2-elf/lib\libc.a(lib_a-dtoa.o)
 .debug_pubnames
                0x00000b06       0x2b d:/altera/13.0sp1/nios2eds/bin/gnu/h-i686-mingw32/bin/../lib/gcc/nios2-elf/4.1.2/../../../../nios2-elf/lib\libc.a(lib_a-fflush.o)
 .debug_pubnames
                0x00000b31       0xdb d:/altera/13.0sp1/nios2eds/bin/gnu/h-i686-mingw32/bin/../lib/gcc/nios2-elf/4.1.2/../../../../nios2-elf/lib\libc.a(lib_a-findfp.o)
 .debug_pubnames
                0x00000c0c       0x29 d:/altera/13.0sp1/nios2eds/bin/gnu/h-i686-mingw32/bin/../lib/gcc/nios2-elf/4.1.2/../../../../nios2-elf/lib\libc.a(lib_a-fputc.o)
 .debug_pubnames
                0x00000c35       0x29 d:/altera/13.0sp1/nios2eds/bin/gnu/h-i686-mingw32/bin/../lib/gcc/nios2-elf/4.1.2/../../../../nios2-elf/lib\libc.a(lib_a-fputs.o)
 .debug_pubnames
                0x00000c5e       0x31 d:/altera/13.0sp1/nios2eds/bin/gnu/h-i686-mingw32/bin/../lib/gcc/nios2-elf/4.1.2/../../../../nios2-elf/lib\libc.a(lib_a-freer.o)
 .debug_pubnames
                0x00000c8f       0x23 d:/altera/13.0sp1/nios2eds/bin/gnu/h-i686-mingw32/bin/../lib/gcc/nios2-elf/4.1.2/../../../../nios2-elf/lib\libc.a(lib_a-fvwrite.o)
 .debug_pubnames
                0x00000cb2       0x2e d:/altera/13.0sp1/nios2eds/bin/gnu/h-i686-mingw32/bin/../lib/gcc/nios2-elf/4.1.2/../../../../nios2-elf/lib\libc.a(lib_a-fwalk.o)
 .debug_pubnames
                0x00000ce0       0xc3 d:/altera/13.0sp1/nios2eds/bin/gnu/h-i686-mingw32/bin/../lib/gcc/nios2-elf/4.1.2/../../../../nios2-elf/lib\libc.a(lib_a-locale.o)
 .debug_pubnames
                0x00000da3       0x23 d:/altera/13.0sp1/nios2eds/bin/gnu/h-i686-mingw32/bin/../lib/gcc/nios2-elf/4.1.2/../../../../nios2-elf/lib\libc.a(lib_a-makebuf.o)
 .debug_pubnames
                0x00000dc6       0xce d:/altera/13.0sp1/nios2eds/bin/gnu/h-i686-mingw32/bin/../lib/gcc/nios2-elf/4.1.2/../../../../nios2-elf/lib\libc.a(lib_a-mallocr.o)
 .debug_pubnames
                0x00000e94       0x1d d:/altera/13.0sp1/nios2eds/bin/gnu/h-i686-mingw32/bin/../lib/gcc/nios2-elf/4.1.2/../../../../nios2-elf/lib\libc.a(lib_a-memchr.o)
 .debug_pubnames
                0x00000eb1      0x13a d:/altera/13.0sp1/nios2eds/bin/gnu/h-i686-mingw32/bin/../lib/gcc/nios2-elf/4.1.2/../../../../nios2-elf/lib\libc.a(lib_a-mprec.o)
 .debug_pubnames
                0x00000feb       0x21 d:/altera/13.0sp1/nios2eds/bin/gnu/h-i686-mingw32/bin/../lib/gcc/nios2-elf/4.1.2/../../../../nios2-elf/lib\libc.a(lib_a-reallocr.o)
 .debug_pubnames
                0x0000100c       0x22 d:/altera/13.0sp1/nios2eds/bin/gnu/h-i686-mingw32/bin/../lib/gcc/nios2-elf/4.1.2/../../../../nios2-elf/lib\libc.a(lib_a-refill.o)
 .debug_pubnames
                0x0000102e       0x1f d:/altera/13.0sp1/nios2eds/bin/gnu/h-i686-mingw32/bin/../lib/gcc/nios2-elf/4.1.2/../../../../nios2-elf/lib\libc.a(lib_a-s_isinfd.o)
 .debug_pubnames
                0x0000104d       0x1f d:/altera/13.0sp1/nios2eds/bin/gnu/h-i686-mingw32/bin/../lib/gcc/nios2-elf/4.1.2/../../../../nios2-elf/lib\libc.a(lib_a-s_isnand.o)
 .debug_pubnames
                0x0000106c       0x1e d:/altera/13.0sp1/nios2eds/bin/gnu/h-i686-mingw32/bin/../lib/gcc/nios2-elf/4.1.2/../../../../nios2-elf/lib\libc.a(lib_a-sbrkr.o)
 .debug_pubnames
                0x0000108a       0x44 d:/altera/13.0sp1/nios2eds/bin/gnu/h-i686-mingw32/bin/../lib/gcc/nios2-elf/4.1.2/../../../../nios2-elf/lib\libc.a(lib_a-stdio.o)
 .debug_pubnames
                0x000010ce       0x1f d:/altera/13.0sp1/nios2eds/bin/gnu/h-i686-mingw32/bin/../lib/gcc/nios2-elf/4.1.2/../../../../nios2-elf/lib\libc.a(lib_a-writer.o)
 .debug_pubnames
                0x000010ed       0x20 d:/altera/13.0sp1/nios2eds/bin/gnu/h-i686-mingw32/bin/../lib/gcc/nios2-elf/4.1.2/../../../../nios2-elf/lib\libc.a(lib_a-callocr.o)
 .debug_pubnames
                0x0000110d       0x1f d:/altera/13.0sp1/nios2eds/bin/gnu/h-i686-mingw32/bin/../lib/gcc/nios2-elf/4.1.2/../../../../nios2-elf/lib\libc.a(lib_a-closer.o)
 .debug_pubnames
                0x0000112c       0x2b d:/altera/13.0sp1/nios2eds/bin/gnu/h-i686-mingw32/bin/../lib/gcc/nios2-elf/4.1.2/../../../../nios2-elf/lib\libc.a(lib_a-fclose.o)
 .debug_pubnames
                0x00001157       0x1f d:/altera/13.0sp1/nios2eds/bin/gnu/h-i686-mingw32/bin/../lib/gcc/nios2-elf/4.1.2/../../../../nios2-elf/lib\libc.a(lib_a-fstatr.o)
 .debug_pubnames
                0x00001176       0x1c d:/altera/13.0sp1/nios2eds/bin/gnu/h-i686-mingw32/bin/../lib/gcc/nios2-elf/4.1.2/../../../../nios2-elf/lib\libc.a(lib_a-int_errno.o)
 .debug_pubnames
                0x00001192       0x20 d:/altera/13.0sp1/nios2eds/bin/gnu/h-i686-mingw32/bin/../lib/gcc/nios2-elf/4.1.2/../../../../nios2-elf/lib\libc.a(lib_a-isattyr.o)
 .debug_pubnames
                0x000011b2       0x1f d:/altera/13.0sp1/nios2eds/bin/gnu/h-i686-mingw32/bin/../lib/gcc/nios2-elf/4.1.2/../../../../nios2-elf/lib\libc.a(lib_a-lseekr.o)
 .debug_pubnames
                0x000011d1       0x1e d:/altera/13.0sp1/nios2eds/bin/gnu/h-i686-mingw32/bin/../lib/gcc/nios2-elf/4.1.2/../../../../nios2-elf/lib\libc.a(lib_a-readr.o)
 .debug_pubnames
                0x000011ef       0x20 d:/altera/13.0sp1/nios2eds/bin/gnu/h-i686-mingw32/bin/../lib/gcc/nios2-elf/4.1.2\libgcc.a(_udivdi3.o)
 .debug_pubnames
                0x0000120f       0x20 d:/altera/13.0sp1/nios2eds/bin/gnu/h-i686-mingw32/bin/../lib/gcc/nios2-elf/4.1.2\libgcc.a(_umoddi3.o)
 .debug_pubnames
                0x0000122f       0x1f d:/altera/13.0sp1/nios2eds/bin/gnu/h-i686-mingw32/bin/../lib/gcc/nios2-elf/4.1.2\libgcc.a(_div_df.o)
 .debug_pubnames
                0x0000124e       0x1e d:/altera/13.0sp1/nios2eds/bin/gnu/h-i686-mingw32/bin/../lib/gcc/nios2-elf/4.1.2\libgcc.a(_eq_df.o)
 .debug_pubnames
                0x0000126c       0x1e d:/altera/13.0sp1/nios2eds/bin/gnu/h-i686-mingw32/bin/../lib/gcc/nios2-elf/4.1.2\libgcc.a(_ne_df.o)
 .debug_pubnames
                0x0000128a       0x1e d:/altera/13.0sp1/nios2eds/bin/gnu/h-i686-mingw32/bin/../lib/gcc/nios2-elf/4.1.2\libgcc.a(_gt_df.o)
 .debug_pubnames
                0x000012a8       0x1e d:/altera/13.0sp1/nios2eds/bin/gnu/h-i686-mingw32/bin/../lib/gcc/nios2-elf/4.1.2\libgcc.a(_lt_df.o)
 .debug_pubnames
                0x000012c6       0x22 d:/altera/13.0sp1/nios2eds/bin/gnu/h-i686-mingw32/bin/../lib/gcc/nios2-elf/4.1.2\libgcc.a(_si_to_df.o)
 .debug_pubnames
                0x000012e8       0x48 d:/altera/13.0sp1/nios2eds/bin/gnu/h-i686-mingw32/bin/../lib/gcc/nios2-elf/4.1.2\libgcc.a(lib2-divmod.o)
 .debug_pubnames
                0x00001330       0x1c ../lab7_bsp/\libucosii_bsp.a(alt_exit.o)
 .debug_pubnames
                0x0000134c       0x58 ../lab7_bsp/\libucosii_bsp.a(alt_flash_dev.o)
 .debug_pubnames
                0x000013a4       0x1c ../lab7_bsp/\libucosii_bsp.a(alt_fstat.o)
 .debug_pubnames
                0x000013c0       0x27 ../lab7_bsp/\libucosii_bsp.a(alt_irq_register.o)
 .debug_pubnames
                0x000013e7       0x3b ../lab7_bsp/\libucosii_bsp.a(alt_irq_vars.o)
 .debug_pubnames
                0x00001422       0x1d ../lab7_bsp/\libucosii_bsp.a(alt_isatty.o)
 .debug_pubnames
                0x0000143f       0x1c ../lab7_bsp/\libucosii_bsp.a(alt_lseek.o)
 .debug_pubnames
                0x0000145b       0x46 ../lab7_bsp/\libucosii_bsp.a(alt_main.o)
 .debug_pubnames
                0x000014a1       0x1b ../lab7_bsp/\libucosii_bsp.a(alt_sbrk.o)
 .debug_pubnames
                0x000014bc       0x1d ../lab7_bsp/\libucosii_bsp.a(alt_usleep.o)
 .debug_pubnames
                0x000014d9       0x41 ../lab7_bsp/\libucosii_bsp.a(alt_env_lock.o)
 .debug_pubnames
                0x0000151a       0x48 ../lab7_bsp/\libucosii_bsp.a(alt_malloc_lock.o)
 .debug_pubnames
                0x00001562      0x3f8 ../lab7_bsp/\libucosii_bsp.a(os_core.o)
 .debug_pubnames
                0x0000195a      0x3c5 ../lab7_bsp/\libucosii_bsp.a(os_dbg.o)
 .debug_pubnames
                0x00001d1f       0xd0 ../lab7_bsp/\libucosii_bsp.a(os_flag.o)
 .debug_pubnames
                0x00001def       0x7c ../lab7_bsp/\libucosii_bsp.a(os_mem.o)
 .debug_pubnames
                0x00001e6b       0xa9 ../lab7_bsp/\libucosii_bsp.a(os_q.o)
 .debug_pubnames
                0x00001f14       0x8a ../lab7_bsp/\libucosii_bsp.a(os_sem.o)
 .debug_pubnames
                0x00001f9e       0xe5 ../lab7_bsp/\libucosii_bsp.a(os_task.o)
 .debug_pubnames
                0x00002083       0x62 ../lab7_bsp/\libucosii_bsp.a(os_time.o)
 .debug_pubnames
                0x000020e5       0x34 ../lab7_bsp/\libucosii_bsp.a(alt_sys_init.o)
 .debug_pubnames
                0x00002119       0xac ../lab7_bsp/\libucosii_bsp.a(altera_avalon_cfi_flash.o)
 .debug_pubnames
                0x000021c5      0x27a ../lab7_bsp/\libucosii_bsp.a(altera_avalon_cfi_flash_table.o)
 .debug_pubnames
                0x0000243f       0xb5 ../lab7_bsp/\libucosii_bsp.a(altera_avalon_epcs_flash_controller.o)
 .debug_pubnames
                0x000024f4       0xa5 ../lab7_bsp/\libucosii_bsp.a(altera_avalon_jtag_uart_fd.o)
 .debug_pubnames
                0x00002599       0x55 ../lab7_bsp/\libucosii_bsp.a(altera_avalon_jtag_uart_init.o)
 .debug_pubnames
                0x000025ee       0x34 ../lab7_bsp/\libucosii_bsp.a(altera_avalon_jtag_uart_ioctl.o)
 .debug_pubnames
                0x00002622       0x33 ../lab7_bsp/\libucosii_bsp.a(altera_avalon_jtag_uart_read.o)
 .debug_pubnames
                0x00002655       0x34 ../lab7_bsp/\libucosii_bsp.a(altera_avalon_jtag_uart_write.o)
 .debug_pubnames
                0x00002689       0x55 ../lab7_bsp/\libucosii_bsp.a(altera_avalon_lcd_16207.o)
 .debug_pubnames
                0x000026de       0x37 ../lab7_bsp/\libucosii_bsp.a(altera_avalon_lcd_16207_fd.o)
 .debug_pubnames
                0x00002715       0x2f ../lab7_bsp/\libucosii_bsp.a(altera_avalon_timer_sc.o)
 .debug_pubnames
                0x00002744       0x71 ../lab7_bsp/\libucosii_bsp.a(altera_avalon_uart_fd.o)
 .debug_pubnames
                0x000027b5       0x4b ../lab7_bsp/\libucosii_bsp.a(altera_avalon_uart_init.o)
 .debug_pubnames
                0x00002800       0x2e ../lab7_bsp/\libucosii_bsp.a(altera_avalon_uart_read.o)
 .debug_pubnames
                0x0000282e       0x2f ../lab7_bsp/\libucosii_bsp.a(altera_avalon_uart_write.o)
 .debug_pubnames
                0x0000285d      0x118 ../lab7_bsp/\libucosii_bsp.a(epcs_commands.o)
 .debug_pubnames
                0x00002975       0x1c ../lab7_bsp/\libucosii_bsp.a(alt_iniche_close.o)
 .debug_pubnames
                0x00002991       0x42 ../lab7_bsp/\libucosii_bsp.a(alt_iniche_dev.o)
 .debug_pubnames
                0x000029d3       0x1b ../lab7_bsp/\libucosii_bsp.a(alt_iniche_read.o)
 .debug_pubnames
                0x000029ee       0x1c ../lab7_bsp/\libucosii_bsp.a(alt_iniche_write.o)
 .debug_pubnames
                0x00002a0a       0x90 ../lab7_bsp/\libucosii_bsp.a(ipnet.o)
 .debug_pubnames
                0x00002a9a       0x81 ../lab7_bsp/\libucosii_bsp.a(ipstart.o)
 .debug_pubnames
                0x00002b1b      0x108 ../lab7_bsp/\libucosii_bsp.a(igmp_cmn.o)
 .debug_pubnames
                0x00002c23       0xc4 ../lab7_bsp/\libucosii_bsp.a(bsdsock.o)
 .debug_pubnames
                0x00002ce7       0x27 ../lab7_bsp/\libucosii_bsp.a(cksum.o)
 .debug_pubnames
                0x00002d0e       0xcc ../lab7_bsp/\libucosii_bsp.a(in_utils.o)
 .debug_pubnames
                0x00002dda       0xb2 ../lab7_bsp/\libucosii_bsp.a(netmain.o)
 .debug_pubnames
                0x00002e8c       0xa6 ../lab7_bsp/\libucosii_bsp.a(parseip.o)
 .debug_pubnames
                0x00002f32       0x97 ../lab7_bsp/\libucosii_bsp.a(tk_crnos.o)
 .debug_pubnames
                0x00002fc9      0x252 ../lab7_bsp/\libucosii_bsp.a(dhcpclnt.o)
 .debug_pubnames
                0x0000321b       0x1f ../lab7_bsp/\libucosii_bsp.a(dhcputil.o)
 .debug_pubnames
                0x0000323a       0xe2 ../lab7_bsp/\libucosii_bsp.a(pktalloc.o)
 .debug_pubnames
                0x0000331c       0x2d ../lab7_bsp/\libucosii_bsp.a(q.o)
 .debug_pubnames
                0x00003349       0x3a ../lab7_bsp/\libucosii_bsp.a(udp_open.o)
 .debug_pubnames
                0x00003383       0xc5 ../lab7_bsp/\libucosii_bsp.a(brdutils.o)
 .debug_pubnames
                0x00003448      0x10c ../lab7_bsp/\libucosii_bsp.a(osportco.o)
 .debug_pubnames
                0x00003554       0xf5 ../lab7_bsp/\libucosii_bsp.a(targnios.o)
 .debug_pubnames
                0x00003649      0x190 ../lab7_bsp/\libucosii_bsp.a(nptcp.o)
 .debug_pubnames
                0x000037d9       0x46 ../lab7_bsp/\libucosii_bsp.a(rawsock.o)
 .debug_pubnames
                0x0000381f      0x108 ../lab7_bsp/\libucosii_bsp.a(sockcall.o)
 .debug_pubnames
                0x00003927       0xfc ../lab7_bsp/\libucosii_bsp.a(socket.o)
 .debug_pubnames
                0x00003a23      0x178 ../lab7_bsp/\libucosii_bsp.a(socket2.o)
 .debug_pubnames
                0x00003b9b       0x92 ../lab7_bsp/\libucosii_bsp.a(soselect.o)
 .debug_pubnames
                0x00003c2d       0xc2 ../lab7_bsp/\libucosii_bsp.a(tcp_in.o)
 .debug_pubnames
                0x00003cef       0x57 ../lab7_bsp/\libucosii_bsp.a(tcp_out.o)
 .debug_pubnames
                0x00003d46       0xb9 ../lab7_bsp/\libucosii_bsp.a(tcp_subr.o)
 .debug_pubnames
                0x00003dff       0x96 ../lab7_bsp/\libucosii_bsp.a(tcp_timr.o)
 .debug_pubnames
                0x00003e95       0x79 ../lab7_bsp/\libucosii_bsp.a(tcp_usr.o)
 .debug_pubnames
                0x00003f0e       0x1e ../lab7_bsp/\libucosii_bsp.a(tcpport.o)
 .debug_pubnames
                0x00003f2c       0x76 ../lab7_bsp/\libucosii_bsp.a(udpsock.o)
 .debug_pubnames
                0x00003fa2       0x26 ../lab7_bsp/\libucosii_bsp.a(alt_alarm_start.o)
 .debug_pubnames
                0x00003fc8       0x25 ../lab7_bsp/\libucosii_bsp.a(alt_busy_sleep.o)
 .debug_pubnames
                0x00003fed       0x20 ../lab7_bsp/\libucosii_bsp.a(alt_close.o)
 .debug_pubnames
                0x0000400d       0x27 ../lab7_bsp/\libucosii_bsp.a(alt_dcache_flush.o)
 .debug_pubnames
                0x00004034       0x78 ../lab7_bsp/\libucosii_bsp.a(alt_dev.o)
 .debug_pubnames
                0x000040ac       0x2b ../lab7_bsp/\libucosii_bsp.a(alt_dev_llist_insert.o)
 .debug_pubnames
                0x000040d7       0x20 ../lab7_bsp/\libucosii_bsp.a(alt_do_ctors.o)
 .debug_pubnames
                0x000040f7       0x20 ../lab7_bsp/\libucosii_bsp.a(alt_do_dtors.o)
 .debug_pubnames
                0x00004117       0x20 ../lab7_bsp/\libucosii_bsp.a(alt_errno.o)
 .debug_pubnames
                0x00004137       0x23 ../lab7_bsp/\libucosii_bsp.a(alt_find_dev.o)
 .debug_pubnames
                0x0000415a       0x6e ../lab7_bsp/\libucosii_bsp.a(alt_iic.o)
 .debug_pubnames
                0x000041c8       0x2b ../lab7_bsp/\libucosii_bsp.a(alt_iic_isr_register.o)
 .debug_pubnames
                0x000041f3       0x26 ../lab7_bsp/\libucosii_bsp.a(alt_io_redirect.o)
 .debug_pubnames
                0x00004219       0x32 ../lab7_bsp/\libucosii_bsp.a(alt_irq_handler.o)
 .debug_pubnames
                0x0000424b       0x1b ../lab7_bsp/\libucosii_bsp.a(alt_open.o)
 .debug_pubnames
                0x00004266       0x1f ../lab7_bsp/\libucosii_bsp.a(alt_read.o)
 .debug_pubnames
                0x00004285       0x25 ../lab7_bsp/\libucosii_bsp.a(alt_release_fd.o)
 .debug_pubnames
                0x000042aa       0x27 ../lab7_bsp/\libucosii_bsp.a(alt_remap_cached.o)
 .debug_pubnames
                0x000042d1       0x29 ../lab7_bsp/\libucosii_bsp.a(alt_remap_uncached.o)
 .debug_pubnames
                0x000042fa       0x68 ../lab7_bsp/\libucosii_bsp.a(alt_tick.o)
 .debug_pubnames
                0x00004362       0x20 ../lab7_bsp/\libucosii_bsp.a(alt_write.o)
 .debug_pubnames
                0x00004382       0x31 ../lab7_bsp/\libucosii_bsp.a(altera_nios2_qsys_irq.o)
 .debug_pubnames
                0x000043b3       0xcd ../lab7_bsp/\libucosii_bsp.a(os_cpu_c.o)
 .debug_pubnames
                0x00004480       0x3e ../lab7_bsp/\libucosii_bsp.a(altera_avalon_cfi_flash_amd.o)
 .debug_pubnames
                0x000044be       0x42 ../lab7_bsp/\libucosii_bsp.a(altera_avalon_cfi_flash_intel.o)
 .debug_pubnames
                0x00004500       0x2d ../lab7_bsp/\libucosii_bsp.a(altera_avalon_spi.o)
 .debug_pubnames
                0x0000452d       0xd4 ../lab7_bsp/\libucosii_bsp.a(allports.o)
 .debug_pubnames
                0x00004601       0x6f ../lab7_bsp/\libucosii_bsp.a(timeouts.o)
 .debug_pubnames
                0x00004670       0x35 ../lab7_bsp/\libucosii_bsp.a(tk_misc.o)
 .debug_pubnames
                0x000046a5       0x1c ../lab7_bsp/\libucosii_bsp.a(alt_iniche_fcntl.o)
 .debug_pubnames
                0x000046c1      0x134 ../lab7_bsp/\libucosii_bsp.a(et_arp.o)
 .debug_pubnames
                0x000047f5       0x58 ../lab7_bsp/\libucosii_bsp.a(iface.o)
 .debug_pubnames
                0x0000484d       0xea ../lab7_bsp/\libucosii_bsp.a(ip.o)
 .debug_pubnames
                0x00004937      0x22e ../lab7_bsp/\libucosii_bsp.a(ip_reasm.o)
 .debug_pubnames
                0x00004b65       0x3c ../lab7_bsp/\libucosii_bsp.a(ipdemux.o)
 .debug_pubnames
                0x00004ba1       0x43 ../lab7_bsp/\libucosii_bsp.a(ipmc.o)
 .debug_pubnames
                0x00004be4       0x99 ../lab7_bsp/\libucosii_bsp.a(ipport.o)
 .debug_pubnames
                0x00004c7d       0x87 ../lab7_bsp/\libucosii_bsp.a(ipraw.o)
 .debug_pubnames
                0x00004d04       0x5d ../lab7_bsp/\libucosii_bsp.a(iproute.o)
 .debug_pubnames
                0x00004d61       0x7f ../lab7_bsp/\libucosii_bsp.a(udp.o)
 .debug_pubnames
                0x00004de0       0x23 ../lab7_bsp/\libucosii_bsp.a(igmp.o)
 .debug_pubnames
                0x00004e03       0x8d ../lab7_bsp/\libucosii_bsp.a(igmp2.o)
 .debug_pubnames
                0x00004e90       0x5f ../lab7_bsp/\libucosii_bsp.a(ipopt.o)
 .debug_pubnames
                0x00004eef       0x35 ../lab7_bsp/\libucosii_bsp.a(u_mctest.o)
 .debug_pubnames
                0x00004f24       0x33 ../lab7_bsp/\libucosii_bsp.a(dhcsetup.o)
 .debug_pubnames
                0x00004f57       0xb1 ../lab7_bsp/\libucosii_bsp.a(memdev.o)
 .debug_pubnames
                0x00005008       0x20 ../lab7_bsp/\libucosii_bsp.a(tcpcksum.o)
 .debug_pubnames
                0x00005028       0xc8 ../lab7_bsp/\libucosii_bsp.a(in_pcb.o)
 .debug_pubnames
                0x000050f0      0x278 ../lab7_bsp/\libucosii_bsp.a(vfsfiles.o)
 .debug_pubnames
                0x00005368       0x1f ../lab7_bsp/\libucosii_bsp.a(vfsport.o)
 .debug_pubnames
                0x00005387       0x20 ../lab7_bsp/\libucosii_bsp.a(alt_fcntl.o)
 .debug_pubnames
                0x000053a7       0x24 ../lab7_bsp/\libucosii_bsp.a(alt_find_file.o)
 .debug_pubnames
                0x000053cb       0x21 ../lab7_bsp/\libucosii_bsp.a(alt_get_fd.o)
 .debug_pubnames
                0x000053ec       0x66 ../lab7_bsp/\libucosii_bsp.a(icmp.o)
 .debug_pubnames
                0x00005452       0x2a d:/altera/13.0sp1/nios2eds/bin/gnu/h-i686-mingw32/bin/../lib/gcc/nios2-elf/4.1.2/../../../../nios2-elf/lib\libc.a(lib_a-atexit.o)
 .debug_pubnames
                0x0000547c       0x1d d:/altera/13.0sp1/nios2eds/bin/gnu/h-i686-mingw32/bin/../lib/gcc/nios2-elf/4.1.2/../../../../nios2-elf/lib\libc.a(lib_a-calloc.o)
 .debug_pubnames
                0x00005499       0x26 d:/altera/13.0sp1/nios2eds/bin/gnu/h-i686-mingw32/bin/../lib/gcc/nios2-elf/4.1.2/../../../../nios2-elf/lib\libc.a(lib_a-malloc.o)
 .debug_pubnames
                0x000054bf       0x1d d:/altera/13.0sp1/nios2eds/bin/gnu/h-i686-mingw32/bin/../lib/gcc/nios2-elf/4.1.2/../../../../nios2-elf/lib\libc.a(lib_a-memcmp.o)
 .debug_pubnames
                0x000054dc       0x2d d:/altera/13.0sp1/nios2eds/bin/gnu/h-i686-mingw32/bin/../lib/gcc/nios2-elf/4.1.2/../../../../nios2-elf/lib\libc.a(lib_a-sprintf.o)
 .debug_pubnames
                0x00005509       0x1d d:/altera/13.0sp1/nios2eds/bin/gnu/h-i686-mingw32/bin/../lib/gcc/nios2-elf/4.1.2/../../../../nios2-elf/lib\libc.a(lib_a-strcpy.o)
 .debug_pubnames
                0x00005526       0x1e d:/altera/13.0sp1/nios2eds/bin/gnu/h-i686-mingw32/bin/../lib/gcc/nios2-elf/4.1.2/../../../../nios2-elf/lib\libc.a(lib_a-strncmp.o)
 .debug_pubnames
                0x00005544       0x1e d:/altera/13.0sp1/nios2eds/bin/gnu/h-i686-mingw32/bin/../lib/gcc/nios2-elf/4.1.2/../../../../nios2-elf/lib\libc.a(lib_a-strncpy.o)
 .debug_pubnames
                0x00005562       0x2d d:/altera/13.0sp1/nios2eds/bin/gnu/h-i686-mingw32/bin/../lib/gcc/nios2-elf/4.1.2/../../../../nios2-elf/lib\libc.a(lib_a-vprintf.o)
 .debug_pubnames
                0x0000558f       0x2f d:/altera/13.0sp1/nios2eds/bin/gnu/h-i686-mingw32/bin/../lib/gcc/nios2-elf/4.1.2/../../../../nios2-elf/lib\libc.a(lib_a-vsprintf.o)
 .debug_pubnames
                0x000055be       0x2a d:/altera/13.0sp1/nios2eds/bin/gnu/h-i686-mingw32/bin/../lib/gcc/nios2-elf/4.1.2/../../../../nios2-elf/lib\libc.a(lib_a-__atexit.o)

.debug_info     0x00000000    0x7cf52
 *(.debug_info .gnu.linkonce.wi.*)
 .debug_info    0x00000000       0x5a ../lab7_bsp//obj/HAL/src/crt0.o
 .debug_info    0x0000005a      0x20b obj/default/LCD.o
 .debug_info    0x00000265      0x704 obj/default/SSS_DE2_115.o
 .debug_info    0x00000969      0xd4b obj/default/alt_error_handler.o
 .debug_info    0x000016b4     0x1238 obj/default/dm9000a.o
 .debug_info    0x000028ec      0xeba obj/default/iniche_init.o
 .debug_info    0x000037a6      0x451 obj/default/led.o
 .debug_info    0x00003bf7     0x1b78 obj/default/network_utilities.o
 .debug_info    0x0000576f      0x9af obj/default/simple_socket_server.o
 .debug_info    0x0000611e        0x0 obj/default/tse_my_system.o
 .debug_info    0x0000611e       0xce d:/altera/13.0sp1/nios2eds/bin/gnu/h-i686-mingw32/bin/../lib/gcc/nios2-elf/4.1.2\libgcc.a(_fixunsdfsi.o)
 .debug_info    0x000061ec      0x493 d:/altera/13.0sp1/nios2eds/bin/gnu/h-i686-mingw32/bin/../lib/gcc/nios2-elf/4.1.2\libgcc.a(_addsub_df.o)
 .debug_info    0x0000667f      0x488 d:/altera/13.0sp1/nios2eds/bin/gnu/h-i686-mingw32/bin/../lib/gcc/nios2-elf/4.1.2\libgcc.a(_mul_df.o)
 .debug_info    0x00006b07      0x29d d:/altera/13.0sp1/nios2eds/bin/gnu/h-i686-mingw32/bin/../lib/gcc/nios2-elf/4.1.2\libgcc.a(_ge_df.o)
 .debug_info    0x00006da4      0x2cd d:/altera/13.0sp1/nios2eds/bin/gnu/h-i686-mingw32/bin/../lib/gcc/nios2-elf/4.1.2\libgcc.a(_df_to_si.o)
 .debug_info    0x00007071      0x164 d:/altera/13.0sp1/nios2eds/bin/gnu/h-i686-mingw32/bin/../lib/gcc/nios2-elf/4.1.2\libgcc.a(_thenan_df.o)
 .debug_info    0x000071d5      0x213 d:/altera/13.0sp1/nios2eds/bin/gnu/h-i686-mingw32/bin/../lib/gcc/nios2-elf/4.1.2\libgcc.a(_usi_to_df.o)
 .debug_info    0x000073e8      0x215 d:/altera/13.0sp1/nios2eds/bin/gnu/h-i686-mingw32/bin/../lib/gcc/nios2-elf/4.1.2\libgcc.a(_muldi3.o)
 .debug_info    0x000075fd      0x130 d:/altera/13.0sp1/nios2eds/bin/gnu/h-i686-mingw32/bin/../lib/gcc/nios2-elf/4.1.2\libgcc.a(_clzsi2.o)
 .debug_info    0x0000772d      0x2fc d:/altera/13.0sp1/nios2eds/bin/gnu/h-i686-mingw32/bin/../lib/gcc/nios2-elf/4.1.2\libgcc.a(_pack_df.o)
 .debug_info    0x00007a29      0x268 d:/altera/13.0sp1/nios2eds/bin/gnu/h-i686-mingw32/bin/../lib/gcc/nios2-elf/4.1.2\libgcc.a(_unpack_df.o)
 .debug_info    0x00007c91      0x21b d:/altera/13.0sp1/nios2eds/bin/gnu/h-i686-mingw32/bin/../lib/gcc/nios2-elf/4.1.2\libgcc.a(_fpcmp_parts_df.o)
 .debug_info    0x00007eac       0xc9 d:/altera/13.0sp1/nios2eds/bin/gnu/h-i686-mingw32/bin/../lib/gcc/nios2-elf/4.1.2\libgcc.a(_clz.o)
 .debug_info    0x00007f75      0x960 d:/altera/13.0sp1/nios2eds/bin/gnu/h-i686-mingw32/bin/../lib/gcc/nios2-elf/4.1.2/../../../../nios2-elf/lib\libc.a(lib_a-atoi.o)
 .debug_info    0x000088d5       0xa0 d:/altera/13.0sp1/nios2eds/bin/gnu/h-i686-mingw32/bin/../lib/gcc/nios2-elf/4.1.2/../../../../nios2-elf/lib\libc.a(lib_a-ctype_.o)
 .debug_info    0x00008975      0x92e d:/altera/13.0sp1/nios2eds/bin/gnu/h-i686-mingw32/bin/../lib/gcc/nios2-elf/4.1.2/../../../../nios2-elf/lib\libc.a(lib_a-errno.o)
 .debug_info    0x000092a3      0x93f d:/altera/13.0sp1/nios2eds/bin/gnu/h-i686-mingw32/bin/../lib/gcc/nios2-elf/4.1.2/../../../../nios2-elf/lib\libc.a(lib_a-exit.o)
 .debug_info    0x00009be2      0x9e1 d:/altera/13.0sp1/nios2eds/bin/gnu/h-i686-mingw32/bin/../lib/gcc/nios2-elf/4.1.2/../../../../nios2-elf/lib\libc.a(lib_a-fprintf.o)
 .debug_info    0x0000a5c3      0xa83 d:/altera/13.0sp1/nios2eds/bin/gnu/h-i686-mingw32/bin/../lib/gcc/nios2-elf/4.1.2/../../../../nios2-elf/lib\libc.a(lib_a-fwrite.o)
 .debug_info    0x0000b046      0x9a7 d:/altera/13.0sp1/nios2eds/bin/gnu/h-i686-mingw32/bin/../lib/gcc/nios2-elf/4.1.2/../../../../nios2-elf/lib\libc.a(lib_a-getc.o)
 .debug_info    0x0000b9ed      0x93d d:/altera/13.0sp1/nios2eds/bin/gnu/h-i686-mingw32/bin/../lib/gcc/nios2-elf/4.1.2/../../../../nios2-elf/lib\libc.a(lib_a-impure.o)
 .debug_info    0x0000c32a      0x106 d:/altera/13.0sp1/nios2eds/bin/gnu/h-i686-mingw32/bin/../lib/gcc/nios2-elf/4.1.2/../../../../nios2-elf/lib\libc.a(lib_a-memcpy.o)
 .debug_info    0x0000c430      0x13e d:/altera/13.0sp1/nios2eds/bin/gnu/h-i686-mingw32/bin/../lib/gcc/nios2-elf/4.1.2/../../../../nios2-elf/lib\libc.a(lib_a-memmove.o)
 .debug_info    0x0000c56e      0x113 d:/altera/13.0sp1/nios2eds/bin/gnu/h-i686-mingw32/bin/../lib/gcc/nios2-elf/4.1.2/../../../../nios2-elf/lib\libc.a(lib_a-memset.o)
 .debug_info    0x0000c681      0x97b d:/altera/13.0sp1/nios2eds/bin/gnu/h-i686-mingw32/bin/../lib/gcc/nios2-elf/4.1.2/../../../../nios2-elf/lib\libc.a(lib_a-perror.o)
 .debug_info    0x0000cffc      0x9d1 d:/altera/13.0sp1/nios2eds/bin/gnu/h-i686-mingw32/bin/../lib/gcc/nios2-elf/4.1.2/../../../../nios2-elf/lib\libc.a(lib_a-printf.o)
 .debug_info    0x0000d9cd      0x9c1 d:/altera/13.0sp1/nios2eds/bin/gnu/h-i686-mingw32/bin/../lib/gcc/nios2-elf/4.1.2/../../../../nios2-elf/lib\libc.a(lib_a-putc.o)
 .debug_info    0x0000e38e      0x972 d:/altera/13.0sp1/nios2eds/bin/gnu/h-i686-mingw32/bin/../lib/gcc/nios2-elf/4.1.2/../../../../nios2-elf/lib\libc.a(lib_a-putchar.o)
 .debug_info    0x0000ed00      0xa25 d:/altera/13.0sp1/nios2eds/bin/gnu/h-i686-mingw32/bin/../lib/gcc/nios2-elf/4.1.2/../../../../nios2-elf/lib\libc.a(lib_a-puts.o)
 .debug_info    0x0000f725      0x987 d:/altera/13.0sp1/nios2eds/bin/gnu/h-i686-mingw32/bin/../lib/gcc/nios2-elf/4.1.2/../../../../nios2-elf/lib\libc.a(lib_a-rget.o)
 .debug_info    0x000100ac      0x118 d:/altera/13.0sp1/nios2eds/bin/gnu/h-i686-mingw32/bin/../lib/gcc/nios2-elf/4.1.2/../../../../nios2-elf/lib\libc.a(lib_a-strchr.o)
 .debug_info    0x000101c4       0xdd d:/altera/13.0sp1/nios2eds/bin/gnu/h-i686-mingw32/bin/../lib/gcc/nios2-elf/4.1.2/../../../../nios2-elf/lib\libc.a(lib_a-strcmp.o)
 .debug_info    0x000102a1       0xbb d:/altera/13.0sp1/nios2eds/bin/gnu/h-i686-mingw32/bin/../lib/gcc/nios2-elf/4.1.2/../../../../nios2-elf/lib\libc.a(lib_a-strerror.o)
 .debug_info    0x0001035c       0xdb d:/altera/13.0sp1/nios2eds/bin/gnu/h-i686-mingw32/bin/../lib/gcc/nios2-elf/4.1.2/../../../../nios2-elf/lib\libc.a(lib_a-strlen.o)
 .debug_info    0x00010437      0xa2a d:/altera/13.0sp1/nios2eds/bin/gnu/h-i686-mingw32/bin/../lib/gcc/nios2-elf/4.1.2/../../../../nios2-elf/lib\libc.a(lib_a-strtol.o)
 .debug_info    0x00010e61       0x63 d:/altera/13.0sp1/nios2eds/bin/gnu/h-i686-mingw32/bin/../lib/gcc/nios2-elf/4.1.2/../../../../nios2-elf/lib\libc.a(lib_a-u_strerr.o)
 .debug_info    0x00010ec4     0x10d5 d:/altera/13.0sp1/nios2eds/bin/gnu/h-i686-mingw32/bin/../lib/gcc/nios2-elf/4.1.2/../../../../nios2-elf/lib\libc.a(lib_a-vfprintf.o)
 .debug_info    0x00011f99      0x9ae d:/altera/13.0sp1/nios2eds/bin/gnu/h-i686-mingw32/bin/../lib/gcc/nios2-elf/4.1.2/../../../../nios2-elf/lib\libc.a(lib_a-wbuf.o)
 .debug_info    0x00012947      0x95d d:/altera/13.0sp1/nios2eds/bin/gnu/h-i686-mingw32/bin/../lib/gcc/nios2-elf/4.1.2/../../../../nios2-elf/lib\libc.a(lib_a-wsetup.o)
 .debug_info    0x000132a4      0x9e2 d:/altera/13.0sp1/nios2eds/bin/gnu/h-i686-mingw32/bin/../lib/gcc/nios2-elf/4.1.2/../../../../nios2-elf/lib\libc.a(lib_a-__call_atexit.o)
 .debug_info    0x00013c86      0xd6f d:/altera/13.0sp1/nios2eds/bin/gnu/h-i686-mingw32/bin/../lib/gcc/nios2-elf/4.1.2/../../../../nios2-elf/lib\libc.a(lib_a-dtoa.o)
 .debug_info    0x000149f5      0x9fe d:/altera/13.0sp1/nios2eds/bin/gnu/h-i686-mingw32/bin/../lib/gcc/nios2-elf/4.1.2/../../../../nios2-elf/lib\libc.a(lib_a-fflush.o)
 .debug_info    0x000153f3      0xb72 d:/altera/13.0sp1/nios2eds/bin/gnu/h-i686-mingw32/bin/../lib/gcc/nios2-elf/4.1.2/../../../../nios2-elf/lib\libc.a(lib_a-findfp.o)
 .debug_info    0x00015f65      0x9bd d:/altera/13.0sp1/nios2eds/bin/gnu/h-i686-mingw32/bin/../lib/gcc/nios2-elf/4.1.2/../../../../nios2-elf/lib\libc.a(lib_a-fputc.o)
 .debug_info    0x00016922      0xa40 d:/altera/13.0sp1/nios2eds/bin/gnu/h-i686-mingw32/bin/../lib/gcc/nios2-elf/4.1.2/../../../../nios2-elf/lib\libc.a(lib_a-fputs.o)
 .debug_info    0x00017362      0xbc9 d:/altera/13.0sp1/nios2eds/bin/gnu/h-i686-mingw32/bin/../lib/gcc/nios2-elf/4.1.2/../../../../nios2-elf/lib\libc.a(lib_a-freer.o)
 .debug_info    0x00017f2b      0xa88 d:/altera/13.0sp1/nios2eds/bin/gnu/h-i686-mingw32/bin/../lib/gcc/nios2-elf/4.1.2/../../../../nios2-elf/lib\libc.a(lib_a-fvwrite.o)
 .debug_info    0x000189b3      0xaed d:/altera/13.0sp1/nios2eds/bin/gnu/h-i686-mingw32/bin/../lib/gcc/nios2-elf/4.1.2/../../../../nios2-elf/lib\libc.a(lib_a-fwalk.o)
 .debug_info    0x000194a0      0xb97 d:/altera/13.0sp1/nios2eds/bin/gnu/h-i686-mingw32/bin/../lib/gcc/nios2-elf/4.1.2/../../../../nios2-elf/lib\libc.a(lib_a-locale.o)
 .debug_info    0x0001a037      0xb1a d:/altera/13.0sp1/nios2eds/bin/gnu/h-i686-mingw32/bin/../lib/gcc/nios2-elf/4.1.2/../../../../nios2-elf/lib\libc.a(lib_a-makebuf.o)
 .debug_info    0x0001ab51      0xcd0 d:/altera/13.0sp1/nios2eds/bin/gnu/h-i686-mingw32/bin/../lib/gcc/nios2-elf/4.1.2/../../../../nios2-elf/lib\libc.a(lib_a-mallocr.o)
 .debug_info    0x0001b821      0x138 d:/altera/13.0sp1/nios2eds/bin/gnu/h-i686-mingw32/bin/../lib/gcc/nios2-elf/4.1.2/../../../../nios2-elf/lib\libc.a(lib_a-memchr.o)
 .debug_info    0x0001b959     0x1437 d:/altera/13.0sp1/nios2eds/bin/gnu/h-i686-mingw32/bin/../lib/gcc/nios2-elf/4.1.2/../../../../nios2-elf/lib\libc.a(lib_a-mprec.o)
 .debug_info    0x0001cd90      0xbd7 d:/altera/13.0sp1/nios2eds/bin/gnu/h-i686-mingw32/bin/../lib/gcc/nios2-elf/4.1.2/../../../../nios2-elf/lib\libc.a(lib_a-reallocr.o)
 .debug_info    0x0001d967      0x98b d:/altera/13.0sp1/nios2eds/bin/gnu/h-i686-mingw32/bin/../lib/gcc/nios2-elf/4.1.2/../../../../nios2-elf/lib\libc.a(lib_a-refill.o)
 .debug_info    0x0001e2f2       0xd7 d:/altera/13.0sp1/nios2eds/bin/gnu/h-i686-mingw32/bin/../lib/gcc/nios2-elf/4.1.2/../../../../nios2-elf/lib\libc.a(lib_a-s_isinfd.o)
 .debug_info    0x0001e3c9       0xd5 d:/altera/13.0sp1/nios2eds/bin/gnu/h-i686-mingw32/bin/../lib/gcc/nios2-elf/4.1.2/../../../../nios2-elf/lib\libc.a(lib_a-s_isnand.o)
 .debug_info    0x0001e49e      0x962 d:/altera/13.0sp1/nios2eds/bin/gnu/h-i686-mingw32/bin/../lib/gcc/nios2-elf/4.1.2/../../../../nios2-elf/lib\libc.a(lib_a-sbrkr.o)
 .debug_info    0x0001ee00      0xaac d:/altera/13.0sp1/nios2eds/bin/gnu/h-i686-mingw32/bin/../lib/gcc/nios2-elf/4.1.2/../../../../nios2-elf/lib\libc.a(lib_a-stdio.o)
 .debug_info    0x0001f8ac      0x993 d:/altera/13.0sp1/nios2eds/bin/gnu/h-i686-mingw32/bin/../lib/gcc/nios2-elf/4.1.2/../../../../nios2-elf/lib\libc.a(lib_a-writer.o)
 .debug_info    0x0002023f      0xa1b d:/altera/13.0sp1/nios2eds/bin/gnu/h-i686-mingw32/bin/../lib/gcc/nios2-elf/4.1.2/../../../../nios2-elf/lib\libc.a(lib_a-callocr.o)
 .debug_info    0x00020c5a      0x958 d:/altera/13.0sp1/nios2eds/bin/gnu/h-i686-mingw32/bin/../lib/gcc/nios2-elf/4.1.2/../../../../nios2-elf/lib\libc.a(lib_a-closer.o)
 .debug_info    0x000215b2      0x994 d:/altera/13.0sp1/nios2eds/bin/gnu/h-i686-mingw32/bin/../lib/gcc/nios2-elf/4.1.2/../../../../nios2-elf/lib\libc.a(lib_a-fclose.o)
 .debug_info    0x00021f46      0xafc d:/altera/13.0sp1/nios2eds/bin/gnu/h-i686-mingw32/bin/../lib/gcc/nios2-elf/4.1.2/../../../../nios2-elf/lib\libc.a(lib_a-fstatr.o)
 .debug_info    0x00022a42       0x8c d:/altera/13.0sp1/nios2eds/bin/gnu/h-i686-mingw32/bin/../lib/gcc/nios2-elf/4.1.2/../../../../nios2-elf/lib\libc.a(lib_a-int_errno.o)
 .debug_info    0x00022ace      0x958 d:/altera/13.0sp1/nios2eds/bin/gnu/h-i686-mingw32/bin/../lib/gcc/nios2-elf/4.1.2/../../../../nios2-elf/lib\libc.a(lib_a-isattyr.o)
 .debug_info    0x00023426      0x981 d:/altera/13.0sp1/nios2eds/bin/gnu/h-i686-mingw32/bin/../lib/gcc/nios2-elf/4.1.2/../../../../nios2-elf/lib\libc.a(lib_a-lseekr.o)
 .debug_info    0x00023da7      0x98c d:/altera/13.0sp1/nios2eds/bin/gnu/h-i686-mingw32/bin/../lib/gcc/nios2-elf/4.1.2/../../../../nios2-elf/lib\libc.a(lib_a-readr.o)
 .debug_info    0x00024733      0x724 d:/altera/13.0sp1/nios2eds/bin/gnu/h-i686-mingw32/bin/../lib/gcc/nios2-elf/4.1.2\libgcc.a(_udivdi3.o)
 .debug_info    0x00024e57      0x751 d:/altera/13.0sp1/nios2eds/bin/gnu/h-i686-mingw32/bin/../lib/gcc/nios2-elf/4.1.2\libgcc.a(_umoddi3.o)
 .debug_info    0x000255a8      0x39b d:/altera/13.0sp1/nios2eds/bin/gnu/h-i686-mingw32/bin/../lib/gcc/nios2-elf/4.1.2\libgcc.a(_div_df.o)
 .debug_info    0x00025943      0x29d d:/altera/13.0sp1/nios2eds/bin/gnu/h-i686-mingw32/bin/../lib/gcc/nios2-elf/4.1.2\libgcc.a(_eq_df.o)
 .debug_info    0x00025be0      0x29d d:/altera/13.0sp1/nios2eds/bin/gnu/h-i686-mingw32/bin/../lib/gcc/nios2-elf/4.1.2\libgcc.a(_ne_df.o)
 .debug_info    0x00025e7d      0x29d d:/altera/13.0sp1/nios2eds/bin/gnu/h-i686-mingw32/bin/../lib/gcc/nios2-elf/4.1.2\libgcc.a(_gt_df.o)
 .debug_info    0x0002611a      0x29d d:/altera/13.0sp1/nios2eds/bin/gnu/h-i686-mingw32/bin/../lib/gcc/nios2-elf/4.1.2\libgcc.a(_lt_df.o)
 .debug_info    0x000263b7      0x218 d:/altera/13.0sp1/nios2eds/bin/gnu/h-i686-mingw32/bin/../lib/gcc/nios2-elf/4.1.2\libgcc.a(_si_to_df.o)
 .debug_info    0x000265cf      0x21c d:/altera/13.0sp1/nios2eds/bin/gnu/h-i686-mingw32/bin/../lib/gcc/nios2-elf/4.1.2\libgcc.a(lib2-divmod.o)
 .debug_info    0x000267eb      0x1e3 ../lab7_bsp/\libucosii_bsp.a(alt_exit.o)
 .debug_info    0x000269ce      0x5c8 ../lab7_bsp/\libucosii_bsp.a(alt_flash_dev.o)
 .debug_info    0x00026f96      0x68f ../lab7_bsp/\libucosii_bsp.a(alt_fstat.o)
 .debug_info    0x00027625      0x445 ../lab7_bsp/\libucosii_bsp.a(alt_irq_register.o)
 .debug_info    0x00027a6a      0x142 ../lab7_bsp/\libucosii_bsp.a(alt_irq_vars.o)
 .debug_info    0x00027bac      0x695 ../lab7_bsp/\libucosii_bsp.a(alt_isatty.o)
 .debug_info    0x00028241      0x4c9 ../lab7_bsp/\libucosii_bsp.a(alt_lseek.o)
 .debug_info    0x0002870a      0x3b8 ../lab7_bsp/\libucosii_bsp.a(alt_main.o)
 .debug_info    0x00028ac2      0x292 ../lab7_bsp/\libucosii_bsp.a(alt_sbrk.o)
 .debug_info    0x00028d54      0x20f ../lab7_bsp/\libucosii_bsp.a(alt_usleep.o)
 .debug_info    0x00028f63     0x11ae ../lab7_bsp/\libucosii_bsp.a(alt_env_lock.o)
 .debug_info    0x0002a111     0x130a ../lab7_bsp/\libucosii_bsp.a(alt_malloc_lock.o)
 .debug_info    0x0002b41b     0x1bc4 ../lab7_bsp/\libucosii_bsp.a(os_core.o)
 .debug_info    0x0002cfdf     0x1109 ../lab7_bsp/\libucosii_bsp.a(os_dbg.o)
 .debug_info    0x0002e0e8     0x121f ../lab7_bsp/\libucosii_bsp.a(os_flag.o)
 .debug_info    0x0002f307      0x7e9 ../lab7_bsp/\libucosii_bsp.a(os_mem.o)
 .debug_info    0x0002faf0     0x1059 ../lab7_bsp/\libucosii_bsp.a(os_q.o)
 .debug_info    0x00030b49      0xcc1 ../lab7_bsp/\libucosii_bsp.a(os_sem.o)
 .debug_info    0x0003180a     0x1337 ../lab7_bsp/\libucosii_bsp.a(os_task.o)
 .debug_info    0x00032b41      0x9bb ../lab7_bsp/\libucosii_bsp.a(os_time.o)
 .debug_info    0x000334fc     0x127b ../lab7_bsp/\libucosii_bsp.a(alt_sys_init.o)
 .debug_info    0x00034777      0xb24 ../lab7_bsp/\libucosii_bsp.a(altera_avalon_cfi_flash.o)
 .debug_info    0x0003529b      0xe10 ../lab7_bsp/\libucosii_bsp.a(altera_avalon_cfi_flash_table.o)
 .debug_info    0x000360ab      0xb84 ../lab7_bsp/\libucosii_bsp.a(altera_avalon_epcs_flash_controller.o)
 .debug_info    0x00036c2f      0x9ad ../lab7_bsp/\libucosii_bsp.a(altera_avalon_jtag_uart_fd.o)
 .debug_info    0x000375dc      0x92b ../lab7_bsp/\libucosii_bsp.a(altera_avalon_jtag_uart_init.o)
 .debug_info    0x00037f07      0x617 ../lab7_bsp/\libucosii_bsp.a(altera_avalon_jtag_uart_ioctl.o)
 .debug_info    0x0003851e      0x7d3 ../lab7_bsp/\libucosii_bsp.a(altera_avalon_jtag_uart_read.o)
 .debug_info    0x00038cf1      0x7ca ../lab7_bsp/\libucosii_bsp.a(altera_avalon_jtag_uart_write.o)
 .debug_info    0x000394bb      0xa79 ../lab7_bsp/\libucosii_bsp.a(altera_avalon_lcd_16207.o)
 .debug_info    0x00039f34      0x811 ../lab7_bsp/\libucosii_bsp.a(altera_avalon_lcd_16207_fd.o)
 .debug_info    0x0003a745      0x366 ../lab7_bsp/\libucosii_bsp.a(altera_avalon_timer_sc.o)
 .debug_info    0x0003aaab      0x84d ../lab7_bsp/\libucosii_bsp.a(altera_avalon_uart_fd.o)
 .debug_info    0x0003b2f8      0x819 ../lab7_bsp/\libucosii_bsp.a(altera_avalon_uart_init.o)
 .debug_info    0x0003bb11      0x79b ../lab7_bsp/\libucosii_bsp.a(altera_avalon_uart_read.o)
 .debug_info    0x0003c2ac      0x78a ../lab7_bsp/\libucosii_bsp.a(altera_avalon_uart_write.o)
 .debug_info    0x0003ca36      0x617 ../lab7_bsp/\libucosii_bsp.a(epcs_commands.o)
 .debug_info    0x0003d04d      0x191 ../lab7_bsp/\libucosii_bsp.a(alt_iniche_close.o)
 .debug_info    0x0003d1de      0xb38 ../lab7_bsp/\libucosii_bsp.a(alt_iniche_dev.o)
 .debug_info    0x0003dd16      0x1bb ../lab7_bsp/\libucosii_bsp.a(alt_iniche_read.o)
 .debug_info    0x0003ded1      0x1c2 ../lab7_bsp/\libucosii_bsp.a(alt_iniche_write.o)
 .debug_info    0x0003e093      0xc24 ../lab7_bsp/\libucosii_bsp.a(ipnet.o)
 .debug_info    0x0003ecb7      0xb77 ../lab7_bsp/\libucosii_bsp.a(ipstart.o)
 .debug_info    0x0003f82e     0x150b ../lab7_bsp/\libucosii_bsp.a(igmp_cmn.o)
 .debug_info    0x00040d39     0x143b ../lab7_bsp/\libucosii_bsp.a(bsdsock.o)
 .debug_info    0x00042174      0x22d ../lab7_bsp/\libucosii_bsp.a(cksum.o)
 .debug_info    0x000423a1      0x71f ../lab7_bsp/\libucosii_bsp.a(in_utils.o)
 .debug_info    0x00042ac0      0x539 ../lab7_bsp/\libucosii_bsp.a(netmain.o)
 .debug_info    0x00042ff9      0x6c5 ../lab7_bsp/\libucosii_bsp.a(parseip.o)
 .debug_info    0x000436be      0x946 ../lab7_bsp/\libucosii_bsp.a(tk_crnos.o)
 .debug_info    0x00044004     0x15d4 ../lab7_bsp/\libucosii_bsp.a(dhcpclnt.o)
 .debug_info    0x000455d8      0x1b7 ../lab7_bsp/\libucosii_bsp.a(dhcputil.o)
 .debug_info    0x0004578f      0xc83 ../lab7_bsp/\libucosii_bsp.a(pktalloc.o)
 .debug_info    0x00046412      0x2c7 ../lab7_bsp/\libucosii_bsp.a(q.o)
 .debug_info    0x000466d9      0xb02 ../lab7_bsp/\libucosii_bsp.a(udp_open.o)
 .debug_info    0x000471db       0x68 ../lab7_bsp/\libucosii_bsp.a(asm_cksum.o)
 .debug_info    0x00047243      0xe88 ../lab7_bsp/\libucosii_bsp.a(brdutils.o)
 .debug_info    0x000480cb      0x6ba ../lab7_bsp/\libucosii_bsp.a(osportco.o)
 .debug_info    0x00048785      0x637 ../lab7_bsp/\libucosii_bsp.a(targnios.o)
 .debug_info    0x00048dbc     0x24fe ../lab7_bsp/\libucosii_bsp.a(nptcp.o)
 .debug_info    0x0004b2ba     0x11b6 ../lab7_bsp/\libucosii_bsp.a(rawsock.o)
 .debug_info    0x0004c470     0x1c74 ../lab7_bsp/\libucosii_bsp.a(sockcall.o)
 .debug_info    0x0004e0e4     0x1a7a ../lab7_bsp/\libucosii_bsp.a(socket.o)
 .debug_info    0x0004fb5e     0x1540 ../lab7_bsp/\libucosii_bsp.a(socket2.o)
 .debug_info    0x0005109e     0x1259 ../lab7_bsp/\libucosii_bsp.a(soselect.o)
 .debug_info    0x000522f7     0x210b ../lab7_bsp/\libucosii_bsp.a(tcp_in.o)
 .debug_info    0x00054402     0x1dfa ../lab7_bsp/\libucosii_bsp.a(tcp_out.o)
 .debug_info    0x000561fc     0x1e62 ../lab7_bsp/\libucosii_bsp.a(tcp_subr.o)
 .debug_info    0x0005805e     0x1c7d ../lab7_bsp/\libucosii_bsp.a(tcp_timr.o)
 .debug_info    0x00059cdb     0x1c3a ../lab7_bsp/\libucosii_bsp.a(tcp_usr.o)
 .debug_info    0x0005b915      0x18d ../lab7_bsp/\libucosii_bsp.a(tcpport.o)
 .debug_info    0x0005baa2     0x1310 ../lab7_bsp/\libucosii_bsp.a(udpsock.o)
 .debug_info    0x0005cdb2      0x41d ../lab7_bsp/\libucosii_bsp.a(alt_alarm_start.o)
 .debug_info    0x0005d1cf      0x186 ../lab7_bsp/\libucosii_bsp.a(alt_busy_sleep.o)
 .debug_info    0x0005d355      0x49a ../lab7_bsp/\libucosii_bsp.a(alt_close.o)
 .debug_info    0x0005d7ef      0x17f ../lab7_bsp/\libucosii_bsp.a(alt_dcache_flush.o)
 .debug_info    0x0005d96e      0x7b8 ../lab7_bsp/\libucosii_bsp.a(alt_dev.o)
 .debug_info    0x0005e126      0x292 ../lab7_bsp/\libucosii_bsp.a(alt_dev_llist_insert.o)
 .debug_info    0x0005e3b8       0xea ../lab7_bsp/\libucosii_bsp.a(alt_do_ctors.o)
 .debug_info    0x0005e4a2       0xe9 ../lab7_bsp/\libucosii_bsp.a(alt_do_dtors.o)
 .debug_info    0x0005e58b      0x13f ../lab7_bsp/\libucosii_bsp.a(alt_errno.o)
 .debug_info    0x0005e6ca      0x447 ../lab7_bsp/\libucosii_bsp.a(alt_find_dev.o)
 .debug_info    0x0005eb11      0x46e ../lab7_bsp/\libucosii_bsp.a(alt_iic.o)
 .debug_info    0x0005ef7f      0x2ef ../lab7_bsp/\libucosii_bsp.a(alt_iic_isr_register.o)
 .debug_info    0x0005f26e      0x6c4 ../lab7_bsp/\libucosii_bsp.a(alt_io_redirect.o)
 .debug_info    0x0005f932       0x5f ../lab7_bsp/\libucosii_bsp.a(alt_irq_entry.o)
 .debug_info    0x0005f991      0x295 ../lab7_bsp/\libucosii_bsp.a(alt_irq_handler.o)
 .debug_info    0x0005fc26      0x545 ../lab7_bsp/\libucosii_bsp.a(alt_open.o)
 .debug_info    0x0006016b      0x6bd ../lab7_bsp/\libucosii_bsp.a(alt_read.o)
 .debug_info    0x00060828      0x42a ../lab7_bsp/\libucosii_bsp.a(alt_release_fd.o)
 .debug_info    0x00060c52      0x16c ../lab7_bsp/\libucosii_bsp.a(alt_remap_cached.o)
 .debug_info    0x00060dbe      0x170 ../lab7_bsp/\libucosii_bsp.a(alt_remap_uncached.o)
 .debug_info    0x00060f2e      0x3ec ../lab7_bsp/\libucosii_bsp.a(alt_tick.o)
 .debug_info    0x0006131a      0x6c6 ../lab7_bsp/\libucosii_bsp.a(alt_write.o)
 .debug_info    0x000619e0      0x13e ../lab7_bsp/\libucosii_bsp.a(altera_nios2_qsys_irq.o)
 .debug_info    0x00061b1e       0x5e ../lab7_bsp/\libucosii_bsp.a(os_cpu_a.o)
 .debug_info    0x00061b7c     0x12ae ../lab7_bsp/\libucosii_bsp.a(os_cpu_c.o)
 .debug_info    0x00062e2a      0x8c4 ../lab7_bsp/\libucosii_bsp.a(altera_avalon_cfi_flash_amd.o)
 .debug_info    0x000636ee      0x8ba ../lab7_bsp/\libucosii_bsp.a(altera_avalon_cfi_flash_intel.o)
 .debug_info    0x00063fa8      0x284 ../lab7_bsp/\libucosii_bsp.a(altera_avalon_spi.o)
 .debug_info    0x0006422c      0xd7a ../lab7_bsp/\libucosii_bsp.a(allports.o)
 .debug_info    0x00064fa6      0x39c ../lab7_bsp/\libucosii_bsp.a(timeouts.o)
 .debug_info    0x00065342      0x1fb ../lab7_bsp/\libucosii_bsp.a(tk_misc.o)
 .debug_info    0x0006553d      0x1e8 ../lab7_bsp/\libucosii_bsp.a(alt_iniche_fcntl.o)
 .debug_info    0x00065725     0x1254 ../lab7_bsp/\libucosii_bsp.a(et_arp.o)
 .debug_info    0x00066979      0xf72 ../lab7_bsp/\libucosii_bsp.a(iface.o)
 .debug_info    0x000678eb     0x16df ../lab7_bsp/\libucosii_bsp.a(ip.o)
 .debug_info    0x00068fca     0x1843 ../lab7_bsp/\libucosii_bsp.a(ip_reasm.o)
 .debug_info    0x0006a80d      0xdc4 ../lab7_bsp/\libucosii_bsp.a(ipdemux.o)
 .debug_info    0x0006b5d1      0xa20 ../lab7_bsp/\libucosii_bsp.a(ipmc.o)
 .debug_info    0x0006bff1      0x2be ../lab7_bsp/\libucosii_bsp.a(ipport.o)
 .debug_info    0x0006c2af      0xf31 ../lab7_bsp/\libucosii_bsp.a(ipraw.o)
 .debug_info    0x0006d1e0      0xedc ../lab7_bsp/\libucosii_bsp.a(iproute.o)
 .debug_info    0x0006e0bc     0x1273 ../lab7_bsp/\libucosii_bsp.a(udp.o)
 .debug_info    0x0006f32f     0x110d ../lab7_bsp/\libucosii_bsp.a(igmp.o)
 .debug_info    0x0007043c     0x1341 ../lab7_bsp/\libucosii_bsp.a(igmp2.o)
 .debug_info    0x0007177d     0x10bc ../lab7_bsp/\libucosii_bsp.a(ipopt.o)
 .debug_info    0x00072839      0xb94 ../lab7_bsp/\libucosii_bsp.a(u_mctest.o)
 .debug_info    0x000733cd      0xa32 ../lab7_bsp/\libucosii_bsp.a(dhcsetup.o)
 .debug_info    0x00073dff      0x71a ../lab7_bsp/\libucosii_bsp.a(memdev.o)
 .debug_info    0x00074519      0x3bf ../lab7_bsp/\libucosii_bsp.a(tcpcksum.o)
 .debug_info    0x000748d8     0x128e ../lab7_bsp/\libucosii_bsp.a(in_pcb.o)
 .debug_info    0x00075b66      0xfbf ../lab7_bsp/\libucosii_bsp.a(vfsfiles.o)
 .debug_info    0x00076b25      0x18e ../lab7_bsp/\libucosii_bsp.a(vfsport.o)
 .debug_info    0x00076cb3       0x65 ../lab7_bsp/\libucosii_bsp.a(alt_exception_entry.o)
 .debug_info    0x00076d18      0x6db ../lab7_bsp/\libucosii_bsp.a(alt_fcntl.o)
 .debug_info    0x000773f3      0x44e ../lab7_bsp/\libucosii_bsp.a(alt_find_file.o)
 .debug_info    0x00077841      0x5e0 ../lab7_bsp/\libucosii_bsp.a(alt_get_fd.o)
 .debug_info    0x00077e21     0x1161 ../lab7_bsp/\libucosii_bsp.a(icmp.o)
 .debug_info    0x00078f82      0x181 d:/altera/13.0sp1/nios2eds/bin/gnu/h-i686-mingw32/bin/../lib/gcc/nios2-elf/4.1.2/../../../../nios2-elf/lib\libc.a(lib_a-atexit.o)
 .debug_info    0x00079103      0x954 d:/altera/13.0sp1/nios2eds/bin/gnu/h-i686-mingw32/bin/../lib/gcc/nios2-elf/4.1.2/../../../../nios2-elf/lib\libc.a(lib_a-calloc.o)
 .debug_info    0x00079a57      0x96e d:/altera/13.0sp1/nios2eds/bin/gnu/h-i686-mingw32/bin/../lib/gcc/nios2-elf/4.1.2/../../../../nios2-elf/lib\libc.a(lib_a-malloc.o)
 .debug_info    0x0007a3c5      0x115 d:/altera/13.0sp1/nios2eds/bin/gnu/h-i686-mingw32/bin/../lib/gcc/nios2-elf/4.1.2/../../../../nios2-elf/lib\libc.a(lib_a-memcmp.o)
 .debug_info    0x0007a4da      0xa16 d:/altera/13.0sp1/nios2eds/bin/gnu/h-i686-mingw32/bin/../lib/gcc/nios2-elf/4.1.2/../../../../nios2-elf/lib\libc.a(lib_a-sprintf.o)
 .debug_info    0x0007aef0      0x110 d:/altera/13.0sp1/nios2eds/bin/gnu/h-i686-mingw32/bin/../lib/gcc/nios2-elf/4.1.2/../../../../nios2-elf/lib\libc.a(lib_a-strcpy.o)
 .debug_info    0x0007b000       0xf5 d:/altera/13.0sp1/nios2eds/bin/gnu/h-i686-mingw32/bin/../lib/gcc/nios2-elf/4.1.2/../../../../nios2-elf/lib\libc.a(lib_a-strncmp.o)
 .debug_info    0x0007b0f5      0x12a d:/altera/13.0sp1/nios2eds/bin/gnu/h-i686-mingw32/bin/../lib/gcc/nios2-elf/4.1.2/../../../../nios2-elf/lib\libc.a(lib_a-strncpy.o)
 .debug_info    0x0007b21f      0x9aa d:/altera/13.0sp1/nios2eds/bin/gnu/h-i686-mingw32/bin/../lib/gcc/nios2-elf/4.1.2/../../../../nios2-elf/lib\libc.a(lib_a-vprintf.o)
 .debug_info    0x0007bbc9      0x9ed d:/altera/13.0sp1/nios2eds/bin/gnu/h-i686-mingw32/bin/../lib/gcc/nios2-elf/4.1.2/../../../../nios2-elf/lib\libc.a(lib_a-vsprintf.o)
 .debug_info    0x0007c5b6      0x99c d:/altera/13.0sp1/nios2eds/bin/gnu/h-i686-mingw32/bin/../lib/gcc/nios2-elf/4.1.2/../../../../nios2-elf/lib\libc.a(lib_a-__atexit.o)

.debug_abbrev   0x00000000    0x126e7
 *(.debug_abbrev)
 .debug_abbrev  0x00000000       0x14 ../lab7_bsp//obj/HAL/src/crt0.o
 .debug_abbrev  0x00000014       0xa9 obj/default/LCD.o
 .debug_abbrev  0x000000bd      0x15c obj/default/SSS_DE2_115.o
 .debug_abbrev  0x00000219      0x1f1 obj/default/alt_error_handler.o
 .debug_abbrev  0x0000040a      0x231 obj/default/dm9000a.o
 .debug_abbrev  0x0000063b      0x173 obj/default/iniche_init.o
 .debug_abbrev  0x000007ae       0xf5 obj/default/led.o
 .debug_abbrev  0x000008a3      0x282 obj/default/network_utilities.o
 .debug_abbrev  0x00000b25      0x1c4 obj/default/simple_socket_server.o
 .debug_abbrev  0x00000ce9        0x1 obj/default/tse_my_system.o
 .debug_abbrev  0x00000cea       0x5d d:/altera/13.0sp1/nios2eds/bin/gnu/h-i686-mingw32/bin/../lib/gcc/nios2-elf/4.1.2\libgcc.a(_fixunsdfsi.o)
 .debug_abbrev  0x00000d47      0x1d2 d:/altera/13.0sp1/nios2eds/bin/gnu/h-i686-mingw32/bin/../lib/gcc/nios2-elf/4.1.2\libgcc.a(_addsub_df.o)
 .debug_abbrev  0x00000f19      0x204 d:/altera/13.0sp1/nios2eds/bin/gnu/h-i686-mingw32/bin/../lib/gcc/nios2-elf/4.1.2\libgcc.a(_mul_df.o)
 .debug_abbrev  0x0000111d      0x151 d:/altera/13.0sp1/nios2eds/bin/gnu/h-i686-mingw32/bin/../lib/gcc/nios2-elf/4.1.2\libgcc.a(_ge_df.o)
 .debug_abbrev  0x0000126e      0x176 d:/altera/13.0sp1/nios2eds/bin/gnu/h-i686-mingw32/bin/../lib/gcc/nios2-elf/4.1.2\libgcc.a(_df_to_si.o)
 .debug_abbrev  0x000013e4       0xba d:/altera/13.0sp1/nios2eds/bin/gnu/h-i686-mingw32/bin/../lib/gcc/nios2-elf/4.1.2\libgcc.a(_thenan_df.o)
 .debug_abbrev  0x0000149e      0x155 d:/altera/13.0sp1/nios2eds/bin/gnu/h-i686-mingw32/bin/../lib/gcc/nios2-elf/4.1.2\libgcc.a(_usi_to_df.o)
 .debug_abbrev  0x000015f3       0xee d:/altera/13.0sp1/nios2eds/bin/gnu/h-i686-mingw32/bin/../lib/gcc/nios2-elf/4.1.2\libgcc.a(_muldi3.o)
 .debug_abbrev  0x000016e1       0xb9 d:/altera/13.0sp1/nios2eds/bin/gnu/h-i686-mingw32/bin/../lib/gcc/nios2-elf/4.1.2\libgcc.a(_clzsi2.o)
 .debug_abbrev  0x0000179a      0x1b1 d:/altera/13.0sp1/nios2eds/bin/gnu/h-i686-mingw32/bin/../lib/gcc/nios2-elf/4.1.2\libgcc.a(_pack_df.o)
 .debug_abbrev  0x0000194b      0x149 d:/altera/13.0sp1/nios2eds/bin/gnu/h-i686-mingw32/bin/../lib/gcc/nios2-elf/4.1.2\libgcc.a(_unpack_df.o)
 .debug_abbrev  0x00001a94      0x132 d:/altera/13.0sp1/nios2eds/bin/gnu/h-i686-mingw32/bin/../lib/gcc/nios2-elf/4.1.2\libgcc.a(_fpcmp_parts_df.o)
 .debug_abbrev  0x00001bc6       0x61 d:/altera/13.0sp1/nios2eds/bin/gnu/h-i686-mingw32/bin/../lib/gcc/nios2-elf/4.1.2\libgcc.a(_clz.o)
 .debug_abbrev  0x00001c27      0x176 d:/altera/13.0sp1/nios2eds/bin/gnu/h-i686-mingw32/bin/../lib/gcc/nios2-elf/4.1.2/../../../../nios2-elf/lib\libc.a(lib_a-atoi.o)
 .debug_abbrev  0x00001d9d       0x61 d:/altera/13.0sp1/nios2eds/bin/gnu/h-i686-mingw32/bin/../lib/gcc/nios2-elf/4.1.2/../../../../nios2-elf/lib\libc.a(lib_a-ctype_.o)
 .debug_abbrev  0x00001dfe      0x15f d:/altera/13.0sp1/nios2eds/bin/gnu/h-i686-mingw32/bin/../lib/gcc/nios2-elf/4.1.2/../../../../nios2-elf/lib\libc.a(lib_a-errno.o)
 .debug_abbrev  0x00001f5d      0x16e d:/altera/13.0sp1/nios2eds/bin/gnu/h-i686-mingw32/bin/../lib/gcc/nios2-elf/4.1.2/../../../../nios2-elf/lib\libc.a(lib_a-exit.o)
 .debug_abbrev  0x000020cb      0x197 d:/altera/13.0sp1/nios2eds/bin/gnu/h-i686-mingw32/bin/../lib/gcc/nios2-elf/4.1.2/../../../../nios2-elf/lib\libc.a(lib_a-fprintf.o)
 .debug_abbrev  0x00002262      0x1b1 d:/altera/13.0sp1/nios2eds/bin/gnu/h-i686-mingw32/bin/../lib/gcc/nios2-elf/4.1.2/../../../../nios2-elf/lib\libc.a(lib_a-fwrite.o)
 .debug_abbrev  0x00002413      0x17f d:/altera/13.0sp1/nios2eds/bin/gnu/h-i686-mingw32/bin/../lib/gcc/nios2-elf/4.1.2/../../../../nios2-elf/lib\libc.a(lib_a-getc.o)
 .debug_abbrev  0x00002592      0x157 d:/altera/13.0sp1/nios2eds/bin/gnu/h-i686-mingw32/bin/../lib/gcc/nios2-elf/4.1.2/../../../../nios2-elf/lib\libc.a(lib_a-impure.o)
 .debug_abbrev  0x000026e9       0xb5 d:/altera/13.0sp1/nios2eds/bin/gnu/h-i686-mingw32/bin/../lib/gcc/nios2-elf/4.1.2/../../../../nios2-elf/lib\libc.a(lib_a-memcpy.o)
 .debug_abbrev  0x0000279e       0xb5 d:/altera/13.0sp1/nios2eds/bin/gnu/h-i686-mingw32/bin/../lib/gcc/nios2-elf/4.1.2/../../../../nios2-elf/lib\libc.a(lib_a-memmove.o)
 .debug_abbrev  0x00002853       0xb8 d:/altera/13.0sp1/nios2eds/bin/gnu/h-i686-mingw32/bin/../lib/gcc/nios2-elf/4.1.2/../../../../nios2-elf/lib\libc.a(lib_a-memset.o)
 .debug_abbrev  0x0000290b      0x194 d:/altera/13.0sp1/nios2eds/bin/gnu/h-i686-mingw32/bin/../lib/gcc/nios2-elf/4.1.2/../../../../nios2-elf/lib\libc.a(lib_a-perror.o)
 .debug_abbrev  0x00002a9f      0x191 d:/altera/13.0sp1/nios2eds/bin/gnu/h-i686-mingw32/bin/../lib/gcc/nios2-elf/4.1.2/../../../../nios2-elf/lib\libc.a(lib_a-printf.o)
 .debug_abbrev  0x00002c30      0x17f d:/altera/13.0sp1/nios2eds/bin/gnu/h-i686-mingw32/bin/../lib/gcc/nios2-elf/4.1.2/../../../../nios2-elf/lib\libc.a(lib_a-putc.o)
 .debug_abbrev  0x00002daf      0x170 d:/altera/13.0sp1/nios2eds/bin/gnu/h-i686-mingw32/bin/../lib/gcc/nios2-elf/4.1.2/../../../../nios2-elf/lib\libc.a(lib_a-putchar.o)
 .debug_abbrev  0x00002f1f      0x1ac d:/altera/13.0sp1/nios2eds/bin/gnu/h-i686-mingw32/bin/../lib/gcc/nios2-elf/4.1.2/../../../../nios2-elf/lib\libc.a(lib_a-puts.o)
 .debug_abbrev  0x000030cb      0x189 d:/altera/13.0sp1/nios2eds/bin/gnu/h-i686-mingw32/bin/../lib/gcc/nios2-elf/4.1.2/../../../../nios2-elf/lib\libc.a(lib_a-rget.o)
 .debug_abbrev  0x00003254       0x80 d:/altera/13.0sp1/nios2eds/bin/gnu/h-i686-mingw32/bin/../lib/gcc/nios2-elf/4.1.2/../../../../nios2-elf/lib\libc.a(lib_a-strchr.o)
 .debug_abbrev  0x000032d4       0x80 d:/altera/13.0sp1/nios2eds/bin/gnu/h-i686-mingw32/bin/../lib/gcc/nios2-elf/4.1.2/../../../../nios2-elf/lib\libc.a(lib_a-strcmp.o)
 .debug_abbrev  0x00003354       0x68 d:/altera/13.0sp1/nios2eds/bin/gnu/h-i686-mingw32/bin/../lib/gcc/nios2-elf/4.1.2/../../../../nios2-elf/lib\libc.a(lib_a-strerror.o)
 .debug_abbrev  0x000033bc       0x8b d:/altera/13.0sp1/nios2eds/bin/gnu/h-i686-mingw32/bin/../lib/gcc/nios2-elf/4.1.2/../../../../nios2-elf/lib\libc.a(lib_a-strlen.o)
 .debug_abbrev  0x00003447      0x1c7 d:/altera/13.0sp1/nios2eds/bin/gnu/h-i686-mingw32/bin/../lib/gcc/nios2-elf/4.1.2/../../../../nios2-elf/lib\libc.a(lib_a-strtol.o)
 .debug_abbrev  0x0000360e       0x5b d:/altera/13.0sp1/nios2eds/bin/gnu/h-i686-mingw32/bin/../lib/gcc/nios2-elf/4.1.2/../../../../nios2-elf/lib\libc.a(lib_a-u_strerr.o)
 .debug_abbrev  0x00003669      0x30a d:/altera/13.0sp1/nios2eds/bin/gnu/h-i686-mingw32/bin/../lib/gcc/nios2-elf/4.1.2/../../../../nios2-elf/lib\libc.a(lib_a-vfprintf.o)
 .debug_abbrev  0x00003973      0x198 d:/altera/13.0sp1/nios2eds/bin/gnu/h-i686-mingw32/bin/../lib/gcc/nios2-elf/4.1.2/../../../../nios2-elf/lib\libc.a(lib_a-wbuf.o)
 .debug_abbrev  0x00003b0b      0x170 d:/altera/13.0sp1/nios2eds/bin/gnu/h-i686-mingw32/bin/../lib/gcc/nios2-elf/4.1.2/../../../../nios2-elf/lib\libc.a(lib_a-wsetup.o)
 .debug_abbrev  0x00003c7b      0x1de d:/altera/13.0sp1/nios2eds/bin/gnu/h-i686-mingw32/bin/../lib/gcc/nios2-elf/4.1.2/../../../../nios2-elf/lib\libc.a(lib_a-__call_atexit.o)
 .debug_abbrev  0x00003e59      0x232 d:/altera/13.0sp1/nios2eds/bin/gnu/h-i686-mingw32/bin/../lib/gcc/nios2-elf/4.1.2/../../../../nios2-elf/lib\libc.a(lib_a-dtoa.o)
 .debug_abbrev  0x0000408b      0x1c6 d:/altera/13.0sp1/nios2eds/bin/gnu/h-i686-mingw32/bin/../lib/gcc/nios2-elf/4.1.2/../../../../nios2-elf/lib\libc.a(lib_a-fflush.o)
 .debug_abbrev  0x00004251      0x24c d:/altera/13.0sp1/nios2eds/bin/gnu/h-i686-mingw32/bin/../lib/gcc/nios2-elf/4.1.2/../../../../nios2-elf/lib\libc.a(lib_a-findfp.o)
 .debug_abbrev  0x0000449d      0x18c d:/altera/13.0sp1/nios2eds/bin/gnu/h-i686-mingw32/bin/../lib/gcc/nios2-elf/4.1.2/../../../../nios2-elf/lib\libc.a(lib_a-fputc.o)
 .debug_abbrev  0x00004629      0x1aa d:/altera/13.0sp1/nios2eds/bin/gnu/h-i686-mingw32/bin/../lib/gcc/nios2-elf/4.1.2/../../../../nios2-elf/lib\libc.a(lib_a-fputs.o)
 .debug_abbrev  0x000047d3      0x1d9 d:/altera/13.0sp1/nios2eds/bin/gnu/h-i686-mingw32/bin/../lib/gcc/nios2-elf/4.1.2/../../../../nios2-elf/lib\libc.a(lib_a-freer.o)
 .debug_abbrev  0x000049ac      0x1a3 d:/altera/13.0sp1/nios2eds/bin/gnu/h-i686-mingw32/bin/../lib/gcc/nios2-elf/4.1.2/../../../../nios2-elf/lib\libc.a(lib_a-fvwrite.o)
 .debug_abbrev  0x00004b4f      0x1e3 d:/altera/13.0sp1/nios2eds/bin/gnu/h-i686-mingw32/bin/../lib/gcc/nios2-elf/4.1.2/../../../../nios2-elf/lib\libc.a(lib_a-fwalk.o)
 .debug_abbrev  0x00004d32      0x1ed d:/altera/13.0sp1/nios2eds/bin/gnu/h-i686-mingw32/bin/../lib/gcc/nios2-elf/4.1.2/../../../../nios2-elf/lib\libc.a(lib_a-locale.o)
 .debug_abbrev  0x00004f1f      0x197 d:/altera/13.0sp1/nios2eds/bin/gnu/h-i686-mingw32/bin/../lib/gcc/nios2-elf/4.1.2/../../../../nios2-elf/lib\libc.a(lib_a-makebuf.o)
 .debug_abbrev  0x000050b6      0x216 d:/altera/13.0sp1/nios2eds/bin/gnu/h-i686-mingw32/bin/../lib/gcc/nios2-elf/4.1.2/../../../../nios2-elf/lib\libc.a(lib_a-mallocr.o)
 .debug_abbrev  0x000052cc       0xb5 d:/altera/13.0sp1/nios2eds/bin/gnu/h-i686-mingw32/bin/../lib/gcc/nios2-elf/4.1.2/../../../../nios2-elf/lib\libc.a(lib_a-memchr.o)
 .debug_abbrev  0x00005381      0x297 d:/altera/13.0sp1/nios2eds/bin/gnu/h-i686-mingw32/bin/../lib/gcc/nios2-elf/4.1.2/../../../../nios2-elf/lib\libc.a(lib_a-mprec.o)
 .debug_abbrev  0x00005618      0x1c3 d:/altera/13.0sp1/nios2eds/bin/gnu/h-i686-mingw32/bin/../lib/gcc/nios2-elf/4.1.2/../../../../nios2-elf/lib\libc.a(lib_a-reallocr.o)
 .debug_abbrev  0x000057db      0x187 d:/altera/13.0sp1/nios2eds/bin/gnu/h-i686-mingw32/bin/../lib/gcc/nios2-elf/4.1.2/../../../../nios2-elf/lib\libc.a(lib_a-refill.o)
 .debug_abbrev  0x00005962       0x79 d:/altera/13.0sp1/nios2eds/bin/gnu/h-i686-mingw32/bin/../lib/gcc/nios2-elf/4.1.2/../../../../nios2-elf/lib\libc.a(lib_a-s_isinfd.o)
 .debug_abbrev  0x000059db       0x79 d:/altera/13.0sp1/nios2eds/bin/gnu/h-i686-mingw32/bin/../lib/gcc/nios2-elf/4.1.2/../../../../nios2-elf/lib\libc.a(lib_a-s_isnand.o)
 .debug_abbrev  0x00005a54      0x18c d:/altera/13.0sp1/nios2eds/bin/gnu/h-i686-mingw32/bin/../lib/gcc/nios2-elf/4.1.2/../../../../nios2-elf/lib\libc.a(lib_a-sbrkr.o)
 .debug_abbrev  0x00005be0      0x1c9 d:/altera/13.0sp1/nios2eds/bin/gnu/h-i686-mingw32/bin/../lib/gcc/nios2-elf/4.1.2/../../../../nios2-elf/lib\libc.a(lib_a-stdio.o)
 .debug_abbrev  0x00005da9      0x184 d:/altera/13.0sp1/nios2eds/bin/gnu/h-i686-mingw32/bin/../lib/gcc/nios2-elf/4.1.2/../../../../nios2-elf/lib\libc.a(lib_a-writer.o)
 .debug_abbrev  0x00005f2d      0x1b8 d:/altera/13.0sp1/nios2eds/bin/gnu/h-i686-mingw32/bin/../lib/gcc/nios2-elf/4.1.2/../../../../nios2-elf/lib\libc.a(lib_a-callocr.o)
 .debug_abbrev  0x000060e5      0x17f d:/altera/13.0sp1/nios2eds/bin/gnu/h-i686-mingw32/bin/../lib/gcc/nios2-elf/4.1.2/../../../../nios2-elf/lib\libc.a(lib_a-closer.o)
 .debug_abbrev  0x00006264      0x1a7 d:/altera/13.0sp1/nios2eds/bin/gnu/h-i686-mingw32/bin/../lib/gcc/nios2-elf/4.1.2/../../../../nios2-elf/lib\libc.a(lib_a-fclose.o)
 .debug_abbrev  0x0000640b      0x18e d:/altera/13.0sp1/nios2eds/bin/gnu/h-i686-mingw32/bin/../lib/gcc/nios2-elf/4.1.2/../../../../nios2-elf/lib\libc.a(lib_a-fstatr.o)
 .debug_abbrev  0x00006599       0x3b d:/altera/13.0sp1/nios2eds/bin/gnu/h-i686-mingw32/bin/../lib/gcc/nios2-elf/4.1.2/../../../../nios2-elf/lib\libc.a(lib_a-int_errno.o)
 .debug_abbrev  0x000065d4      0x17f d:/altera/13.0sp1/nios2eds/bin/gnu/h-i686-mingw32/bin/../lib/gcc/nios2-elf/4.1.2/../../../../nios2-elf/lib\libc.a(lib_a-isattyr.o)
 .debug_abbrev  0x00006753      0x18e d:/altera/13.0sp1/nios2eds/bin/gnu/h-i686-mingw32/bin/../lib/gcc/nios2-elf/4.1.2/../../../../nios2-elf/lib\libc.a(lib_a-lseekr.o)
 .debug_abbrev  0x000068e1      0x17f d:/altera/13.0sp1/nios2eds/bin/gnu/h-i686-mingw32/bin/../lib/gcc/nios2-elf/4.1.2/../../../../nios2-elf/lib\libc.a(lib_a-readr.o)
 .debug_abbrev  0x00006a60      0x16b d:/altera/13.0sp1/nios2eds/bin/gnu/h-i686-mingw32/bin/../lib/gcc/nios2-elf/4.1.2\libgcc.a(_udivdi3.o)
 .debug_abbrev  0x00006bcb      0x18e d:/altera/13.0sp1/nios2eds/bin/gnu/h-i686-mingw32/bin/../lib/gcc/nios2-elf/4.1.2\libgcc.a(_umoddi3.o)
 .debug_abbrev  0x00006d59      0x1e3 d:/altera/13.0sp1/nios2eds/bin/gnu/h-i686-mingw32/bin/../lib/gcc/nios2-elf/4.1.2\libgcc.a(_div_df.o)
 .debug_abbrev  0x00006f3c      0x151 d:/altera/13.0sp1/nios2eds/bin/gnu/h-i686-mingw32/bin/../lib/gcc/nios2-elf/4.1.2\libgcc.a(_eq_df.o)
 .debug_abbrev  0x0000708d      0x151 d:/altera/13.0sp1/nios2eds/bin/gnu/h-i686-mingw32/bin/../lib/gcc/nios2-elf/4.1.2\libgcc.a(_ne_df.o)
 .debug_abbrev  0x000071de      0x151 d:/altera/13.0sp1/nios2eds/bin/gnu/h-i686-mingw32/bin/../lib/gcc/nios2-elf/4.1.2\libgcc.a(_gt_df.o)
 .debug_abbrev  0x0000732f      0x151 d:/altera/13.0sp1/nios2eds/bin/gnu/h-i686-mingw32/bin/../lib/gcc/nios2-elf/4.1.2\libgcc.a(_lt_df.o)
 .debug_abbrev  0x00007480      0x13f d:/altera/13.0sp1/nios2eds/bin/gnu/h-i686-mingw32/bin/../lib/gcc/nios2-elf/4.1.2\libgcc.a(_si_to_df.o)
 .debug_abbrev  0x000075bf       0xe0 d:/altera/13.0sp1/nios2eds/bin/gnu/h-i686-mingw32/bin/../lib/gcc/nios2-elf/4.1.2\libgcc.a(lib2-divmod.o)
 .debug_abbrev  0x0000769f       0xaa ../lab7_bsp/\libucosii_bsp.a(alt_exit.o)
 .debug_abbrev  0x00007749      0x128 ../lab7_bsp/\libucosii_bsp.a(alt_flash_dev.o)
 .debug_abbrev  0x00007871      0x102 ../lab7_bsp/\libucosii_bsp.a(alt_fstat.o)
 .debug_abbrev  0x00007973      0x180 ../lab7_bsp/\libucosii_bsp.a(alt_irq_register.o)
 .debug_abbrev  0x00007af3       0x44 ../lab7_bsp/\libucosii_bsp.a(alt_irq_vars.o)
 .debug_abbrev  0x00007b37      0x102 ../lab7_bsp/\libucosii_bsp.a(alt_isatty.o)
 .debug_abbrev  0x00007c39      0x102 ../lab7_bsp/\libucosii_bsp.a(alt_lseek.o)
 .debug_abbrev  0x00007d3b      0x120 ../lab7_bsp/\libucosii_bsp.a(alt_main.o)
 .debug_abbrev  0x00007e5b      0x115 ../lab7_bsp/\libucosii_bsp.a(alt_sbrk.o)
 .debug_abbrev  0x00007f70       0xb7 ../lab7_bsp/\libucosii_bsp.a(alt_usleep.o)
 .debug_abbrev  0x00008027      0x1b3 ../lab7_bsp/\libucosii_bsp.a(alt_env_lock.o)
 .debug_abbrev  0x000081da      0x234 ../lab7_bsp/\libucosii_bsp.a(alt_malloc_lock.o)
 .debug_abbrev  0x0000840e      0x2aa ../lab7_bsp/\libucosii_bsp.a(os_core.o)
 .debug_abbrev  0x000086b8      0x114 ../lab7_bsp/\libucosii_bsp.a(os_dbg.o)
 .debug_abbrev  0x000087cc      0x21b ../lab7_bsp/\libucosii_bsp.a(os_flag.o)
 .debug_abbrev  0x000089e7      0x235 ../lab7_bsp/\libucosii_bsp.a(os_mem.o)
 .debug_abbrev  0x00008c1c      0x20d ../lab7_bsp/\libucosii_bsp.a(os_q.o)
 .debug_abbrev  0x00008e29      0x20d ../lab7_bsp/\libucosii_bsp.a(os_sem.o)
 .debug_abbrev  0x00009036      0x20e ../lab7_bsp/\libucosii_bsp.a(os_task.o)
 .debug_abbrev  0x00009244      0x1de ../lab7_bsp/\libucosii_bsp.a(os_time.o)
 .debug_abbrev  0x00009422      0x1c8 ../lab7_bsp/\libucosii_bsp.a(alt_sys_init.o)
 .debug_abbrev  0x000095ea      0x1bf ../lab7_bsp/\libucosii_bsp.a(altera_avalon_cfi_flash.o)
 .debug_abbrev  0x000097a9      0x185 ../lab7_bsp/\libucosii_bsp.a(altera_avalon_cfi_flash_table.o)
 .debug_abbrev  0x0000992e      0x1bf ../lab7_bsp/\libucosii_bsp.a(altera_avalon_epcs_flash_controller.o)
 .debug_abbrev  0x00009aed      0x13c ../lab7_bsp/\libucosii_bsp.a(altera_avalon_jtag_uart_fd.o)
 .debug_abbrev  0x00009c29      0x21e ../lab7_bsp/\libucosii_bsp.a(altera_avalon_jtag_uart_init.o)
 .debug_abbrev  0x00009e47      0x135 ../lab7_bsp/\libucosii_bsp.a(altera_avalon_jtag_uart_ioctl.o)
 .debug_abbrev  0x00009f7c      0x1ee ../lab7_bsp/\libucosii_bsp.a(altera_avalon_jtag_uart_read.o)
 .debug_abbrev  0x0000a16a      0x1ea ../lab7_bsp/\libucosii_bsp.a(altera_avalon_jtag_uart_write.o)
 .debug_abbrev  0x0000a354      0x235 ../lab7_bsp/\libucosii_bsp.a(altera_avalon_lcd_16207.o)
 .debug_abbrev  0x0000a589      0x12f ../lab7_bsp/\libucosii_bsp.a(altera_avalon_lcd_16207_fd.o)
 .debug_abbrev  0x0000a6b8      0x137 ../lab7_bsp/\libucosii_bsp.a(altera_avalon_timer_sc.o)
 .debug_abbrev  0x0000a7ef      0x124 ../lab7_bsp/\libucosii_bsp.a(altera_avalon_uart_fd.o)
 .debug_abbrev  0x0000a913      0x204 ../lab7_bsp/\libucosii_bsp.a(altera_avalon_uart_init.o)
 .debug_abbrev  0x0000ab17      0x1b9 ../lab7_bsp/\libucosii_bsp.a(altera_avalon_uart_read.o)
 .debug_abbrev  0x0000acd0      0x1c0 ../lab7_bsp/\libucosii_bsp.a(altera_avalon_uart_write.o)
 .debug_abbrev  0x0000ae90      0x145 ../lab7_bsp/\libucosii_bsp.a(epcs_commands.o)
 .debug_abbrev  0x0000afd5       0x77 ../lab7_bsp/\libucosii_bsp.a(alt_iniche_close.o)
 .debug_abbrev  0x0000b04c      0x11f ../lab7_bsp/\libucosii_bsp.a(alt_iniche_dev.o)
 .debug_abbrev  0x0000b16b       0x7e ../lab7_bsp/\libucosii_bsp.a(alt_iniche_read.o)
 .debug_abbrev  0x0000b1e9       0x85 ../lab7_bsp/\libucosii_bsp.a(alt_iniche_write.o)
 .debug_abbrev  0x0000b26e      0x184 ../lab7_bsp/\libucosii_bsp.a(ipnet.o)
 .debug_abbrev  0x0000b3f2      0x18b ../lab7_bsp/\libucosii_bsp.a(ipstart.o)
 .debug_abbrev  0x0000b57d      0x191 ../lab7_bsp/\libucosii_bsp.a(igmp_cmn.o)
 .debug_abbrev  0x0000b70e      0x1a3 ../lab7_bsp/\libucosii_bsp.a(bsdsock.o)
 .debug_abbrev  0x0000b8b1       0x96 ../lab7_bsp/\libucosii_bsp.a(cksum.o)
 .debug_abbrev  0x0000b947      0x18b ../lab7_bsp/\libucosii_bsp.a(in_utils.o)
 .debug_abbrev  0x0000bad2      0x152 ../lab7_bsp/\libucosii_bsp.a(netmain.o)
 .debug_abbrev  0x0000bc24      0x154 ../lab7_bsp/\libucosii_bsp.a(parseip.o)
 .debug_abbrev  0x0000bd78      0x144 ../lab7_bsp/\libucosii_bsp.a(tk_crnos.o)
 .debug_abbrev  0x0000bebc      0x217 ../lab7_bsp/\libucosii_bsp.a(dhcpclnt.o)
 .debug_abbrev  0x0000c0d3       0x8f ../lab7_bsp/\libucosii_bsp.a(dhcputil.o)
 .debug_abbrev  0x0000c162      0x196 ../lab7_bsp/\libucosii_bsp.a(pktalloc.o)
 .debug_abbrev  0x0000c2f8       0xcb ../lab7_bsp/\libucosii_bsp.a(q.o)
 .debug_abbrev  0x0000c3c3      0x144 ../lab7_bsp/\libucosii_bsp.a(udp_open.o)
 .debug_abbrev  0x0000c507       0x14 ../lab7_bsp/\libucosii_bsp.a(asm_cksum.o)
 .debug_abbrev  0x0000c51b      0x242 ../lab7_bsp/\libucosii_bsp.a(brdutils.o)
 .debug_abbrev  0x0000c75d      0x194 ../lab7_bsp/\libucosii_bsp.a(osportco.o)
 .debug_abbrev  0x0000c8f1      0x199 ../lab7_bsp/\libucosii_bsp.a(targnios.o)
 .debug_abbrev  0x0000ca8a      0x1dc ../lab7_bsp/\libucosii_bsp.a(nptcp.o)
 .debug_abbrev  0x0000cc66      0x136 ../lab7_bsp/\libucosii_bsp.a(rawsock.o)
 .debug_abbrev  0x0000cd9c      0x1de ../lab7_bsp/\libucosii_bsp.a(sockcall.o)
 .debug_abbrev  0x0000cf7a      0x1ef ../lab7_bsp/\libucosii_bsp.a(socket.o)
 .debug_abbrev  0x0000d169      0x1ac ../lab7_bsp/\libucosii_bsp.a(socket2.o)
 .debug_abbrev  0x0000d315      0x17f ../lab7_bsp/\libucosii_bsp.a(soselect.o)
 .debug_abbrev  0x0000d494      0x1ca ../lab7_bsp/\libucosii_bsp.a(tcp_in.o)
 .debug_abbrev  0x0000d65e      0x1a4 ../lab7_bsp/\libucosii_bsp.a(tcp_out.o)
 .debug_abbrev  0x0000d802      0x1c3 ../lab7_bsp/\libucosii_bsp.a(tcp_subr.o)
 .debug_abbrev  0x0000d9c5      0x19e ../lab7_bsp/\libucosii_bsp.a(tcp_timr.o)
 .debug_abbrev  0x0000db63      0x175 ../lab7_bsp/\libucosii_bsp.a(tcp_usr.o)
 .debug_abbrev  0x0000dcd8       0x77 ../lab7_bsp/\libucosii_bsp.a(tcpport.o)
 .debug_abbrev  0x0000dd4f      0x190 ../lab7_bsp/\libucosii_bsp.a(udpsock.o)
 .debug_abbrev  0x0000dedf      0x172 ../lab7_bsp/\libucosii_bsp.a(alt_alarm_start.o)
 .debug_abbrev  0x0000e051       0x6c ../lab7_bsp/\libucosii_bsp.a(alt_busy_sleep.o)
 .debug_abbrev  0x0000e0bd      0x102 ../lab7_bsp/\libucosii_bsp.a(alt_close.o)
 .debug_abbrev  0x0000e1bf       0x7a ../lab7_bsp/\libucosii_bsp.a(alt_dcache_flush.o)
 .debug_abbrev  0x0000e239      0x10a ../lab7_bsp/\libucosii_bsp.a(alt_dev.o)
 .debug_abbrev  0x0000e343       0xf6 ../lab7_bsp/\libucosii_bsp.a(alt_dev_llist_insert.o)
 .debug_abbrev  0x0000e439       0x76 ../lab7_bsp/\libucosii_bsp.a(alt_do_ctors.o)
 .debug_abbrev  0x0000e4af       0x76 ../lab7_bsp/\libucosii_bsp.a(alt_do_dtors.o)
 .debug_abbrev  0x0000e525       0x5e ../lab7_bsp/\libucosii_bsp.a(alt_errno.o)
 .debug_abbrev  0x0000e583       0xd6 ../lab7_bsp/\libucosii_bsp.a(alt_find_dev.o)
 .debug_abbrev  0x0000e659      0x134 ../lab7_bsp/\libucosii_bsp.a(alt_iic.o)
 .debug_abbrev  0x0000e78d      0x14e ../lab7_bsp/\libucosii_bsp.a(alt_iic_isr_register.o)
 .debug_abbrev  0x0000e8db       0xf7 ../lab7_bsp/\libucosii_bsp.a(alt_io_redirect.o)
 .debug_abbrev  0x0000e9d2       0x12 ../lab7_bsp/\libucosii_bsp.a(alt_irq_entry.o)
 .debug_abbrev  0x0000e9e4      0x124 ../lab7_bsp/\libucosii_bsp.a(alt_irq_handler.o)
 .debug_abbrev  0x0000eb08      0x119 ../lab7_bsp/\libucosii_bsp.a(alt_open.o)
 .debug_abbrev  0x0000ec21      0x102 ../lab7_bsp/\libucosii_bsp.a(alt_read.o)
 .debug_abbrev  0x0000ed23       0xd3 ../lab7_bsp/\libucosii_bsp.a(alt_release_fd.o)
 .debug_abbrev  0x0000edf6       0x74 ../lab7_bsp/\libucosii_bsp.a(alt_remap_cached.o)
 .debug_abbrev  0x0000ee6a       0x74 ../lab7_bsp/\libucosii_bsp.a(alt_remap_uncached.o)
 .debug_abbrev  0x0000eede      0x150 ../lab7_bsp/\libucosii_bsp.a(alt_tick.o)
 .debug_abbrev  0x0000f02e      0x107 ../lab7_bsp/\libucosii_bsp.a(alt_write.o)
 .debug_abbrev  0x0000f135       0x3f ../lab7_bsp/\libucosii_bsp.a(altera_nios2_qsys_irq.o)
 .debug_abbrev  0x0000f174       0x14 ../lab7_bsp/\libucosii_bsp.a(os_cpu_a.o)
 .debug_abbrev  0x0000f188      0x1d0 ../lab7_bsp/\libucosii_bsp.a(os_cpu_c.o)
 .debug_abbrev  0x0000f358      0x14d ../lab7_bsp/\libucosii_bsp.a(altera_avalon_cfi_flash_amd.o)
 .debug_abbrev  0x0000f4a5      0x14d ../lab7_bsp/\libucosii_bsp.a(altera_avalon_cfi_flash_intel.o)
 .debug_abbrev  0x0000f5f2       0x7c ../lab7_bsp/\libucosii_bsp.a(altera_avalon_spi.o)
 .debug_abbrev  0x0000f66e      0x173 ../lab7_bsp/\libucosii_bsp.a(allports.o)
 .debug_abbrev  0x0000f7e1      0x151 ../lab7_bsp/\libucosii_bsp.a(timeouts.o)
 .debug_abbrev  0x0000f932       0xa4 ../lab7_bsp/\libucosii_bsp.a(tk_misc.o)
 .debug_abbrev  0x0000f9d6       0x92 ../lab7_bsp/\libucosii_bsp.a(alt_iniche_fcntl.o)
 .debug_abbrev  0x0000fa68      0x1eb ../lab7_bsp/\libucosii_bsp.a(et_arp.o)
 .debug_abbrev  0x0000fc53      0x13d ../lab7_bsp/\libucosii_bsp.a(iface.o)
 .debug_abbrev  0x0000fd90      0x1ed ../lab7_bsp/\libucosii_bsp.a(ip.o)
 .debug_abbrev  0x0000ff7d      0x1ca ../lab7_bsp/\libucosii_bsp.a(ip_reasm.o)
 .debug_abbrev  0x00010147      0x166 ../lab7_bsp/\libucosii_bsp.a(ipdemux.o)
 .debug_abbrev  0x000102ad      0x114 ../lab7_bsp/\libucosii_bsp.a(ipmc.o)
 .debug_abbrev  0x000103c1       0xe9 ../lab7_bsp/\libucosii_bsp.a(ipport.o)
 .debug_abbrev  0x000104aa      0x19c ../lab7_bsp/\libucosii_bsp.a(ipraw.o)
 .debug_abbrev  0x00010646      0x156 ../lab7_bsp/\libucosii_bsp.a(iproute.o)
 .debug_abbrev  0x0001079c      0x1c0 ../lab7_bsp/\libucosii_bsp.a(udp.o)
 .debug_abbrev  0x0001095c      0x10e ../lab7_bsp/\libucosii_bsp.a(igmp.o)
 .debug_abbrev  0x00010a6a      0x17a ../lab7_bsp/\libucosii_bsp.a(igmp2.o)
 .debug_abbrev  0x00010be4      0x189 ../lab7_bsp/\libucosii_bsp.a(ipopt.o)
 .debug_abbrev  0x00010d6d      0x15a ../lab7_bsp/\libucosii_bsp.a(u_mctest.o)
 .debug_abbrev  0x00010ec7      0x12e ../lab7_bsp/\libucosii_bsp.a(dhcsetup.o)
 .debug_abbrev  0x00010ff5      0x175 ../lab7_bsp/\libucosii_bsp.a(memdev.o)
 .debug_abbrev  0x0001116a       0xad ../lab7_bsp/\libucosii_bsp.a(tcpcksum.o)
 .debug_abbrev  0x00011217      0x19f ../lab7_bsp/\libucosii_bsp.a(in_pcb.o)
 .debug_abbrev  0x000113b6      0x1b6 ../lab7_bsp/\libucosii_bsp.a(vfsfiles.o)
 .debug_abbrev  0x0001156c       0x77 ../lab7_bsp/\libucosii_bsp.a(vfsport.o)
 .debug_abbrev  0x000115e3       0x12 ../lab7_bsp/\libucosii_bsp.a(alt_exception_entry.o)
 .debug_abbrev  0x000115f5      0x107 ../lab7_bsp/\libucosii_bsp.a(alt_fcntl.o)
 .debug_abbrev  0x000116fc       0xd6 ../lab7_bsp/\libucosii_bsp.a(alt_find_file.o)
 .debug_abbrev  0x000117d2      0x173 ../lab7_bsp/\libucosii_bsp.a(alt_get_fd.o)
 .debug_abbrev  0x00011945      0x15d ../lab7_bsp/\libucosii_bsp.a(icmp.o)
 .debug_abbrev  0x00011aa2       0xb7 d:/altera/13.0sp1/nios2eds/bin/gnu/h-i686-mingw32/bin/../lib/gcc/nios2-elf/4.1.2/../../../../nios2-elf/lib\libc.a(lib_a-atexit.o)
 .debug_abbrev  0x00011b59      0x17f d:/altera/13.0sp1/nios2eds/bin/gnu/h-i686-mingw32/bin/../lib/gcc/nios2-elf/4.1.2/../../../../nios2-elf/lib\libc.a(lib_a-calloc.o)
 .debug_abbrev  0x00011cd8      0x187 d:/altera/13.0sp1/nios2eds/bin/gnu/h-i686-mingw32/bin/../lib/gcc/nios2-elf/4.1.2/../../../../nios2-elf/lib\libc.a(lib_a-malloc.o)
 .debug_abbrev  0x00011e5f       0x7c d:/altera/13.0sp1/nios2eds/bin/gnu/h-i686-mingw32/bin/../lib/gcc/nios2-elf/4.1.2/../../../../nios2-elf/lib\libc.a(lib_a-memcmp.o)
 .debug_abbrev  0x00011edb      0x191 d:/altera/13.0sp1/nios2eds/bin/gnu/h-i686-mingw32/bin/../lib/gcc/nios2-elf/4.1.2/../../../../nios2-elf/lib\libc.a(lib_a-sprintf.o)
 .debug_abbrev  0x0001206c       0x8f d:/altera/13.0sp1/nios2eds/bin/gnu/h-i686-mingw32/bin/../lib/gcc/nios2-elf/4.1.2/../../../../nios2-elf/lib\libc.a(lib_a-strcpy.o)
 .debug_abbrev  0x000120fb       0x8d d:/altera/13.0sp1/nios2eds/bin/gnu/h-i686-mingw32/bin/../lib/gcc/nios2-elf/4.1.2/../../../../nios2-elf/lib\libc.a(lib_a-strncmp.o)
 .debug_abbrev  0x00012188       0x9c d:/altera/13.0sp1/nios2eds/bin/gnu/h-i686-mingw32/bin/../lib/gcc/nios2-elf/4.1.2/../../../../nios2-elf/lib\libc.a(lib_a-strncpy.o)
 .debug_abbrev  0x00012224      0x170 d:/altera/13.0sp1/nios2eds/bin/gnu/h-i686-mingw32/bin/../lib/gcc/nios2-elf/4.1.2/../../../../nios2-elf/lib\libc.a(lib_a-vprintf.o)
 .debug_abbrev  0x00012394      0x1a5 d:/altera/13.0sp1/nios2eds/bin/gnu/h-i686-mingw32/bin/../lib/gcc/nios2-elf/4.1.2/../../../../nios2-elf/lib\libc.a(lib_a-vsprintf.o)
 .debug_abbrev  0x00012539      0x1ae d:/altera/13.0sp1/nios2eds/bin/gnu/h-i686-mingw32/bin/../lib/gcc/nios2-elf/4.1.2/../../../../nios2-elf/lib\libc.a(lib_a-__atexit.o)

.debug_line     0x00000000    0x420c6
 *(.debug_line)
 .debug_line    0x00000000       0x57 ../lab7_bsp//obj/HAL/src/crt0.o
 .debug_line    0x00000057      0x342 obj/default/LCD.o
 .debug_line    0x00000399      0x4f5 obj/default/SSS_DE2_115.o
 .debug_line    0x0000088e      0x708 obj/default/alt_error_handler.o
 .debug_line    0x00000f96      0xaad obj/default/dm9000a.o
 .debug_line    0x00001a43      0x619 obj/default/iniche_init.o
 .debug_line    0x0000205c      0x408 obj/default/led.o
 .debug_line    0x00002464      0x7bc obj/default/network_utilities.o
 .debug_line    0x00002c20      0x780 obj/default/simple_socket_server.o
 .debug_line    0x000033a0       0x24 obj/default/tse_my_system.o
 .debug_line    0x000033c4       0xff d:/altera/13.0sp1/nios2eds/bin/gnu/h-i686-mingw32/bin/../lib/gcc/nios2-elf/4.1.2\libgcc.a(_fixunsdfsi.o)
 .debug_line    0x000034c3      0x430 d:/altera/13.0sp1/nios2eds/bin/gnu/h-i686-mingw32/bin/../lib/gcc/nios2-elf/4.1.2\libgcc.a(_addsub_df.o)
 .debug_line    0x000038f3      0x3e5 d:/altera/13.0sp1/nios2eds/bin/gnu/h-i686-mingw32/bin/../lib/gcc/nios2-elf/4.1.2\libgcc.a(_mul_df.o)
 .debug_line    0x00003cd8      0x129 d:/altera/13.0sp1/nios2eds/bin/gnu/h-i686-mingw32/bin/../lib/gcc/nios2-elf/4.1.2\libgcc.a(_ge_df.o)
 .debug_line    0x00003e01      0x149 d:/altera/13.0sp1/nios2eds/bin/gnu/h-i686-mingw32/bin/../lib/gcc/nios2-elf/4.1.2\libgcc.a(_df_to_si.o)
 .debug_line    0x00003f4a       0x94 d:/altera/13.0sp1/nios2eds/bin/gnu/h-i686-mingw32/bin/../lib/gcc/nios2-elf/4.1.2\libgcc.a(_thenan_df.o)
 .debug_line    0x00003fde      0x189 d:/altera/13.0sp1/nios2eds/bin/gnu/h-i686-mingw32/bin/../lib/gcc/nios2-elf/4.1.2\libgcc.a(_usi_to_df.o)
 .debug_line    0x00004167      0x11f d:/altera/13.0sp1/nios2eds/bin/gnu/h-i686-mingw32/bin/../lib/gcc/nios2-elf/4.1.2\libgcc.a(_muldi3.o)
 .debug_line    0x00004286      0x105 d:/altera/13.0sp1/nios2eds/bin/gnu/h-i686-mingw32/bin/../lib/gcc/nios2-elf/4.1.2\libgcc.a(_clzsi2.o)
 .debug_line    0x0000438b      0x222 d:/altera/13.0sp1/nios2eds/bin/gnu/h-i686-mingw32/bin/../lib/gcc/nios2-elf/4.1.2\libgcc.a(_pack_df.o)
 .debug_line    0x000045ad      0x1e4 d:/altera/13.0sp1/nios2eds/bin/gnu/h-i686-mingw32/bin/../lib/gcc/nios2-elf/4.1.2\libgcc.a(_unpack_df.o)
 .debug_line    0x00004791      0x187 d:/altera/13.0sp1/nios2eds/bin/gnu/h-i686-mingw32/bin/../lib/gcc/nios2-elf/4.1.2\libgcc.a(_fpcmp_parts_df.o)
 .debug_line    0x00004918       0xaa d:/altera/13.0sp1/nios2eds/bin/gnu/h-i686-mingw32/bin/../lib/gcc/nios2-elf/4.1.2\libgcc.a(_clz.o)
 .debug_line    0x000049c2      0x20a d:/altera/13.0sp1/nios2eds/bin/gnu/h-i686-mingw32/bin/../lib/gcc/nios2-elf/4.1.2/../../../../nios2-elf/lib\libc.a(lib_a-atoi.o)
 .debug_line    0x00004bcc       0x7e d:/altera/13.0sp1/nios2eds/bin/gnu/h-i686-mingw32/bin/../lib/gcc/nios2-elf/4.1.2/../../../../nios2-elf/lib\libc.a(lib_a-ctype_.o)
 .debug_line    0x00004c4a      0x1ec d:/altera/13.0sp1/nios2eds/bin/gnu/h-i686-mingw32/bin/../lib/gcc/nios2-elf/4.1.2/../../../../nios2-elf/lib\libc.a(lib_a-errno.o)
 .debug_line    0x00004e36      0x238 d:/altera/13.0sp1/nios2eds/bin/gnu/h-i686-mingw32/bin/../lib/gcc/nios2-elf/4.1.2/../../../../nios2-elf/lib\libc.a(lib_a-exit.o)
 .debug_line    0x0000506e      0x284 d:/altera/13.0sp1/nios2eds/bin/gnu/h-i686-mingw32/bin/../lib/gcc/nios2-elf/4.1.2/../../../../nios2-elf/lib\libc.a(lib_a-fprintf.o)
 .debug_line    0x000052f2      0x2d9 d:/altera/13.0sp1/nios2eds/bin/gnu/h-i686-mingw32/bin/../lib/gcc/nios2-elf/4.1.2/../../../../nios2-elf/lib\libc.a(lib_a-fwrite.o)
 .debug_line    0x000055cb      0x2a4 d:/altera/13.0sp1/nios2eds/bin/gnu/h-i686-mingw32/bin/../lib/gcc/nios2-elf/4.1.2/../../../../nios2-elf/lib\libc.a(lib_a-getc.o)
 .debug_line    0x0000586f      0x22d d:/altera/13.0sp1/nios2eds/bin/gnu/h-i686-mingw32/bin/../lib/gcc/nios2-elf/4.1.2/../../../../nios2-elf/lib\libc.a(lib_a-impure.o)
 .debug_line    0x00005a9c      0x1ac d:/altera/13.0sp1/nios2eds/bin/gnu/h-i686-mingw32/bin/../lib/gcc/nios2-elf/4.1.2/../../../../nios2-elf/lib\libc.a(lib_a-memcpy.o)
 .debug_line    0x00005c48      0x30a d:/altera/13.0sp1/nios2eds/bin/gnu/h-i686-mingw32/bin/../lib/gcc/nios2-elf/4.1.2/../../../../nios2-elf/lib\libc.a(lib_a-memmove.o)
 .debug_line    0x00005f52      0x301 d:/altera/13.0sp1/nios2eds/bin/gnu/h-i686-mingw32/bin/../lib/gcc/nios2-elf/4.1.2/../../../../nios2-elf/lib\libc.a(lib_a-memset.o)
 .debug_line    0x00006253      0x2a4 d:/altera/13.0sp1/nios2eds/bin/gnu/h-i686-mingw32/bin/../lib/gcc/nios2-elf/4.1.2/../../../../nios2-elf/lib\libc.a(lib_a-perror.o)
 .debug_line    0x000064f7      0x29b d:/altera/13.0sp1/nios2eds/bin/gnu/h-i686-mingw32/bin/../lib/gcc/nios2-elf/4.1.2/../../../../nios2-elf/lib\libc.a(lib_a-printf.o)
 .debug_line    0x00006792      0x2c4 d:/altera/13.0sp1/nios2eds/bin/gnu/h-i686-mingw32/bin/../lib/gcc/nios2-elf/4.1.2/../../../../nios2-elf/lib\libc.a(lib_a-putc.o)
 .debug_line    0x00006a56      0x264 d:/altera/13.0sp1/nios2eds/bin/gnu/h-i686-mingw32/bin/../lib/gcc/nios2-elf/4.1.2/../../../../nios2-elf/lib\libc.a(lib_a-putchar.o)
 .debug_line    0x00006cba      0x2f7 d:/altera/13.0sp1/nios2eds/bin/gnu/h-i686-mingw32/bin/../lib/gcc/nios2-elf/4.1.2/../../../../nios2-elf/lib\libc.a(lib_a-puts.o)
 .debug_line    0x00006fb1      0x28d d:/altera/13.0sp1/nios2eds/bin/gnu/h-i686-mingw32/bin/../lib/gcc/nios2-elf/4.1.2/../../../../nios2-elf/lib\libc.a(lib_a-rget.o)
 .debug_line    0x0000723e      0x2c7 d:/altera/13.0sp1/nios2eds/bin/gnu/h-i686-mingw32/bin/../lib/gcc/nios2-elf/4.1.2/../../../../nios2-elf/lib\libc.a(lib_a-strchr.o)
 .debug_line    0x00007505      0x2d5 d:/altera/13.0sp1/nios2eds/bin/gnu/h-i686-mingw32/bin/../lib/gcc/nios2-elf/4.1.2/../../../../nios2-elf/lib\libc.a(lib_a-strcmp.o)
 .debug_line    0x000077da      0x4e1 d:/altera/13.0sp1/nios2eds/bin/gnu/h-i686-mingw32/bin/../lib/gcc/nios2-elf/4.1.2/../../../../nios2-elf/lib\libc.a(lib_a-strerror.o)
 .debug_line    0x00007cbb      0x26d d:/altera/13.0sp1/nios2eds/bin/gnu/h-i686-mingw32/bin/../lib/gcc/nios2-elf/4.1.2/../../../../nios2-elf/lib\libc.a(lib_a-strlen.o)
 .debug_line    0x00007f28      0x403 d:/altera/13.0sp1/nios2eds/bin/gnu/h-i686-mingw32/bin/../lib/gcc/nios2-elf/4.1.2/../../../../nios2-elf/lib\libc.a(lib_a-strtol.o)
 .debug_line    0x0000832b       0x91 d:/altera/13.0sp1/nios2eds/bin/gnu/h-i686-mingw32/bin/../lib/gcc/nios2-elf/4.1.2/../../../../nios2-elf/lib\libc.a(lib_a-u_strerr.o)
 .debug_line    0x000083bc     0x110c d:/altera/13.0sp1/nios2eds/bin/gnu/h-i686-mingw32/bin/../lib/gcc/nios2-elf/4.1.2/../../../../nios2-elf/lib\libc.a(lib_a-vfprintf.o)
 .debug_line    0x000094c8      0x350 d:/altera/13.0sp1/nios2eds/bin/gnu/h-i686-mingw32/bin/../lib/gcc/nios2-elf/4.1.2/../../../../nios2-elf/lib\libc.a(lib_a-wbuf.o)
 .debug_line    0x00009818      0x2f0 d:/altera/13.0sp1/nios2eds/bin/gnu/h-i686-mingw32/bin/../lib/gcc/nios2-elf/4.1.2/../../../../nios2-elf/lib\libc.a(lib_a-wsetup.o)
 .debug_line    0x00009b08      0x367 d:/altera/13.0sp1/nios2eds/bin/gnu/h-i686-mingw32/bin/../lib/gcc/nios2-elf/4.1.2/../../../../nios2-elf/lib\libc.a(lib_a-__call_atexit.o)
 .debug_line    0x00009e6f     0x12c6 d:/altera/13.0sp1/nios2eds/bin/gnu/h-i686-mingw32/bin/../lib/gcc/nios2-elf/4.1.2/../../../../nios2-elf/lib\libc.a(lib_a-dtoa.o)
 .debug_line    0x0000b135      0x40d d:/altera/13.0sp1/nios2eds/bin/gnu/h-i686-mingw32/bin/../lib/gcc/nios2-elf/4.1.2/../../../../nios2-elf/lib\libc.a(lib_a-fflush.o)
 .debug_line    0x0000b542      0x601 d:/altera/13.0sp1/nios2eds/bin/gnu/h-i686-mingw32/bin/../lib/gcc/nios2-elf/4.1.2/../../../../nios2-elf/lib\libc.a(lib_a-findfp.o)
 .debug_line    0x0000bb43      0x285 d:/altera/13.0sp1/nios2eds/bin/gnu/h-i686-mingw32/bin/../lib/gcc/nios2-elf/4.1.2/../../../../nios2-elf/lib\libc.a(lib_a-fputc.o)
 .debug_line    0x0000bdc8      0x2c8 d:/altera/13.0sp1/nios2eds/bin/gnu/h-i686-mingw32/bin/../lib/gcc/nios2-elf/4.1.2/../../../../nios2-elf/lib\libc.a(lib_a-fputs.o)
 .debug_line    0x0000c090      0x5eb d:/altera/13.0sp1/nios2eds/bin/gnu/h-i686-mingw32/bin/../lib/gcc/nios2-elf/4.1.2/../../../../nios2-elf/lib\libc.a(lib_a-freer.o)
 .debug_line    0x0000c67b      0x641 d:/altera/13.0sp1/nios2eds/bin/gnu/h-i686-mingw32/bin/../lib/gcc/nios2-elf/4.1.2/../../../../nios2-elf/lib\libc.a(lib_a-fvwrite.o)
 .debug_line    0x0000ccbc      0x34a d:/altera/13.0sp1/nios2eds/bin/gnu/h-i686-mingw32/bin/../lib/gcc/nios2-elf/4.1.2/../../../../nios2-elf/lib\libc.a(lib_a-fwalk.o)
 .debug_line    0x0000d006      0x2c8 d:/altera/13.0sp1/nios2eds/bin/gnu/h-i686-mingw32/bin/../lib/gcc/nios2-elf/4.1.2/../../../../nios2-elf/lib\libc.a(lib_a-locale.o)
 .debug_line    0x0000d2ce      0x3c3 d:/altera/13.0sp1/nios2eds/bin/gnu/h-i686-mingw32/bin/../lib/gcc/nios2-elf/4.1.2/../../../../nios2-elf/lib\libc.a(lib_a-makebuf.o)
 .debug_line    0x0000d691      0x80a d:/altera/13.0sp1/nios2eds/bin/gnu/h-i686-mingw32/bin/../lib/gcc/nios2-elf/4.1.2/../../../../nios2-elf/lib\libc.a(lib_a-mallocr.o)
 .debug_line    0x0000de9b      0x303 d:/altera/13.0sp1/nios2eds/bin/gnu/h-i686-mingw32/bin/../lib/gcc/nios2-elf/4.1.2/../../../../nios2-elf/lib\libc.a(lib_a-memchr.o)
 .debug_line    0x0000e19e     0x1243 d:/altera/13.0sp1/nios2eds/bin/gnu/h-i686-mingw32/bin/../lib/gcc/nios2-elf/4.1.2/../../../../nios2-elf/lib\libc.a(lib_a-mprec.o)
 .debug_line    0x0000f3e1      0x58a d:/altera/13.0sp1/nios2eds/bin/gnu/h-i686-mingw32/bin/../lib/gcc/nios2-elf/4.1.2/../../../../nios2-elf/lib\libc.a(lib_a-reallocr.o)
 .debug_line    0x0000f96b      0x3c4 d:/altera/13.0sp1/nios2eds/bin/gnu/h-i686-mingw32/bin/../lib/gcc/nios2-elf/4.1.2/../../../../nios2-elf/lib\libc.a(lib_a-refill.o)
 .debug_line    0x0000fd2f      0x222 d:/altera/13.0sp1/nios2eds/bin/gnu/h-i686-mingw32/bin/../lib/gcc/nios2-elf/4.1.2/../../../../nios2-elf/lib\libc.a(lib_a-s_isinfd.o)
 .debug_line    0x0000ff51      0x21a d:/altera/13.0sp1/nios2eds/bin/gnu/h-i686-mingw32/bin/../lib/gcc/nios2-elf/4.1.2/../../../../nios2-elf/lib\libc.a(lib_a-s_isnand.o)
 .debug_line    0x0001016b      0x299 d:/altera/13.0sp1/nios2eds/bin/gnu/h-i686-mingw32/bin/../lib/gcc/nios2-elf/4.1.2/../../../../nios2-elf/lib\libc.a(lib_a-sbrkr.o)
 .debug_line    0x00010404      0x38c d:/altera/13.0sp1/nios2eds/bin/gnu/h-i686-mingw32/bin/../lib/gcc/nios2-elf/4.1.2/../../../../nios2-elf/lib\libc.a(lib_a-stdio.o)
 .debug_line    0x00010790      0x29a d:/altera/13.0sp1/nios2eds/bin/gnu/h-i686-mingw32/bin/../lib/gcc/nios2-elf/4.1.2/../../../../nios2-elf/lib\libc.a(lib_a-writer.o)
 .debug_line    0x00010a2a      0x25c d:/altera/13.0sp1/nios2eds/bin/gnu/h-i686-mingw32/bin/../lib/gcc/nios2-elf/4.1.2/../../../../nios2-elf/lib\libc.a(lib_a-callocr.o)
 .debug_line    0x00010c86      0x29a d:/altera/13.0sp1/nios2eds/bin/gnu/h-i686-mingw32/bin/../lib/gcc/nios2-elf/4.1.2/../../../../nios2-elf/lib\libc.a(lib_a-closer.o)
 .debug_line    0x00010f20      0x2e8 d:/altera/13.0sp1/nios2eds/bin/gnu/h-i686-mingw32/bin/../lib/gcc/nios2-elf/4.1.2/../../../../nios2-elf/lib\libc.a(lib_a-fclose.o)
 .debug_line    0x00011208      0x264 d:/altera/13.0sp1/nios2eds/bin/gnu/h-i686-mingw32/bin/../lib/gcc/nios2-elf/4.1.2/../../../../nios2-elf/lib\libc.a(lib_a-fstatr.o)
 .debug_line    0x0001146c      0x1df d:/altera/13.0sp1/nios2eds/bin/gnu/h-i686-mingw32/bin/../lib/gcc/nios2-elf/4.1.2/../../../../nios2-elf/lib\libc.a(lib_a-int_errno.o)
 .debug_line    0x0001164b      0x29b d:/altera/13.0sp1/nios2eds/bin/gnu/h-i686-mingw32/bin/../lib/gcc/nios2-elf/4.1.2/../../../../nios2-elf/lib\libc.a(lib_a-isattyr.o)
 .debug_line    0x000118e6      0x29a d:/altera/13.0sp1/nios2eds/bin/gnu/h-i686-mingw32/bin/../lib/gcc/nios2-elf/4.1.2/../../../../nios2-elf/lib\libc.a(lib_a-lseekr.o)
 .debug_line    0x00011b80      0x299 d:/altera/13.0sp1/nios2eds/bin/gnu/h-i686-mingw32/bin/../lib/gcc/nios2-elf/4.1.2/../../../../nios2-elf/lib\libc.a(lib_a-readr.o)
 .debug_line    0x00011e19      0x2f2 d:/altera/13.0sp1/nios2eds/bin/gnu/h-i686-mingw32/bin/../lib/gcc/nios2-elf/4.1.2\libgcc.a(_udivdi3.o)
 .debug_line    0x0001210b      0x37d d:/altera/13.0sp1/nios2eds/bin/gnu/h-i686-mingw32/bin/../lib/gcc/nios2-elf/4.1.2\libgcc.a(_umoddi3.o)
 .debug_line    0x00012488      0x301 d:/altera/13.0sp1/nios2eds/bin/gnu/h-i686-mingw32/bin/../lib/gcc/nios2-elf/4.1.2\libgcc.a(_div_df.o)
 .debug_line    0x00012789      0x129 d:/altera/13.0sp1/nios2eds/bin/gnu/h-i686-mingw32/bin/../lib/gcc/nios2-elf/4.1.2\libgcc.a(_eq_df.o)
 .debug_line    0x000128b2      0x129 d:/altera/13.0sp1/nios2eds/bin/gnu/h-i686-mingw32/bin/../lib/gcc/nios2-elf/4.1.2\libgcc.a(_ne_df.o)
 .debug_line    0x000129db      0x129 d:/altera/13.0sp1/nios2eds/bin/gnu/h-i686-mingw32/bin/../lib/gcc/nios2-elf/4.1.2\libgcc.a(_gt_df.o)
 .debug_line    0x00012b04      0x129 d:/altera/13.0sp1/nios2eds/bin/gnu/h-i686-mingw32/bin/../lib/gcc/nios2-elf/4.1.2\libgcc.a(_lt_df.o)
 .debug_line    0x00012c2d      0x175 d:/altera/13.0sp1/nios2eds/bin/gnu/h-i686-mingw32/bin/../lib/gcc/nios2-elf/4.1.2\libgcc.a(_si_to_df.o)
 .debug_line    0x00012da2      0x24f d:/altera/13.0sp1/nios2eds/bin/gnu/h-i686-mingw32/bin/../lib/gcc/nios2-elf/4.1.2\libgcc.a(lib2-divmod.o)
 .debug_line    0x00012ff1      0x276 ../lab7_bsp/\libucosii_bsp.a(alt_exit.o)
 .debug_line    0x00013267      0x2c8 ../lab7_bsp/\libucosii_bsp.a(alt_flash_dev.o)
 .debug_line    0x0001352f      0x301 ../lab7_bsp/\libucosii_bsp.a(alt_fstat.o)
 .debug_line    0x00013830      0x36d ../lab7_bsp/\libucosii_bsp.a(alt_irq_register.o)
 .debug_line    0x00013b9d       0x72 ../lab7_bsp/\libucosii_bsp.a(alt_irq_vars.o)
 .debug_line    0x00013c0f      0x302 ../lab7_bsp/\libucosii_bsp.a(alt_isatty.o)
 .debug_line    0x00013f11      0x301 ../lab7_bsp/\libucosii_bsp.a(alt_lseek.o)
 .debug_line    0x00014212      0x349 ../lab7_bsp/\libucosii_bsp.a(alt_main.o)
 .debug_line    0x0001455b      0x261 ../lab7_bsp/\libucosii_bsp.a(alt_sbrk.o)
 .debug_line    0x000147bc      0x2ad ../lab7_bsp/\libucosii_bsp.a(alt_usleep.o)
 .debug_line    0x00014a69      0x2bf ../lab7_bsp/\libucosii_bsp.a(alt_env_lock.o)
 .debug_line    0x00014d28      0x37b ../lab7_bsp/\libucosii_bsp.a(alt_malloc_lock.o)
 .debug_line    0x000150a3     0x1663 ../lab7_bsp/\libucosii_bsp.a(os_core.o)
 .debug_line    0x00016706      0x388 ../lab7_bsp/\libucosii_bsp.a(os_dbg.o)
 .debug_line    0x00016a8e     0x11e7 ../lab7_bsp/\libucosii_bsp.a(os_flag.o)
 .debug_line    0x00017c75      0x78a ../lab7_bsp/\libucosii_bsp.a(os_mem.o)
 .debug_line    0x000183ff      0xe6b ../lab7_bsp/\libucosii_bsp.a(os_q.o)
 .debug_line    0x0001926a      0xa23 ../lab7_bsp/\libucosii_bsp.a(os_sem.o)
 .debug_line    0x00019c8d     0x112c ../lab7_bsp/\libucosii_bsp.a(os_task.o)
 .debug_line    0x0001adb9      0x52f ../lab7_bsp/\libucosii_bsp.a(os_time.o)
 .debug_line    0x0001b2e8      0x404 ../lab7_bsp/\libucosii_bsp.a(alt_sys_init.o)
 .debug_line    0x0001b6ec      0x573 ../lab7_bsp/\libucosii_bsp.a(altera_avalon_cfi_flash.o)
 .debug_line    0x0001bc5f      0x979 ../lab7_bsp/\libucosii_bsp.a(altera_avalon_cfi_flash_table.o)
 .debug_line    0x0001c5d8      0x6ef ../lab7_bsp/\libucosii_bsp.a(altera_avalon_epcs_flash_controller.o)
 .debug_line    0x0001ccc7      0x319 ../lab7_bsp/\libucosii_bsp.a(altera_avalon_jtag_uart_fd.o)
 .debug_line    0x0001cfe0      0x598 ../lab7_bsp/\libucosii_bsp.a(altera_avalon_jtag_uart_init.o)
 .debug_line    0x0001d578      0x356 ../lab7_bsp/\libucosii_bsp.a(altera_avalon_jtag_uart_ioctl.o)
 .debug_line    0x0001d8ce      0x494 ../lab7_bsp/\libucosii_bsp.a(altera_avalon_jtag_uart_read.o)
 .debug_line    0x0001dd62      0x4a2 ../lab7_bsp/\libucosii_bsp.a(altera_avalon_jtag_uart_write.o)
 .debug_line    0x0001e204      0x940 ../lab7_bsp/\libucosii_bsp.a(altera_avalon_lcd_16207.o)
 .debug_line    0x0001eb44      0x2b9 ../lab7_bsp/\libucosii_bsp.a(altera_avalon_lcd_16207_fd.o)
 .debug_line    0x0001edfd      0x2b3 ../lab7_bsp/\libucosii_bsp.a(altera_avalon_timer_sc.o)
 .debug_line    0x0001f0b0      0x2f7 ../lab7_bsp/\libucosii_bsp.a(altera_avalon_uart_fd.o)
 .debug_line    0x0001f3a7      0x567 ../lab7_bsp/\libucosii_bsp.a(altera_avalon_uart_init.o)
 .debug_line    0x0001f90e      0x4b3 ../lab7_bsp/\libucosii_bsp.a(altera_avalon_uart_read.o)
 .debug_line    0x0001fdc1      0x495 ../lab7_bsp/\libucosii_bsp.a(altera_avalon_uart_write.o)
 .debug_line    0x00020256      0x408 ../lab7_bsp/\libucosii_bsp.a(epcs_commands.o)
 .debug_line    0x0002065e      0x347 ../lab7_bsp/\libucosii_bsp.a(alt_iniche_close.o)
 .debug_line    0x000209a5      0x3ea ../lab7_bsp/\libucosii_bsp.a(alt_iniche_dev.o)
 .debug_line    0x00020d8f      0x346 ../lab7_bsp/\libucosii_bsp.a(alt_iniche_read.o)
 .debug_line    0x000210d5      0x357 ../lab7_bsp/\libucosii_bsp.a(alt_iniche_write.o)
 .debug_line    0x0002142c      0x7a6 ../lab7_bsp/\libucosii_bsp.a(ipnet.o)
 .debug_line    0x00021bd2      0x4e7 ../lab7_bsp/\libucosii_bsp.a(ipstart.o)
 .debug_line    0x000220b9      0x91c ../lab7_bsp/\libucosii_bsp.a(igmp_cmn.o)
 .debug_line    0x000229d5      0x6c7 ../lab7_bsp/\libucosii_bsp.a(bsdsock.o)
 .debug_line    0x0002309c      0x30a ../lab7_bsp/\libucosii_bsp.a(cksum.o)
 .debug_line    0x000233a6      0x7a9 ../lab7_bsp/\libucosii_bsp.a(in_utils.o)
 .debug_line    0x00023b4f      0x43f ../lab7_bsp/\libucosii_bsp.a(netmain.o)
 .debug_line    0x00023f8e      0x64d ../lab7_bsp/\libucosii_bsp.a(parseip.o)
 .debug_line    0x000245db      0x5a8 ../lab7_bsp/\libucosii_bsp.a(tk_crnos.o)
 .debug_line    0x00024b83     0x1069 ../lab7_bsp/\libucosii_bsp.a(dhcpclnt.o)
 .debug_line    0x00025bec      0x2ff ../lab7_bsp/\libucosii_bsp.a(dhcputil.o)
 .debug_line    0x00025eeb      0x649 ../lab7_bsp/\libucosii_bsp.a(pktalloc.o)
 .debug_line    0x00026534      0x3db ../lab7_bsp/\libucosii_bsp.a(q.o)
 .debug_line    0x0002690f      0x46e ../lab7_bsp/\libucosii_bsp.a(udp_open.o)
 .debug_line    0x00026d7d       0xaf ../lab7_bsp/\libucosii_bsp.a(asm_cksum.o)
 .debug_line    0x00026e2c      0x472 ../lab7_bsp/\libucosii_bsp.a(brdutils.o)
 .debug_line    0x0002729e      0x4ff ../lab7_bsp/\libucosii_bsp.a(osportco.o)
 .debug_line    0x0002779d      0x63e ../lab7_bsp/\libucosii_bsp.a(targnios.o)
 .debug_line    0x00027ddb      0xf23 ../lab7_bsp/\libucosii_bsp.a(nptcp.o)
 .debug_line    0x00028cfe      0x848 ../lab7_bsp/\libucosii_bsp.a(rawsock.o)
 .debug_line    0x00029546      0xe36 ../lab7_bsp/\libucosii_bsp.a(sockcall.o)
 .debug_line    0x0002a37c     0x12b8 ../lab7_bsp/\libucosii_bsp.a(socket.o)
 .debug_line    0x0002b634      0xbec ../lab7_bsp/\libucosii_bsp.a(socket2.o)
 .debug_line    0x0002c220      0x72d ../lab7_bsp/\libucosii_bsp.a(soselect.o)
 .debug_line    0x0002c94d     0x15ee ../lab7_bsp/\libucosii_bsp.a(tcp_in.o)
 .debug_line    0x0002df3b      0xa59 ../lab7_bsp/\libucosii_bsp.a(tcp_out.o)
 .debug_line    0x0002e994      0x7c3 ../lab7_bsp/\libucosii_bsp.a(tcp_subr.o)
 .debug_line    0x0002f157      0x613 ../lab7_bsp/\libucosii_bsp.a(tcp_timr.o)
 .debug_line    0x0002f76a      0x8a2 ../lab7_bsp/\libucosii_bsp.a(tcp_usr.o)
 .debug_line    0x0003000c      0x33f ../lab7_bsp/\libucosii_bsp.a(tcpport.o)
 .debug_line    0x0003034b      0x959 ../lab7_bsp/\libucosii_bsp.a(udpsock.o)
 .debug_line    0x00030ca4      0x2dc ../lab7_bsp/\libucosii_bsp.a(alt_alarm_start.o)
 .debug_line    0x00030f80      0x25c ../lab7_bsp/\libucosii_bsp.a(alt_busy_sleep.o)
 .debug_line    0x000311dc      0x2f9 ../lab7_bsp/\libucosii_bsp.a(alt_close.o)
 .debug_line    0x000314d5      0x1e1 ../lab7_bsp/\libucosii_bsp.a(alt_dcache_flush.o)
 .debug_line    0x000316b6      0x2ba ../lab7_bsp/\libucosii_bsp.a(alt_dev.o)
 .debug_line    0x00031970      0x25a ../lab7_bsp/\libucosii_bsp.a(alt_dev_llist_insert.o)
 .debug_line    0x00031bca       0x83 ../lab7_bsp/\libucosii_bsp.a(alt_do_ctors.o)
 .debug_line    0x00031c4d       0x83 ../lab7_bsp/\libucosii_bsp.a(alt_do_dtors.o)
 .debug_line    0x00031cd0      0x1aa ../lab7_bsp/\libucosii_bsp.a(alt_errno.o)
 .debug_line    0x00031e7a      0x2da ../lab7_bsp/\libucosii_bsp.a(alt_find_dev.o)
 .debug_line    0x00032154      0x2c8 ../lab7_bsp/\libucosii_bsp.a(alt_iic.o)
 .debug_line    0x0003241c      0x249 ../lab7_bsp/\libucosii_bsp.a(alt_iic_isr_register.o)
 .debug_line    0x00032665      0x323 ../lab7_bsp/\libucosii_bsp.a(alt_io_redirect.o)
 .debug_line    0x00032988       0x6b ../lab7_bsp/\libucosii_bsp.a(alt_irq_entry.o)
 .debug_line    0x000329f3      0x2c4 ../lab7_bsp/\libucosii_bsp.a(alt_irq_handler.o)
 .debug_line    0x00032cb7      0x35f ../lab7_bsp/\libucosii_bsp.a(alt_open.o)
 .debug_line    0x00033016      0x328 ../lab7_bsp/\libucosii_bsp.a(alt_read.o)
 .debug_line    0x0003333e      0x279 ../lab7_bsp/\libucosii_bsp.a(alt_release_fd.o)
 .debug_line    0x000335b7      0x1b9 ../lab7_bsp/\libucosii_bsp.a(alt_remap_cached.o)
 .debug_line    0x00033770      0x1c3 ../lab7_bsp/\libucosii_bsp.a(alt_remap_uncached.o)
 .debug_line    0x00033933      0x316 ../lab7_bsp/\libucosii_bsp.a(alt_tick.o)
 .debug_line    0x00033c49      0x329 ../lab7_bsp/\libucosii_bsp.a(alt_write.o)
 .debug_line    0x00033f72      0x1ce ../lab7_bsp/\libucosii_bsp.a(altera_nios2_qsys_irq.o)
 .debug_line    0x00034140       0x86 ../lab7_bsp/\libucosii_bsp.a(os_cpu_a.o)
 .debug_line    0x000341c6      0x330 ../lab7_bsp/\libucosii_bsp.a(os_cpu_c.o)
 .debug_line    0x000344f6      0x445 ../lab7_bsp/\libucosii_bsp.a(altera_avalon_cfi_flash_amd.o)
 .debug_line    0x0003493b      0x437 ../lab7_bsp/\libucosii_bsp.a(altera_avalon_cfi_flash_intel.o)
 .debug_line    0x00034d72      0x1f2 ../lab7_bsp/\libucosii_bsp.a(altera_avalon_spi.o)
 .debug_line    0x00034f64      0x51f ../lab7_bsp/\libucosii_bsp.a(allports.o)
 .debug_line    0x00035483      0x483 ../lab7_bsp/\libucosii_bsp.a(timeouts.o)
 .debug_line    0x00035906      0x370 ../lab7_bsp/\libucosii_bsp.a(tk_misc.o)
 .debug_line    0x00035c76      0x38f ../lab7_bsp/\libucosii_bsp.a(alt_iniche_fcntl.o)
 .debug_line    0x00036005      0xca2 ../lab7_bsp/\libucosii_bsp.a(et_arp.o)
 .debug_line    0x00036ca7      0x479 ../lab7_bsp/\libucosii_bsp.a(iface.o)
 .debug_line    0x00037120      0xf95 ../lab7_bsp/\libucosii_bsp.a(ip.o)
 .debug_line    0x000380b5      0xf7c ../lab7_bsp/\libucosii_bsp.a(ip_reasm.o)
 .debug_line    0x00039031      0x786 ../lab7_bsp/\libucosii_bsp.a(ipdemux.o)
 .debug_line    0x000397b7      0x468 ../lab7_bsp/\libucosii_bsp.a(ipmc.o)
 .debug_line    0x00039c1f      0x338 ../lab7_bsp/\libucosii_bsp.a(ipport.o)
 .debug_line    0x00039f57      0x5b9 ../lab7_bsp/\libucosii_bsp.a(ipraw.o)
 .debug_line    0x0003a510      0x5bb ../lab7_bsp/\libucosii_bsp.a(iproute.o)
 .debug_line    0x0003aacb      0x7f6 ../lab7_bsp/\libucosii_bsp.a(udp.o)
 .debug_line    0x0003b2c1      0x43a ../lab7_bsp/\libucosii_bsp.a(igmp.o)
 .debug_line    0x0003b6fb      0x62d ../lab7_bsp/\libucosii_bsp.a(igmp2.o)
 .debug_line    0x0003bd28      0x711 ../lab7_bsp/\libucosii_bsp.a(ipopt.o)
 .debug_line    0x0003c439      0x5fb ../lab7_bsp/\libucosii_bsp.a(u_mctest.o)
 .debug_line    0x0003ca34      0x43f ../lab7_bsp/\libucosii_bsp.a(dhcsetup.o)
 .debug_line    0x0003ce73      0x449 ../lab7_bsp/\libucosii_bsp.a(memdev.o)
 .debug_line    0x0003d2bc      0x3b9 ../lab7_bsp/\libucosii_bsp.a(tcpcksum.o)
 .debug_line    0x0003d675      0x76d ../lab7_bsp/\libucosii_bsp.a(in_pcb.o)
 .debug_line    0x0003dde2      0xff7 ../lab7_bsp/\libucosii_bsp.a(vfsfiles.o)
 .debug_line    0x0003edd9      0x2c4 ../lab7_bsp/\libucosii_bsp.a(vfsport.o)
 .debug_line    0x0003f09d       0xab ../lab7_bsp/\libucosii_bsp.a(alt_exception_entry.o)
 .debug_line    0x0003f148      0x358 ../lab7_bsp/\libucosii_bsp.a(alt_fcntl.o)
 .debug_line    0x0003f4a0      0x2eb ../lab7_bsp/\libucosii_bsp.a(alt_find_file.o)
 .debug_line    0x0003f78b      0x31b ../lab7_bsp/\libucosii_bsp.a(alt_get_fd.o)
 .debug_line    0x0003faa6      0x958 ../lab7_bsp/\libucosii_bsp.a(icmp.o)
 .debug_line    0x000403fe      0x200 d:/altera/13.0sp1/nios2eds/bin/gnu/h-i686-mingw32/bin/../lib/gcc/nios2-elf/4.1.2/../../../../nios2-elf/lib\libc.a(lib_a-atexit.o)
 .debug_line    0x000405fe      0x20c d:/altera/13.0sp1/nios2eds/bin/gnu/h-i686-mingw32/bin/../lib/gcc/nios2-elf/4.1.2/../../../../nios2-elf/lib\libc.a(lib_a-calloc.o)
 .debug_line    0x0004080a      0x24b d:/altera/13.0sp1/nios2eds/bin/gnu/h-i686-mingw32/bin/../lib/gcc/nios2-elf/4.1.2/../../../../nios2-elf/lib\libc.a(lib_a-malloc.o)
 .debug_line    0x00040a55      0x29f d:/altera/13.0sp1/nios2eds/bin/gnu/h-i686-mingw32/bin/../lib/gcc/nios2-elf/4.1.2/../../../../nios2-elf/lib\libc.a(lib_a-memcmp.o)
 .debug_line    0x00040cf4      0x322 d:/altera/13.0sp1/nios2eds/bin/gnu/h-i686-mingw32/bin/../lib/gcc/nios2-elf/4.1.2/../../../../nios2-elf/lib\libc.a(lib_a-sprintf.o)
 .debug_line    0x00041016      0x287 d:/altera/13.0sp1/nios2eds/bin/gnu/h-i686-mingw32/bin/../lib/gcc/nios2-elf/4.1.2/../../../../nios2-elf/lib\libc.a(lib_a-strcpy.o)
 .debug_line    0x0004129d      0x2fe d:/altera/13.0sp1/nios2eds/bin/gnu/h-i686-mingw32/bin/../lib/gcc/nios2-elf/4.1.2/../../../../nios2-elf/lib\libc.a(lib_a-strncmp.o)
 .debug_line    0x0004159b      0x2d0 d:/altera/13.0sp1/nios2eds/bin/gnu/h-i686-mingw32/bin/../lib/gcc/nios2-elf/4.1.2/../../../../nios2-elf/lib\libc.a(lib_a-strncpy.o)
 .debug_line    0x0004186b      0x26f d:/altera/13.0sp1/nios2eds/bin/gnu/h-i686-mingw32/bin/../lib/gcc/nios2-elf/4.1.2/../../../../nios2-elf/lib\libc.a(lib_a-vprintf.o)
 .debug_line    0x00041ada      0x2d9 d:/altera/13.0sp1/nios2eds/bin/gnu/h-i686-mingw32/bin/../lib/gcc/nios2-elf/4.1.2/../../../../nios2-elf/lib\libc.a(lib_a-vsprintf.o)
 .debug_line    0x00041db3      0x313 d:/altera/13.0sp1/nios2eds/bin/gnu/h-i686-mingw32/bin/../lib/gcc/nios2-elf/4.1.2/../../../../nios2-elf/lib\libc.a(lib_a-__atexit.o)

.debug_frame    0x00000000     0x675c
 *(.debug_frame)
 .debug_frame   0x00000000       0xbc obj/default/LCD.o
 .debug_frame   0x000000bc       0x48 obj/default/SSS_DE2_115.o
 .debug_frame   0x00000104       0x64 obj/default/alt_error_handler.o
 .debug_frame   0x00000168      0x19c obj/default/dm9000a.o
 .debug_frame   0x00000304       0x4c obj/default/iniche_init.o
 .debug_frame   0x00000350       0x64 obj/default/led.o
 .debug_frame   0x000003b4       0xbc obj/default/network_utilities.o
 .debug_frame   0x00000470       0xfc obj/default/simple_socket_server.o
 .debug_frame   0x0000056c       0x30 d:/altera/13.0sp1/nios2eds/bin/gnu/h-i686-mingw32/bin/../lib/gcc/nios2-elf/4.1.2\libgcc.a(_fixunsdfsi.o)
 .debug_frame   0x0000059c       0x70 d:/altera/13.0sp1/nios2eds/bin/gnu/h-i686-mingw32/bin/../lib/gcc/nios2-elf/4.1.2\libgcc.a(_addsub_df.o)
 .debug_frame   0x0000060c       0x3c d:/altera/13.0sp1/nios2eds/bin/gnu/h-i686-mingw32/bin/../lib/gcc/nios2-elf/4.1.2\libgcc.a(_mul_df.o)
 .debug_frame   0x00000648       0x2c d:/altera/13.0sp1/nios2eds/bin/gnu/h-i686-mingw32/bin/../lib/gcc/nios2-elf/4.1.2\libgcc.a(_ge_df.o)
 .debug_frame   0x00000674       0x28 d:/altera/13.0sp1/nios2eds/bin/gnu/h-i686-mingw32/bin/../lib/gcc/nios2-elf/4.1.2\libgcc.a(_df_to_si.o)
 .debug_frame   0x0000069c       0x38 d:/altera/13.0sp1/nios2eds/bin/gnu/h-i686-mingw32/bin/../lib/gcc/nios2-elf/4.1.2\libgcc.a(_usi_to_df.o)
 .debug_frame   0x000006d4       0x2c d:/altera/13.0sp1/nios2eds/bin/gnu/h-i686-mingw32/bin/../lib/gcc/nios2-elf/4.1.2\libgcc.a(_muldi3.o)
 .debug_frame   0x00000700       0x20 d:/altera/13.0sp1/nios2eds/bin/gnu/h-i686-mingw32/bin/../lib/gcc/nios2-elf/4.1.2\libgcc.a(_clzsi2.o)
 .debug_frame   0x00000720       0x2c d:/altera/13.0sp1/nios2eds/bin/gnu/h-i686-mingw32/bin/../lib/gcc/nios2-elf/4.1.2\libgcc.a(_pack_df.o)
 .debug_frame   0x0000074c       0x20 d:/altera/13.0sp1/nios2eds/bin/gnu/h-i686-mingw32/bin/../lib/gcc/nios2-elf/4.1.2\libgcc.a(_unpack_df.o)
 .debug_frame   0x0000076c       0x20 d:/altera/13.0sp1/nios2eds/bin/gnu/h-i686-mingw32/bin/../lib/gcc/nios2-elf/4.1.2\libgcc.a(_fpcmp_parts_df.o)
 .debug_frame   0x0000078c       0x30 d:/altera/13.0sp1/nios2eds/bin/gnu/h-i686-mingw32/bin/../lib/gcc/nios2-elf/4.1.2/../../../../nios2-elf/lib\libc.a(lib_a-atoi.o)
 .debug_frame   0x000007bc       0x20 d:/altera/13.0sp1/nios2eds/bin/gnu/h-i686-mingw32/bin/../lib/gcc/nios2-elf/4.1.2/../../../../nios2-elf/lib\libc.a(lib_a-errno.o)
 .debug_frame   0x000007dc       0x28 d:/altera/13.0sp1/nios2eds/bin/gnu/h-i686-mingw32/bin/../lib/gcc/nios2-elf/4.1.2/../../../../nios2-elf/lib\libc.a(lib_a-exit.o)
 .debug_frame   0x00000804       0x40 d:/altera/13.0sp1/nios2eds/bin/gnu/h-i686-mingw32/bin/../lib/gcc/nios2-elf/4.1.2/../../../../nios2-elf/lib\libc.a(lib_a-fprintf.o)
 .debug_frame   0x00000844       0x48 d:/altera/13.0sp1/nios2eds/bin/gnu/h-i686-mingw32/bin/../lib/gcc/nios2-elf/4.1.2/../../../../nios2-elf/lib\libc.a(lib_a-fwrite.o)
 .debug_frame   0x0000088c       0x48 d:/altera/13.0sp1/nios2eds/bin/gnu/h-i686-mingw32/bin/../lib/gcc/nios2-elf/4.1.2/../../../../nios2-elf/lib\libc.a(lib_a-getc.o)
 .debug_frame   0x000008d4       0x20 d:/altera/13.0sp1/nios2eds/bin/gnu/h-i686-mingw32/bin/../lib/gcc/nios2-elf/4.1.2/../../../../nios2-elf/lib\libc.a(lib_a-memcpy.o)
 .debug_frame   0x000008f4       0x20 d:/altera/13.0sp1/nios2eds/bin/gnu/h-i686-mingw32/bin/../lib/gcc/nios2-elf/4.1.2/../../../../nios2-elf/lib\libc.a(lib_a-memmove.o)
 .debug_frame   0x00000914       0x20 d:/altera/13.0sp1/nios2eds/bin/gnu/h-i686-mingw32/bin/../lib/gcc/nios2-elf/4.1.2/../../../../nios2-elf/lib\libc.a(lib_a-memset.o)
 .debug_frame   0x00000934       0x38 d:/altera/13.0sp1/nios2eds/bin/gnu/h-i686-mingw32/bin/../lib/gcc/nios2-elf/4.1.2/../../../../nios2-elf/lib\libc.a(lib_a-perror.o)
 .debug_frame   0x0000096c       0x40 d:/altera/13.0sp1/nios2eds/bin/gnu/h-i686-mingw32/bin/../lib/gcc/nios2-elf/4.1.2/../../../../nios2-elf/lib\libc.a(lib_a-printf.o)
 .debug_frame   0x000009ac       0x4c d:/altera/13.0sp1/nios2eds/bin/gnu/h-i686-mingw32/bin/../lib/gcc/nios2-elf/4.1.2/../../../../nios2-elf/lib\libc.a(lib_a-putc.o)
 .debug_frame   0x000009f8       0x30 d:/altera/13.0sp1/nios2eds/bin/gnu/h-i686-mingw32/bin/../lib/gcc/nios2-elf/4.1.2/../../../../nios2-elf/lib\libc.a(lib_a-putchar.o)
 .debug_frame   0x00000a28       0x3c d:/altera/13.0sp1/nios2eds/bin/gnu/h-i686-mingw32/bin/../lib/gcc/nios2-elf/4.1.2/../../../../nios2-elf/lib\libc.a(lib_a-puts.o)
 .debug_frame   0x00000a64       0x38 d:/altera/13.0sp1/nios2eds/bin/gnu/h-i686-mingw32/bin/../lib/gcc/nios2-elf/4.1.2/../../../../nios2-elf/lib\libc.a(lib_a-rget.o)
 .debug_frame   0x00000a9c       0x20 d:/altera/13.0sp1/nios2eds/bin/gnu/h-i686-mingw32/bin/../lib/gcc/nios2-elf/4.1.2/../../../../nios2-elf/lib\libc.a(lib_a-strchr.o)
 .debug_frame   0x00000abc       0x20 d:/altera/13.0sp1/nios2eds/bin/gnu/h-i686-mingw32/bin/../lib/gcc/nios2-elf/4.1.2/../../../../nios2-elf/lib\libc.a(lib_a-strcmp.o)
 .debug_frame   0x00000adc       0x28 d:/altera/13.0sp1/nios2eds/bin/gnu/h-i686-mingw32/bin/../lib/gcc/nios2-elf/4.1.2/../../../../nios2-elf/lib\libc.a(lib_a-strerror.o)
 .debug_frame   0x00000b04       0x20 d:/altera/13.0sp1/nios2eds/bin/gnu/h-i686-mingw32/bin/../lib/gcc/nios2-elf/4.1.2/../../../../nios2-elf/lib\libc.a(lib_a-strlen.o)
 .debug_frame   0x00000b24       0x4c d:/altera/13.0sp1/nios2eds/bin/gnu/h-i686-mingw32/bin/../lib/gcc/nios2-elf/4.1.2/../../../../nios2-elf/lib\libc.a(lib_a-strtol.o)
 .debug_frame   0x00000b70       0x20 d:/altera/13.0sp1/nios2eds/bin/gnu/h-i686-mingw32/bin/../lib/gcc/nios2-elf/4.1.2/../../../../nios2-elf/lib\libc.a(lib_a-u_strerr.o)
 .debug_frame   0x00000b90       0x64 d:/altera/13.0sp1/nios2eds/bin/gnu/h-i686-mingw32/bin/../lib/gcc/nios2-elf/4.1.2/../../../../nios2-elf/lib\libc.a(lib_a-vfprintf.o)
 .debug_frame   0x00000bf4       0x3c d:/altera/13.0sp1/nios2eds/bin/gnu/h-i686-mingw32/bin/../lib/gcc/nios2-elf/4.1.2/../../../../nios2-elf/lib\libc.a(lib_a-wbuf.o)
 .debug_frame   0x00000c30       0x2c d:/altera/13.0sp1/nios2eds/bin/gnu/h-i686-mingw32/bin/../lib/gcc/nios2-elf/4.1.2/../../../../nios2-elf/lib\libc.a(lib_a-wsetup.o)
 .debug_frame   0x00000c5c       0x4c d:/altera/13.0sp1/nios2eds/bin/gnu/h-i686-mingw32/bin/../lib/gcc/nios2-elf/4.1.2/../../../../nios2-elf/lib\libc.a(lib_a-__call_atexit.o)
 .debug_frame   0x00000ca8       0x64 d:/altera/13.0sp1/nios2eds/bin/gnu/h-i686-mingw32/bin/../lib/gcc/nios2-elf/4.1.2/../../../../nios2-elf/lib\libc.a(lib_a-dtoa.o)
 .debug_frame   0x00000d0c       0x40 d:/altera/13.0sp1/nios2eds/bin/gnu/h-i686-mingw32/bin/../lib/gcc/nios2-elf/4.1.2/../../../../nios2-elf/lib\libc.a(lib_a-fflush.o)
 .debug_frame   0x00000d4c      0x118 d:/altera/13.0sp1/nios2eds/bin/gnu/h-i686-mingw32/bin/../lib/gcc/nios2-elf/4.1.2/../../../../nios2-elf/lib\libc.a(lib_a-findfp.o)
 .debug_frame   0x00000e64       0x4c d:/altera/13.0sp1/nios2eds/bin/gnu/h-i686-mingw32/bin/../lib/gcc/nios2-elf/4.1.2/../../../../nios2-elf/lib\libc.a(lib_a-fputc.o)
 .debug_frame   0x00000eb0       0x3c d:/altera/13.0sp1/nios2eds/bin/gnu/h-i686-mingw32/bin/../lib/gcc/nios2-elf/4.1.2/../../../../nios2-elf/lib\libc.a(lib_a-fputs.o)
 .debug_frame   0x00000eec       0x4c d:/altera/13.0sp1/nios2eds/bin/gnu/h-i686-mingw32/bin/../lib/gcc/nios2-elf/4.1.2/../../../../nios2-elf/lib\libc.a(lib_a-freer.o)
 .debug_frame   0x00000f38       0x38 d:/altera/13.0sp1/nios2eds/bin/gnu/h-i686-mingw32/bin/../lib/gcc/nios2-elf/4.1.2/../../../../nios2-elf/lib\libc.a(lib_a-fvwrite.o)
 .debug_frame   0x00000f70       0x60 d:/altera/13.0sp1/nios2eds/bin/gnu/h-i686-mingw32/bin/../lib/gcc/nios2-elf/4.1.2/../../../../nios2-elf/lib\libc.a(lib_a-fwalk.o)
 .debug_frame   0x00000fd0       0x70 d:/altera/13.0sp1/nios2eds/bin/gnu/h-i686-mingw32/bin/../lib/gcc/nios2-elf/4.1.2/../../../../nios2-elf/lib\libc.a(lib_a-locale.o)
 .debug_frame   0x00001040       0x2c d:/altera/13.0sp1/nios2eds/bin/gnu/h-i686-mingw32/bin/../lib/gcc/nios2-elf/4.1.2/../../../../nios2-elf/lib\libc.a(lib_a-makebuf.o)
 .debug_frame   0x0000106c       0x38 d:/altera/13.0sp1/nios2eds/bin/gnu/h-i686-mingw32/bin/../lib/gcc/nios2-elf/4.1.2/../../../../nios2-elf/lib\libc.a(lib_a-mallocr.o)
 .debug_frame   0x000010a4       0x20 d:/altera/13.0sp1/nios2eds/bin/gnu/h-i686-mingw32/bin/../lib/gcc/nios2-elf/4.1.2/../../../../nios2-elf/lib\libc.a(lib_a-memchr.o)
 .debug_frame   0x000010c4      0x218 d:/altera/13.0sp1/nios2eds/bin/gnu/h-i686-mingw32/bin/../lib/gcc/nios2-elf/4.1.2/../../../../nios2-elf/lib\libc.a(lib_a-mprec.o)
 .debug_frame   0x000012dc       0x38 d:/altera/13.0sp1/nios2eds/bin/gnu/h-i686-mingw32/bin/../lib/gcc/nios2-elf/4.1.2/../../../../nios2-elf/lib\libc.a(lib_a-reallocr.o)
 .debug_frame   0x00001314       0x3c d:/altera/13.0sp1/nios2eds/bin/gnu/h-i686-mingw32/bin/../lib/gcc/nios2-elf/4.1.2/../../../../nios2-elf/lib\libc.a(lib_a-refill.o)
 .debug_frame   0x00001350       0x20 d:/altera/13.0sp1/nios2eds/bin/gnu/h-i686-mingw32/bin/../lib/gcc/nios2-elf/4.1.2/../../../../nios2-elf/lib\libc.a(lib_a-s_isinfd.o)
 .debug_frame   0x00001370       0x20 d:/altera/13.0sp1/nios2eds/bin/gnu/h-i686-mingw32/bin/../lib/gcc/nios2-elf/4.1.2/../../../../nios2-elf/lib\libc.a(lib_a-s_isnand.o)
 .debug_frame   0x00001390       0x2c d:/altera/13.0sp1/nios2eds/bin/gnu/h-i686-mingw32/bin/../lib/gcc/nios2-elf/4.1.2/../../../../nios2-elf/lib\libc.a(lib_a-sbrkr.o)
 .debug_frame   0x000013bc       0x78 d:/altera/13.0sp1/nios2eds/bin/gnu/h-i686-mingw32/bin/../lib/gcc/nios2-elf/4.1.2/../../../../nios2-elf/lib\libc.a(lib_a-stdio.o)
 .debug_frame   0x00001434       0x2c d:/altera/13.0sp1/nios2eds/bin/gnu/h-i686-mingw32/bin/../lib/gcc/nios2-elf/4.1.2/../../../../nios2-elf/lib\libc.a(lib_a-writer.o)
 .debug_frame   0x00001460       0x28 d:/altera/13.0sp1/nios2eds/bin/gnu/h-i686-mingw32/bin/../lib/gcc/nios2-elf/4.1.2/../../../../nios2-elf/lib\libc.a(lib_a-callocr.o)
 .debug_frame   0x00001488       0x2c d:/altera/13.0sp1/nios2eds/bin/gnu/h-i686-mingw32/bin/../lib/gcc/nios2-elf/4.1.2/../../../../nios2-elf/lib\libc.a(lib_a-closer.o)
 .debug_frame   0x000014b4       0x3c d:/altera/13.0sp1/nios2eds/bin/gnu/h-i686-mingw32/bin/../lib/gcc/nios2-elf/4.1.2/../../../../nios2-elf/lib\libc.a(lib_a-fclose.o)
 .debug_frame   0x000014f0       0x2c d:/altera/13.0sp1/nios2eds/bin/gnu/h-i686-mingw32/bin/../lib/gcc/nios2-elf/4.1.2/../../../../nios2-elf/lib\libc.a(lib_a-fstatr.o)
 .debug_frame   0x0000151c       0x2c d:/altera/13.0sp1/nios2eds/bin/gnu/h-i686-mingw32/bin/../lib/gcc/nios2-elf/4.1.2/../../../../nios2-elf/lib\libc.a(lib_a-isattyr.o)
 .debug_frame   0x00001548       0x2c d:/altera/13.0sp1/nios2eds/bin/gnu/h-i686-mingw32/bin/../lib/gcc/nios2-elf/4.1.2/../../../../nios2-elf/lib\libc.a(lib_a-lseekr.o)
 .debug_frame   0x00001574       0x2c d:/altera/13.0sp1/nios2eds/bin/gnu/h-i686-mingw32/bin/../lib/gcc/nios2-elf/4.1.2/../../../../nios2-elf/lib\libc.a(lib_a-readr.o)
 .debug_frame   0x000015a0       0x38 d:/altera/13.0sp1/nios2eds/bin/gnu/h-i686-mingw32/bin/../lib/gcc/nios2-elf/4.1.2\libgcc.a(_udivdi3.o)
 .debug_frame   0x000015d8       0x38 d:/altera/13.0sp1/nios2eds/bin/gnu/h-i686-mingw32/bin/../lib/gcc/nios2-elf/4.1.2\libgcc.a(_umoddi3.o)
 .debug_frame   0x00001610       0x30 d:/altera/13.0sp1/nios2eds/bin/gnu/h-i686-mingw32/bin/../lib/gcc/nios2-elf/4.1.2\libgcc.a(_div_df.o)
 .debug_frame   0x00001640       0x2c d:/altera/13.0sp1/nios2eds/bin/gnu/h-i686-mingw32/bin/../lib/gcc/nios2-elf/4.1.2\libgcc.a(_eq_df.o)
 .debug_frame   0x0000166c       0x2c d:/altera/13.0sp1/nios2eds/bin/gnu/h-i686-mingw32/bin/../lib/gcc/nios2-elf/4.1.2\libgcc.a(_ne_df.o)
 .debug_frame   0x00001698       0x2c d:/altera/13.0sp1/nios2eds/bin/gnu/h-i686-mingw32/bin/../lib/gcc/nios2-elf/4.1.2\libgcc.a(_gt_df.o)
 .debug_frame   0x000016c4       0x2c d:/altera/13.0sp1/nios2eds/bin/gnu/h-i686-mingw32/bin/../lib/gcc/nios2-elf/4.1.2\libgcc.a(_lt_df.o)
 .debug_frame   0x000016f0       0x30 d:/altera/13.0sp1/nios2eds/bin/gnu/h-i686-mingw32/bin/../lib/gcc/nios2-elf/4.1.2\libgcc.a(_si_to_df.o)
 .debug_frame   0x00001720       0x70 d:/altera/13.0sp1/nios2eds/bin/gnu/h-i686-mingw32/bin/../lib/gcc/nios2-elf/4.1.2\libgcc.a(lib2-divmod.o)
 .debug_frame   0x00001790       0x48 ../lab7_bsp/\libucosii_bsp.a(alt_exit.o)
 .debug_frame   0x000017d8       0x48 ../lab7_bsp/\libucosii_bsp.a(alt_flash_dev.o)
 .debug_frame   0x00001820       0x48 ../lab7_bsp/\libucosii_bsp.a(alt_fstat.o)
 .debug_frame   0x00001868       0x2c ../lab7_bsp/\libucosii_bsp.a(alt_irq_register.o)
 .debug_frame   0x00001894       0x48 ../lab7_bsp/\libucosii_bsp.a(alt_isatty.o)
 .debug_frame   0x000018dc       0x48 ../lab7_bsp/\libucosii_bsp.a(alt_lseek.o)
 .debug_frame   0x00001924       0x2c ../lab7_bsp/\libucosii_bsp.a(alt_main.o)
 .debug_frame   0x00001950       0x2c ../lab7_bsp/\libucosii_bsp.a(alt_sbrk.o)
 .debug_frame   0x0000197c       0x30 ../lab7_bsp/\libucosii_bsp.a(alt_usleep.o)
 .debug_frame   0x000019ac       0x4c ../lab7_bsp/\libucosii_bsp.a(alt_env_lock.o)
 .debug_frame   0x000019f8       0x4c ../lab7_bsp/\libucosii_bsp.a(alt_malloc_lock.o)
 .debug_frame   0x00001a44      0x3e4 ../lab7_bsp/\libucosii_bsp.a(os_core.o)
 .debug_frame   0x00001e28       0x2c ../lab7_bsp/\libucosii_bsp.a(os_dbg.o)
 .debug_frame   0x00001e54      0x180 ../lab7_bsp/\libucosii_bsp.a(os_flag.o)
 .debug_frame   0x00001fd4       0xd4 ../lab7_bsp/\libucosii_bsp.a(os_mem.o)
 .debug_frame   0x000020a8      0x144 ../lab7_bsp/\libucosii_bsp.a(os_q.o)
 .debug_frame   0x000021ec       0xf0 ../lab7_bsp/\libucosii_bsp.a(os_sem.o)
 .debug_frame   0x000022dc      0x160 ../lab7_bsp/\libucosii_bsp.a(os_task.o)
 .debug_frame   0x0000243c       0xa0 ../lab7_bsp/\libucosii_bsp.a(os_time.o)
 .debug_frame   0x000024dc       0x64 ../lab7_bsp/\libucosii_bsp.a(alt_sys_init.o)
 .debug_frame   0x00002540       0xd4 ../lab7_bsp/\libucosii_bsp.a(altera_avalon_cfi_flash.o)
 .debug_frame   0x00002614      0x210 ../lab7_bsp/\libucosii_bsp.a(altera_avalon_cfi_flash_table.o)
 .debug_frame   0x00002824      0x128 ../lab7_bsp/\libucosii_bsp.a(altera_avalon_epcs_flash_controller.o)
 .debug_frame   0x0000294c       0x80 ../lab7_bsp/\libucosii_bsp.a(altera_avalon_jtag_uart_fd.o)
 .debug_frame   0x000029cc       0x80 ../lab7_bsp/\libucosii_bsp.a(altera_avalon_jtag_uart_init.o)
 .debug_frame   0x00002a4c       0x2c ../lab7_bsp/\libucosii_bsp.a(altera_avalon_jtag_uart_ioctl.o)
 .debug_frame   0x00002a78       0x2c ../lab7_bsp/\libucosii_bsp.a(altera_avalon_jtag_uart_read.o)
 .debug_frame   0x00002aa4       0x2c ../lab7_bsp/\libucosii_bsp.a(altera_avalon_jtag_uart_write.o)
 .debug_frame   0x00002ad0      0x114 ../lab7_bsp/\libucosii_bsp.a(altera_avalon_lcd_16207.o)
 .debug_frame   0x00002be4       0x2c ../lab7_bsp/\libucosii_bsp.a(altera_avalon_lcd_16207_fd.o)
 .debug_frame   0x00002c10       0x48 ../lab7_bsp/\libucosii_bsp.a(altera_avalon_timer_sc.o)
 .debug_frame   0x00002c58       0x64 ../lab7_bsp/\libucosii_bsp.a(altera_avalon_uart_fd.o)
 .debug_frame   0x00002cbc       0x9c ../lab7_bsp/\libucosii_bsp.a(altera_avalon_uart_init.o)
 .debug_frame   0x00002d58       0x48 ../lab7_bsp/\libucosii_bsp.a(altera_avalon_uart_read.o)
 .debug_frame   0x00002da0       0x48 ../lab7_bsp/\libucosii_bsp.a(altera_avalon_uart_write.o)
 .debug_frame   0x00002de8      0x160 ../lab7_bsp/\libucosii_bsp.a(epcs_commands.o)
 .debug_frame   0x00002f48       0x2c ../lab7_bsp/\libucosii_bsp.a(alt_iniche_close.o)
 .debug_frame   0x00002f74       0x2c ../lab7_bsp/\libucosii_bsp.a(alt_iniche_dev.o)
 .debug_frame   0x00002fa0       0x2c ../lab7_bsp/\libucosii_bsp.a(alt_iniche_read.o)
 .debug_frame   0x00002fcc       0x2c ../lab7_bsp/\libucosii_bsp.a(alt_iniche_write.o)
 .debug_frame   0x00002ff8       0xb8 ../lab7_bsp/\libucosii_bsp.a(ipnet.o)
 .debug_frame   0x000030b0       0x80 ../lab7_bsp/\libucosii_bsp.a(ipstart.o)
 .debug_frame   0x00003130       0xf8 ../lab7_bsp/\libucosii_bsp.a(igmp_cmn.o)
 .debug_frame   0x00003228      0x12c ../lab7_bsp/\libucosii_bsp.a(bsdsock.o)
 .debug_frame   0x00003354       0x48 ../lab7_bsp/\libucosii_bsp.a(cksum.o)
 .debug_frame   0x0000339c      0x164 ../lab7_bsp/\libucosii_bsp.a(in_utils.o)
 .debug_frame   0x00003500       0x64 ../lab7_bsp/\libucosii_bsp.a(netmain.o)
 .debug_frame   0x00003564      0x10c ../lab7_bsp/\libucosii_bsp.a(parseip.o)
 .debug_frame   0x00003670       0xd4 ../lab7_bsp/\libucosii_bsp.a(tk_crnos.o)
 .debug_frame   0x00003744      0x250 ../lab7_bsp/\libucosii_bsp.a(dhcpclnt.o)
 .debug_frame   0x00003994       0x2c ../lab7_bsp/\libucosii_bsp.a(dhcputil.o)
 .debug_frame   0x000039c0       0xb8 ../lab7_bsp/\libucosii_bsp.a(pktalloc.o)
 .debug_frame   0x00003a78       0x64 ../lab7_bsp/\libucosii_bsp.a(q.o)
 .debug_frame   0x00003adc       0x48 ../lab7_bsp/\libucosii_bsp.a(udp_open.o)
 .debug_frame   0x00003b24       0xf0 ../lab7_bsp/\libucosii_bsp.a(brdutils.o)
 .debug_frame   0x00003c14       0x9c ../lab7_bsp/\libucosii_bsp.a(osportco.o)
 .debug_frame   0x00003cb0      0x110 ../lab7_bsp/\libucosii_bsp.a(targnios.o)
 .debug_frame   0x00003dc0      0x208 ../lab7_bsp/\libucosii_bsp.a(nptcp.o)
 .debug_frame   0x00003fc8       0x68 ../lab7_bsp/\libucosii_bsp.a(rawsock.o)
 .debug_frame   0x00004030      0x224 ../lab7_bsp/\libucosii_bsp.a(sockcall.o)
 .debug_frame   0x00004254      0x1d4 ../lab7_bsp/\libucosii_bsp.a(socket.o)
 .debug_frame   0x00004428      0x294 ../lab7_bsp/\libucosii_bsp.a(socket2.o)
 .debug_frame   0x000046bc      0x110 ../lab7_bsp/\libucosii_bsp.a(soselect.o)
 .debug_frame   0x000047cc       0xd8 ../lab7_bsp/\libucosii_bsp.a(tcp_in.o)
 .debug_frame   0x000048a4       0x68 ../lab7_bsp/\libucosii_bsp.a(tcp_out.o)
 .debug_frame   0x0000490c      0x10c ../lab7_bsp/\libucosii_bsp.a(tcp_subr.o)
 .debug_frame   0x00004a18       0x64 ../lab7_bsp/\libucosii_bsp.a(tcp_timr.o)
 .debug_frame   0x00004a7c       0x80 ../lab7_bsp/\libucosii_bsp.a(tcp_usr.o)
 .debug_frame   0x00004afc       0x2c ../lab7_bsp/\libucosii_bsp.a(tcpport.o)
 .debug_frame   0x00004b28       0xbc ../lab7_bsp/\libucosii_bsp.a(udpsock.o)
 .debug_frame   0x00004be4       0x2c ../lab7_bsp/\libucosii_bsp.a(alt_alarm_start.o)
 .debug_frame   0x00004c10       0x2c ../lab7_bsp/\libucosii_bsp.a(alt_busy_sleep.o)
 .debug_frame   0x00004c3c       0x48 ../lab7_bsp/\libucosii_bsp.a(alt_close.o)
 .debug_frame   0x00004c84       0x2c ../lab7_bsp/\libucosii_bsp.a(alt_dcache_flush.o)
 .debug_frame   0x00004cb0       0x2c ../lab7_bsp/\libucosii_bsp.a(alt_dev.o)
 .debug_frame   0x00004cdc       0x48 ../lab7_bsp/\libucosii_bsp.a(alt_dev_llist_insert.o)
 .debug_frame   0x00004d24       0x2c ../lab7_bsp/\libucosii_bsp.a(alt_do_ctors.o)
 .debug_frame   0x00004d50       0x2c ../lab7_bsp/\libucosii_bsp.a(alt_do_dtors.o)
 .debug_frame   0x00004d7c       0x2c ../lab7_bsp/\libucosii_bsp.a(alt_find_dev.o)
 .debug_frame   0x00004da8       0x80 ../lab7_bsp/\libucosii_bsp.a(alt_iic.o)
 .debug_frame   0x00004e28       0x2c ../lab7_bsp/\libucosii_bsp.a(alt_iic_isr_register.o)
 .debug_frame   0x00004e54       0x48 ../lab7_bsp/\libucosii_bsp.a(alt_io_redirect.o)
 .debug_frame   0x00004e9c       0x2c ../lab7_bsp/\libucosii_bsp.a(alt_irq_handler.o)
 .debug_frame   0x00004ec8       0x64 ../lab7_bsp/\libucosii_bsp.a(alt_open.o)
 .debug_frame   0x00004f2c       0x48 ../lab7_bsp/\libucosii_bsp.a(alt_read.o)
 .debug_frame   0x00004f74       0x2c ../lab7_bsp/\libucosii_bsp.a(alt_release_fd.o)
 .debug_frame   0x00004fa0       0x2c ../lab7_bsp/\libucosii_bsp.a(alt_remap_cached.o)
 .debug_frame   0x00004fcc       0x2c ../lab7_bsp/\libucosii_bsp.a(alt_remap_uncached.o)
 .debug_frame   0x00004ff8       0x48 ../lab7_bsp/\libucosii_bsp.a(alt_tick.o)
 .debug_frame   0x00005040       0x48 ../lab7_bsp/\libucosii_bsp.a(alt_write.o)
 .debug_frame   0x00005088       0x2c ../lab7_bsp/\libucosii_bsp.a(altera_nios2_qsys_irq.o)
 .debug_frame   0x000050b4      0x128 ../lab7_bsp/\libucosii_bsp.a(os_cpu_c.o)
 .debug_frame   0x000051dc       0x80 ../lab7_bsp/\libucosii_bsp.a(altera_avalon_cfi_flash_amd.o)
 .debug_frame   0x0000525c       0x80 ../lab7_bsp/\libucosii_bsp.a(altera_avalon_cfi_flash_intel.o)
 .debug_frame   0x000052dc       0x2c ../lab7_bsp/\libucosii_bsp.a(altera_avalon_spi.o)
 .debug_frame   0x00005308       0xe0 ../lab7_bsp/\libucosii_bsp.a(allports.o)
 .debug_frame   0x000053e8       0x88 ../lab7_bsp/\libucosii_bsp.a(timeouts.o)
 .debug_frame   0x00005470       0x48 ../lab7_bsp/\libucosii_bsp.a(tk_misc.o)
 .debug_frame   0x000054b8       0x2c ../lab7_bsp/\libucosii_bsp.a(alt_iniche_fcntl.o)
 .debug_frame   0x000054e4      0x160 ../lab7_bsp/\libucosii_bsp.a(et_arp.o)
 .debug_frame   0x00005644       0x80 ../lab7_bsp/\libucosii_bsp.a(iface.o)
 .debug_frame   0x000056c4      0x160 ../lab7_bsp/\libucosii_bsp.a(ip.o)
 .debug_frame   0x00005824      0x1d4 ../lab7_bsp/\libucosii_bsp.a(ip_reasm.o)
 .debug_frame   0x000059f8       0x68 ../lab7_bsp/\libucosii_bsp.a(ipdemux.o)
 .debug_frame   0x00005a60       0x64 ../lab7_bsp/\libucosii_bsp.a(ipmc.o)
 .debug_frame   0x00005ac4       0x64 ../lab7_bsp/\libucosii_bsp.a(ipport.o)
 .debug_frame   0x00005b28       0xb8 ../lab7_bsp/\libucosii_bsp.a(ipraw.o)
 .debug_frame   0x00005be0       0x64 ../lab7_bsp/\libucosii_bsp.a(iproute.o)
 .debug_frame   0x00005c44       0xd4 ../lab7_bsp/\libucosii_bsp.a(udp.o)
 .debug_frame   0x00005d18       0x2c ../lab7_bsp/\libucosii_bsp.a(igmp.o)
 .debug_frame   0x00005d44       0x9c ../lab7_bsp/\libucosii_bsp.a(igmp2.o)
 .debug_frame   0x00005de0       0x84 ../lab7_bsp/\libucosii_bsp.a(ipopt.o)
 .debug_frame   0x00005e64       0x4c ../lab7_bsp/\libucosii_bsp.a(u_mctest.o)
 .debug_frame   0x00005eb0       0x48 ../lab7_bsp/\libucosii_bsp.a(dhcsetup.o)
 .debug_frame   0x00005ef8      0x10c ../lab7_bsp/\libucosii_bsp.a(memdev.o)
 .debug_frame   0x00006004       0x2c ../lab7_bsp/\libucosii_bsp.a(tcpcksum.o)
 .debug_frame   0x00006030       0xf0 ../lab7_bsp/\libucosii_bsp.a(in_pcb.o)
 .debug_frame   0x00006120      0x320 ../lab7_bsp/\libucosii_bsp.a(vfsfiles.o)
 .debug_frame   0x00006440       0x2c ../lab7_bsp/\libucosii_bsp.a(vfsport.o)
 .debug_frame   0x0000646c       0x48 ../lab7_bsp/\libucosii_bsp.a(alt_fcntl.o)
 .debug_frame   0x000064b4       0x2c ../lab7_bsp/\libucosii_bsp.a(alt_find_file.o)
 .debug_frame   0x000064e0       0x2c ../lab7_bsp/\libucosii_bsp.a(alt_get_fd.o)
 .debug_frame   0x0000650c       0x84 ../lab7_bsp/\libucosii_bsp.a(icmp.o)
 .debug_frame   0x00006590       0x20 d:/altera/13.0sp1/nios2eds/bin/gnu/h-i686-mingw32/bin/../lib/gcc/nios2-elf/4.1.2/../../../../nios2-elf/lib\libc.a(lib_a-atexit.o)
 .debug_frame   0x000065b0       0x20 d:/altera/13.0sp1/nios2eds/bin/gnu/h-i686-mingw32/bin/../lib/gcc/nios2-elf/4.1.2/../../../../nios2-elf/lib\libc.a(lib_a-calloc.o)
 .debug_frame   0x000065d0       0x30 d:/altera/13.0sp1/nios2eds/bin/gnu/h-i686-mingw32/bin/../lib/gcc/nios2-elf/4.1.2/../../../../nios2-elf/lib\libc.a(lib_a-malloc.o)
 .debug_frame   0x00006600       0x20 d:/altera/13.0sp1/nios2eds/bin/gnu/h-i686-mingw32/bin/../lib/gcc/nios2-elf/4.1.2/../../../../nios2-elf/lib\libc.a(lib_a-memcmp.o)
 .debug_frame   0x00006620       0x40 d:/altera/13.0sp1/nios2eds/bin/gnu/h-i686-mingw32/bin/../lib/gcc/nios2-elf/4.1.2/../../../../nios2-elf/lib\libc.a(lib_a-sprintf.o)
 .debug_frame   0x00006660       0x20 d:/altera/13.0sp1/nios2eds/bin/gnu/h-i686-mingw32/bin/../lib/gcc/nios2-elf/4.1.2/../../../../nios2-elf/lib\libc.a(lib_a-strcpy.o)
 .debug_frame   0x00006680       0x20 d:/altera/13.0sp1/nios2eds/bin/gnu/h-i686-mingw32/bin/../lib/gcc/nios2-elf/4.1.2/../../../../nios2-elf/lib\libc.a(lib_a-strncmp.o)
 .debug_frame   0x000066a0       0x20 d:/altera/13.0sp1/nios2eds/bin/gnu/h-i686-mingw32/bin/../lib/gcc/nios2-elf/4.1.2/../../../../nios2-elf/lib\libc.a(lib_a-strncpy.o)
 .debug_frame   0x000066c0       0x30 d:/altera/13.0sp1/nios2eds/bin/gnu/h-i686-mingw32/bin/../lib/gcc/nios2-elf/4.1.2/../../../../nios2-elf/lib\libc.a(lib_a-vprintf.o)
 .debug_frame   0x000066f0       0x38 d:/altera/13.0sp1/nios2eds/bin/gnu/h-i686-mingw32/bin/../lib/gcc/nios2-elf/4.1.2/../../../../nios2-elf/lib\libc.a(lib_a-vsprintf.o)
 .debug_frame   0x00006728       0x34 d:/altera/13.0sp1/nios2eds/bin/gnu/h-i686-mingw32/bin/../lib/gcc/nios2-elf/4.1.2/../../../../nios2-elf/lib\libc.a(lib_a-__atexit.o)

.debug_str      0x00000000     0x36e7
 *(.debug_str)
 .debug_str     0x00000000       0x12 obj/default/LCD.o
 .debug_str     0x00000012       0x3f obj/default/SSS_DE2_115.o
 .debug_str     0x00000051       0x4e obj/default/alt_error_handler.o
 .debug_str     0x0000009f       0x33 obj/default/dm9000a.o
 .debug_str     0x000000d2       0x1d obj/default/iniche_init.o
 .debug_str     0x000000ef       0x2b obj/default/led.o
 .debug_str     0x0000011a       0x52 obj/default/network_utilities.o
 .debug_str     0x0000016c       0x2c obj/default/simple_socket_server.o
 .debug_str     0x00000198      0x125 d:/altera/13.0sp1/nios2eds/bin/gnu/h-i686-mingw32/bin/../lib/gcc/nios2-elf/4.1.2\libgcc.a(_fixunsdfsi.o)
                                0x16b (size before relaxing)
 .debug_str     0x000002bd      0x138 d:/altera/13.0sp1/nios2eds/bin/gnu/h-i686-mingw32/bin/../lib/gcc/nios2-elf/4.1.2\libgcc.a(_addsub_df.o)
                                0x26f (size before relaxing)
 .debug_str     0x000003f5       0x45 d:/altera/13.0sp1/nios2eds/bin/gnu/h-i686-mingw32/bin/../lib/gcc/nios2-elf/4.1.2\libgcc.a(_mul_df.o)
                                0x241 (size before relaxing)
 .debug_str     0x0000043a        0x8 d:/altera/13.0sp1/nios2eds/bin/gnu/h-i686-mingw32/bin/../lib/gcc/nios2-elf/4.1.2\libgcc.a(_ge_df.o)
                                0x1fe (size before relaxing)
 .debug_str     0x00000442        0xa d:/altera/13.0sp1/nios2eds/bin/gnu/h-i686-mingw32/bin/../lib/gcc/nios2-elf/4.1.2\libgcc.a(_df_to_si.o)
                                0x207 (size before relaxing)
 .debug_str     0x00000000      0x1a3 d:/altera/13.0sp1/nios2eds/bin/gnu/h-i686-mingw32/bin/../lib/gcc/nios2-elf/4.1.2\libgcc.a(_thenan_df.o)
 .debug_str     0x0000044c       0x1b d:/altera/13.0sp1/nios2eds/bin/gnu/h-i686-mingw32/bin/../lib/gcc/nios2-elf/4.1.2\libgcc.a(_usi_to_df.o)
                                0x1da (size before relaxing)
 .debug_str     0x00000467       0x42 d:/altera/13.0sp1/nios2eds/bin/gnu/h-i686-mingw32/bin/../lib/gcc/nios2-elf/4.1.2\libgcc.a(_muldi3.o)
                                0x1ac (size before relaxing)
 .debug_str     0x000004a9       0x20 d:/altera/13.0sp1/nios2eds/bin/gnu/h-i686-mingw32/bin/../lib/gcc/nios2-elf/4.1.2\libgcc.a(_clzsi2.o)
                                0x17e (size before relaxing)
 .debug_str     0x000004c9       0x10 d:/altera/13.0sp1/nios2eds/bin/gnu/h-i686-mingw32/bin/../lib/gcc/nios2-elf/4.1.2\libgcc.a(_pack_df.o)
                                0x206 (size before relaxing)
 .debug_str     0x000004d9        0xb d:/altera/13.0sp1/nios2eds/bin/gnu/h-i686-mingw32/bin/../lib/gcc/nios2-elf/4.1.2\libgcc.a(_unpack_df.o)
                                0x1e8 (size before relaxing)
 .debug_str     0x000004e4       0x10 d:/altera/13.0sp1/nios2eds/bin/gnu/h-i686-mingw32/bin/../lib/gcc/nios2-elf/4.1.2\libgcc.a(_fpcmp_parts_df.o)
                                0x1c6 (size before relaxing)
 .debug_str     0x00000000      0x161 d:/altera/13.0sp1/nios2eds/bin/gnu/h-i686-mingw32/bin/../lib/gcc/nios2-elf/4.1.2\libgcc.a(_clz.o)
 .debug_str     0x000004f4      0x42c d:/altera/13.0sp1/nios2eds/bin/gnu/h-i686-mingw32/bin/../lib/gcc/nios2-elf/4.1.2/../../../../nios2-elf/lib\libc.a(lib_a-atoi.o)
                                0x4fc (size before relaxing)
 .debug_str     0x00000920       0xe2 d:/altera/13.0sp1/nios2eds/bin/gnu/h-i686-mingw32/bin/../lib/gcc/nios2-elf/4.1.2/../../../../nios2-elf/lib\libc.a(lib_a-ctype_.o)
                                0x105 (size before relaxing)
 .debug_str     0x00000a02       0xcc d:/altera/13.0sp1/nios2eds/bin/gnu/h-i686-mingw32/bin/../lib/gcc/nios2-elf/4.1.2/../../../../nios2-elf/lib\libc.a(lib_a-errno.o)
                                0x502 (size before relaxing)
 .debug_str     0x00000ace       0x51 d:/altera/13.0sp1/nios2eds/bin/gnu/h-i686-mingw32/bin/../lib/gcc/nios2-elf/4.1.2/../../../../nios2-elf/lib\libc.a(lib_a-exit.o)
                                0x50c (size before relaxing)
 .debug_str     0x00000b1f       0xe8 d:/altera/13.0sp1/nios2eds/bin/gnu/h-i686-mingw32/bin/../lib/gcc/nios2-elf/4.1.2/../../../../nios2-elf/lib\libc.a(lib_a-fprintf.o)
                                0x51f (size before relaxing)
 .debug_str     0x00000c07       0x87 d:/altera/13.0sp1/nios2eds/bin/gnu/h-i686-mingw32/bin/../lib/gcc/nios2-elf/4.1.2/../../../../nios2-elf/lib\libc.a(lib_a-fwrite.o)
                                0x55f (size before relaxing)
 .debug_str     0x00000c8e       0x45 d:/altera/13.0sp1/nios2eds/bin/gnu/h-i686-mingw32/bin/../lib/gcc/nios2-elf/4.1.2/../../../../nios2-elf/lib\libc.a(lib_a-getc.o)
                                0x512 (size before relaxing)
 .debug_str     0x00000cd3       0xd1 d:/altera/13.0sp1/nios2eds/bin/gnu/h-i686-mingw32/bin/../lib/gcc/nios2-elf/4.1.2/../../../../nios2-elf/lib\libc.a(lib_a-impure.o)
                                0x51a (size before relaxing)
 .debug_str     0x00000da4       0xf5 d:/altera/13.0sp1/nios2eds/bin/gnu/h-i686-mingw32/bin/../lib/gcc/nios2-elf/4.1.2/../../../../nios2-elf/lib\libc.a(lib_a-memcpy.o)
                                0x128 (size before relaxing)
 .debug_str     0x00000e99       0x5d d:/altera/13.0sp1/nios2eds/bin/gnu/h-i686-mingw32/bin/../lib/gcc/nios2-elf/4.1.2/../../../../nios2-elf/lib\libc.a(lib_a-memmove.o)
                                0x19d (size before relaxing)
 .debug_str     0x00000ef6       0x56 d:/altera/13.0sp1/nios2eds/bin/gnu/h-i686-mingw32/bin/../lib/gcc/nios2-elf/4.1.2/../../../../nios2-elf/lib\libc.a(lib_a-memset.o)
                                0x17e (size before relaxing)
 .debug_str     0x00000f4c       0x4b d:/altera/13.0sp1/nios2eds/bin/gnu/h-i686-mingw32/bin/../lib/gcc/nios2-elf/4.1.2/../../../../nios2-elf/lib\libc.a(lib_a-perror.o)
                                0x512 (size before relaxing)
 .debug_str     0x00000f97       0x44 d:/altera/13.0sp1/nios2eds/bin/gnu/h-i686-mingw32/bin/../lib/gcc/nios2-elf/4.1.2/../../../../nios2-elf/lib\libc.a(lib_a-printf.o)
                                0x523 (size before relaxing)
 .debug_str     0x00000fdb       0x40 d:/altera/13.0sp1/nios2eds/bin/gnu/h-i686-mingw32/bin/../lib/gcc/nios2-elf/4.1.2/../../../../nios2-elf/lib\libc.a(lib_a-putc.o)
                                0x512 (size before relaxing)
 .debug_str     0x0000101b       0x4e d:/altera/13.0sp1/nios2eds/bin/gnu/h-i686-mingw32/bin/../lib/gcc/nios2-elf/4.1.2/../../../../nios2-elf/lib\libc.a(lib_a-putchar.o)
                                0x50f (size before relaxing)
 .debug_str     0x00001069       0x40 d:/altera/13.0sp1/nios2eds/bin/gnu/h-i686-mingw32/bin/../lib/gcc/nios2-elf/4.1.2/../../../../nios2-elf/lib\libc.a(lib_a-puts.o)
                                0x549 (size before relaxing)
 .debug_str     0x000010a9       0x4a d:/altera/13.0sp1/nios2eds/bin/gnu/h-i686-mingw32/bin/../lib/gcc/nios2-elf/4.1.2/../../../../nios2-elf/lib\libc.a(lib_a-rget.o)
                                0x510 (size before relaxing)
 .debug_str     0x000010f3       0x47 d:/altera/13.0sp1/nios2eds/bin/gnu/h-i686-mingw32/bin/../lib/gcc/nios2-elf/4.1.2/../../../../nios2-elf/lib\libc.a(lib_a-strchr.o)
                                0x175 (size before relaxing)
 .debug_str     0x0000113a       0x42 d:/altera/13.0sp1/nios2eds/bin/gnu/h-i686-mingw32/bin/../lib/gcc/nios2-elf/4.1.2/../../../../nios2-elf/lib\libc.a(lib_a-strcmp.o)
                                0x163 (size before relaxing)
 .debug_str     0x0000117c       0x44 d:/altera/13.0sp1/nios2eds/bin/gnu/h-i686-mingw32/bin/../lib/gcc/nios2-elf/4.1.2/../../../../nios2-elf/lib\libc.a(lib_a-strerror.o)
                                0x174 (size before relaxing)
 .debug_str     0x000011c0       0x42 d:/altera/13.0sp1/nios2eds/bin/gnu/h-i686-mingw32/bin/../lib/gcc/nios2-elf/4.1.2/../../../../nios2-elf/lib\libc.a(lib_a-strlen.o)
                                0x17d (size before relaxing)
 .debug_str     0x00001202       0x66 d:/altera/13.0sp1/nios2eds/bin/gnu/h-i686-mingw32/bin/../lib/gcc/nios2-elf/4.1.2/../../../../nios2-elf/lib\libc.a(lib_a-strtol.o)
                                0x53e (size before relaxing)
 .debug_str     0x00001268       0x4c d:/altera/13.0sp1/nios2eds/bin/gnu/h-i686-mingw32/bin/../lib/gcc/nios2-elf/4.1.2/../../../../nios2-elf/lib\libc.a(lib_a-u_strerr.o)
                                 0xf0 (size before relaxing)
 .debug_str     0x000012b4      0x173 d:/altera/13.0sp1/nios2eds/bin/gnu/h-i686-mingw32/bin/../lib/gcc/nios2-elf/4.1.2/../../../../nios2-elf/lib\libc.a(lib_a-vfprintf.o)
                                0x6f8 (size before relaxing)
 .debug_str     0x00001427       0x4a d:/altera/13.0sp1/nios2eds/bin/gnu/h-i686-mingw32/bin/../lib/gcc/nios2-elf/4.1.2/../../../../nios2-elf/lib\libc.a(lib_a-wbuf.o)
                                0x510 (size before relaxing)
 .debug_str     0x00001471       0x46 d:/altera/13.0sp1/nios2eds/bin/gnu/h-i686-mingw32/bin/../lib/gcc/nios2-elf/4.1.2/../../../../nios2-elf/lib\libc.a(lib_a-wsetup.o)
                                0x50c (size before relaxing)
 .debug_str     0x000014b7       0x7b d:/altera/13.0sp1/nios2eds/bin/gnu/h-i686-mingw32/bin/../lib/gcc/nios2-elf/4.1.2/../../../../nios2-elf/lib\libc.a(lib_a-__call_atexit.o)
                                0x54e (size before relaxing)
 .debug_str     0x00001532      0x102 d:/altera/13.0sp1/nios2eds/bin/gnu/h-i686-mingw32/bin/../lib/gcc/nios2-elf/4.1.2/../../../../nios2-elf/lib\libc.a(lib_a-dtoa.o)
                                0x601 (size before relaxing)
 .debug_str     0x00001634       0x52 d:/altera/13.0sp1/nios2eds/bin/gnu/h-i686-mingw32/bin/../lib/gcc/nios2-elf/4.1.2/../../../../nios2-elf/lib\libc.a(lib_a-fflush.o)
                                0x532 (size before relaxing)
 .debug_str     0x00001686      0x102 d:/altera/13.0sp1/nios2eds/bin/gnu/h-i686-mingw32/bin/../lib/gcc/nios2-elf/4.1.2/../../../../nios2-elf/lib\libc.a(lib_a-findfp.o)
                                0x5f4 (size before relaxing)
 .debug_str     0x00001788       0x48 d:/altera/13.0sp1/nios2eds/bin/gnu/h-i686-mingw32/bin/../lib/gcc/nios2-elf/4.1.2/../../../../nios2-elf/lib\libc.a(lib_a-fputc.o)
                                0x51a (size before relaxing)
 .debug_str     0x000017d0       0x48 d:/altera/13.0sp1/nios2eds/bin/gnu/h-i686-mingw32/bin/../lib/gcc/nios2-elf/4.1.2/../../../../nios2-elf/lib\libc.a(lib_a-fputs.o)
                                0x558 (size before relaxing)
 .debug_str     0x00001818      0x15b d:/altera/13.0sp1/nios2eds/bin/gnu/h-i686-mingw32/bin/../lib/gcc/nios2-elf/4.1.2/../../../../nios2-elf/lib\libc.a(lib_a-freer.o)
                                0x643 (size before relaxing)
 .debug_str     0x00001973       0x66 d:/altera/13.0sp1/nios2eds/bin/gnu/h-i686-mingw32/bin/../lib/gcc/nios2-elf/4.1.2/../../../../nios2-elf/lib\libc.a(lib_a-fvwrite.o)
                                0x563 (size before relaxing)
 .debug_str     0x000019d9       0x5e d:/altera/13.0sp1/nios2eds/bin/gnu/h-i686-mingw32/bin/../lib/gcc/nios2-elf/4.1.2/../../../../nios2-elf/lib\libc.a(lib_a-fwalk.o)
                                0x535 (size before relaxing)
 .debug_str     0x00001a37      0x225 d:/altera/13.0sp1/nios2eds/bin/gnu/h-i686-mingw32/bin/../lib/gcc/nios2-elf/4.1.2/../../../../nios2-elf/lib\libc.a(lib_a-locale.o)
                                0x6a9 (size before relaxing)
 .debug_str     0x00001c5c      0x123 d:/altera/13.0sp1/nios2eds/bin/gnu/h-i686-mingw32/bin/../lib/gcc/nios2-elf/4.1.2/../../../../nios2-elf/lib\libc.a(lib_a-makebuf.o)
                                0x606 (size before relaxing)
 .debug_str     0x00001d7f       0xe9 d:/altera/13.0sp1/nios2eds/bin/gnu/h-i686-mingw32/bin/../lib/gcc/nios2-elf/4.1.2/../../../../nios2-elf/lib\libc.a(lib_a-mallocr.o)
                                0x6f1 (size before relaxing)
 .debug_str     0x00001e68       0x47 d:/altera/13.0sp1/nios2eds/bin/gnu/h-i686-mingw32/bin/../lib/gcc/nios2-elf/4.1.2/../../../../nios2-elf/lib\libc.a(lib_a-memchr.o)
                                0x18b (size before relaxing)
 .debug_str     0x00001eaf       0xf8 d:/altera/13.0sp1/nios2eds/bin/gnu/h-i686-mingw32/bin/../lib/gcc/nios2-elf/4.1.2/../../../../nios2-elf/lib\libc.a(lib_a-mprec.o)
                                0x60e (size before relaxing)
 .debug_str     0x00001fa7       0x59 d:/altera/13.0sp1/nios2eds/bin/gnu/h-i686-mingw32/bin/../lib/gcc/nios2-elf/4.1.2/../../../../nios2-elf/lib\libc.a(lib_a-reallocr.o)
                                0x5c3 (size before relaxing)
 .debug_str     0x00002000       0x4d d:/altera/13.0sp1/nios2eds/bin/gnu/h-i686-mingw32/bin/../lib/gcc/nios2-elf/4.1.2/../../../../nios2-elf/lib\libc.a(lib_a-refill.o)
                                0x51a (size before relaxing)
 .debug_str     0x0000204d       0xdc d:/altera/13.0sp1/nios2eds/bin/gnu/h-i686-mingw32/bin/../lib/gcc/nios2-elf/4.1.2/../../../../nios2-elf/lib\libc.a(lib_a-s_isinfd.o)
                                0x18a (size before relaxing)
 .debug_str     0x00002129       0x46 d:/altera/13.0sp1/nios2eds/bin/gnu/h-i686-mingw32/bin/../lib/gcc/nios2-elf/4.1.2/../../../../nios2-elf/lib\libc.a(lib_a-s_isnand.o)
                                0x18a (size before relaxing)
 .debug_str     0x0000216f       0x50 d:/altera/13.0sp1/nios2eds/bin/gnu/h-i686-mingw32/bin/../lib/gcc/nios2-elf/4.1.2/../../../../nios2-elf/lib\libc.a(lib_a-sbrkr.o)
                                0x50b (size before relaxing)
 .debug_str     0x000021bf       0x62 d:/altera/13.0sp1/nios2eds/bin/gnu/h-i686-mingw32/bin/../lib/gcc/nios2-elf/4.1.2/../../../../nios2-elf/lib\libc.a(lib_a-stdio.o)
                                0x531 (size before relaxing)
 .debug_str     0x00002221       0x4c d:/altera/13.0sp1/nios2eds/bin/gnu/h-i686-mingw32/bin/../lib/gcc/nios2-elf/4.1.2/../../../../nios2-elf/lib\libc.a(lib_a-writer.o)
                                0x50e (size before relaxing)
 .debug_str     0x0000226d       0x19 d:/altera/13.0sp1/nios2eds/bin/gnu/h-i686-mingw32/bin/../lib/gcc/nios2-elf/4.1.2/../../../../nios2-elf/lib\libc.a(lib_a-callocr.o)
                                0x542 (size before relaxing)
 .debug_str     0x00002286       0x43 d:/altera/13.0sp1/nios2eds/bin/gnu/h-i686-mingw32/bin/../lib/gcc/nios2-elf/4.1.2/../../../../nios2-elf/lib\libc.a(lib_a-closer.o)
                                0x4fe (size before relaxing)
 .debug_str     0x000022c9       0x4b d:/altera/13.0sp1/nios2eds/bin/gnu/h-i686-mingw32/bin/../lib/gcc/nios2-elf/4.1.2/../../../../nios2-elf/lib\libc.a(lib_a-fclose.o)
                                0x516 (size before relaxing)
 .debug_str     0x00002314       0x49 d:/altera/13.0sp1/nios2eds/bin/gnu/h-i686-mingw32/bin/../lib/gcc/nios2-elf/4.1.2/../../../../nios2-elf/lib\libc.a(lib_a-fstatr.o)
                                0x5f1 (size before relaxing)
 .debug_str     0x0000235d       0x3d d:/altera/13.0sp1/nios2eds/bin/gnu/h-i686-mingw32/bin/../lib/gcc/nios2-elf/4.1.2/../../../../nios2-elf/lib\libc.a(lib_a-int_errno.o)
                                0x163 (size before relaxing)
 .debug_str     0x0000239a       0x45 d:/altera/13.0sp1/nios2eds/bin/gnu/h-i686-mingw32/bin/../lib/gcc/nios2-elf/4.1.2/../../../../nios2-elf/lib\libc.a(lib_a-isattyr.o)
                                0x500 (size before relaxing)
 .debug_str     0x000023df       0x43 d:/altera/13.0sp1/nios2eds/bin/gnu/h-i686-mingw32/bin/../lib/gcc/nios2-elf/4.1.2/../../../../nios2-elf/lib\libc.a(lib_a-lseekr.o)
                                0x50c (size before relaxing)
 .debug_str     0x00002422       0x41 d:/altera/13.0sp1/nios2eds/bin/gnu/h-i686-mingw32/bin/../lib/gcc/nios2-elf/4.1.2/../../../../nios2-elf/lib\libc.a(lib_a-readr.o)
                                0x50c (size before relaxing)
 .debug_str     0x00002463       0x35 d:/altera/13.0sp1/nios2eds/bin/gnu/h-i686-mingw32/bin/../lib/gcc/nios2-elf/4.1.2\libgcc.a(_udivdi3.o)
                                0x1f7 (size before relaxing)
 .debug_str     0x00002498        0xa d:/altera/13.0sp1/nios2eds/bin/gnu/h-i686-mingw32/bin/../lib/gcc/nios2-elf/4.1.2\libgcc.a(_umoddi3.o)
                                0x1f7 (size before relaxing)
 .debug_str     0x000024a2       0x35 d:/altera/13.0sp1/nios2eds/bin/gnu/h-i686-mingw32/bin/../lib/gcc/nios2-elf/4.1.2\libgcc.a(_div_df.o)
                                0x231 (size before relaxing)
 .debug_str     0x000024d7        0x8 d:/altera/13.0sp1/nios2eds/bin/gnu/h-i686-mingw32/bin/../lib/gcc/nios2-elf/4.1.2\libgcc.a(_eq_df.o)
                                0x1fe (size before relaxing)
 .debug_str     0x000024df        0x8 d:/altera/13.0sp1/nios2eds/bin/gnu/h-i686-mingw32/bin/../lib/gcc/nios2-elf/4.1.2\libgcc.a(_ne_df.o)
                                0x1fe (size before relaxing)
 .debug_str     0x000024e7        0x8 d:/altera/13.0sp1/nios2eds/bin/gnu/h-i686-mingw32/bin/../lib/gcc/nios2-elf/4.1.2\libgcc.a(_gt_df.o)
                                0x1fe (size before relaxing)
 .debug_str     0x000024ef        0x8 d:/altera/13.0sp1/nios2eds/bin/gnu/h-i686-mingw32/bin/../lib/gcc/nios2-elf/4.1.2\libgcc.a(_lt_df.o)
                                0x1fe (size before relaxing)
 .debug_str     0x000024f7       0x11 d:/altera/13.0sp1/nios2eds/bin/gnu/h-i686-mingw32/bin/../lib/gcc/nios2-elf/4.1.2\libgcc.a(_si_to_df.o)
                                0x1de (size before relaxing)
 .debug_str     0x00002508       0x76 d:/altera/13.0sp1/nios2eds/bin/gnu/h-i686-mingw32/bin/../lib/gcc/nios2-elf/4.1.2\libgcc.a(lib2-divmod.o)
                                0x1b4 (size before relaxing)
 .debug_str     0x0000257e       0x1c ../lab7_bsp/\libucosii_bsp.a(alt_exit.o)
 .debug_str     0x0000259a       0x2d ../lab7_bsp/\libucosii_bsp.a(alt_flash_dev.o)
 .debug_str     0x000025c7       0x12 ../lab7_bsp/\libucosii_bsp.a(alt_fstat.o)
 .debug_str     0x000025d9       0x21 ../lab7_bsp/\libucosii_bsp.a(alt_irq_register.o)
 .debug_str     0x000025fa       0x12 ../lab7_bsp/\libucosii_bsp.a(alt_isatty.o)
 .debug_str     0x0000260c       0x12 ../lab7_bsp/\libucosii_bsp.a(alt_lseek.o)
 .debug_str     0x0000261e       0x12 ../lab7_bsp/\libucosii_bsp.a(alt_main.o)
 .debug_str     0x00002630       0x1a ../lab7_bsp/\libucosii_bsp.a(alt_sbrk.o)
 .debug_str     0x0000264a       0x12 ../lab7_bsp/\libucosii_bsp.a(alt_usleep.o)
 .debug_str     0x0000265c       0x36 ../lab7_bsp/\libucosii_bsp.a(alt_env_lock.o)
 .debug_str     0x00002692       0x36 ../lab7_bsp/\libucosii_bsp.a(alt_malloc_lock.o)
 .debug_str     0x000026c8       0x46 ../lab7_bsp/\libucosii_bsp.a(os_core.o)
 .debug_str     0x0000270e       0x2b ../lab7_bsp/\libucosii_bsp.a(os_dbg.o)
 .debug_str     0x00002739       0x4e ../lab7_bsp/\libucosii_bsp.a(os_flag.o)
 .debug_str     0x00002787       0x2c ../lab7_bsp/\libucosii_bsp.a(os_mem.o)
 .debug_str     0x000027b3       0x36 ../lab7_bsp/\libucosii_bsp.a(os_q.o)
 .debug_str     0x000027e9       0x36 ../lab7_bsp/\libucosii_bsp.a(os_sem.o)
 .debug_str     0x0000281f       0x23 ../lab7_bsp/\libucosii_bsp.a(os_task.o)
 .debug_str     0x00002842       0x1f ../lab7_bsp/\libucosii_bsp.a(os_time.o)
 .debug_str     0x00002861       0x67 ../lab7_bsp/\libucosii_bsp.a(alt_sys_init.o)
 .debug_str     0x000028c8       0x82 ../lab7_bsp/\libucosii_bsp.a(altera_avalon_cfi_flash.o)
 .debug_str     0x0000294a       0x6d ../lab7_bsp/\libucosii_bsp.a(altera_avalon_cfi_flash_table.o)
 .debug_str     0x000029b7       0x90 ../lab7_bsp/\libucosii_bsp.a(altera_avalon_epcs_flash_controller.o)
 .debug_str     0x00002a47       0x12 ../lab7_bsp/\libucosii_bsp.a(altera_avalon_jtag_uart_fd.o)
 .debug_str     0x00002a59       0x1a ../lab7_bsp/\libucosii_bsp.a(altera_avalon_jtag_uart_init.o)
 .debug_str     0x00002a73       0x12 ../lab7_bsp/\libucosii_bsp.a(altera_avalon_jtag_uart_ioctl.o)
 .debug_str     0x00002a85       0x22 ../lab7_bsp/\libucosii_bsp.a(altera_avalon_jtag_uart_read.o)
 .debug_str     0x00002aa7       0x22 ../lab7_bsp/\libucosii_bsp.a(altera_avalon_jtag_uart_write.o)
 .debug_str     0x00002ac9       0x25 ../lab7_bsp/\libucosii_bsp.a(altera_avalon_lcd_16207.o)
 .debug_str     0x00002aee       0x12 ../lab7_bsp/\libucosii_bsp.a(altera_avalon_lcd_16207_fd.o)
 .debug_str     0x00002b00       0x12 ../lab7_bsp/\libucosii_bsp.a(altera_avalon_timer_sc.o)
 .debug_str     0x00002b12       0x12 ../lab7_bsp/\libucosii_bsp.a(altera_avalon_uart_fd.o)
 .debug_str     0x00002b24       0x1f ../lab7_bsp/\libucosii_bsp.a(altera_avalon_uart_init.o)
 .debug_str     0x00002b43       0x1a ../lab7_bsp/\libucosii_bsp.a(altera_avalon_uart_read.o)
 .debug_str     0x00002b5d       0x1a ../lab7_bsp/\libucosii_bsp.a(altera_avalon_uart_write.o)
 .debug_str     0x00002b77       0x2e ../lab7_bsp/\libucosii_bsp.a(epcs_commands.o)
 .debug_str     0x00002ba5       0x12 ../lab7_bsp/\libucosii_bsp.a(alt_iniche_close.o)
 .debug_str     0x00002bb7       0x12 ../lab7_bsp/\libucosii_bsp.a(alt_iniche_dev.o)
 .debug_str     0x00002bc9       0x12 ../lab7_bsp/\libucosii_bsp.a(alt_iniche_read.o)
 .debug_str     0x00002bdb       0x12 ../lab7_bsp/\libucosii_bsp.a(alt_iniche_write.o)
 .debug_str     0x00002bed       0x12 ../lab7_bsp/\libucosii_bsp.a(ipnet.o)
 .debug_str     0x00002bff       0x12 ../lab7_bsp/\libucosii_bsp.a(ipstart.o)
 .debug_str     0x00002c11       0x12 ../lab7_bsp/\libucosii_bsp.a(igmp_cmn.o)
 .debug_str     0x00002c23       0x20 ../lab7_bsp/\libucosii_bsp.a(bsdsock.o)
 .debug_str     0x00002c43       0x12 ../lab7_bsp/\libucosii_bsp.a(cksum.o)
 .debug_str     0x00002c55       0x12 ../lab7_bsp/\libucosii_bsp.a(in_utils.o)
 .debug_str     0x00002c67       0x12 ../lab7_bsp/\libucosii_bsp.a(netmain.o)
 .debug_str     0x00002c79       0x12 ../lab7_bsp/\libucosii_bsp.a(parseip.o)
 .debug_str     0x00002c8b       0x12 ../lab7_bsp/\libucosii_bsp.a(tk_crnos.o)
 .debug_str     0x00002c9d       0x2e ../lab7_bsp/\libucosii_bsp.a(dhcpclnt.o)
 .debug_str     0x00002ccb       0x12 ../lab7_bsp/\libucosii_bsp.a(dhcputil.o)
 .debug_str     0x00002cdd       0x12 ../lab7_bsp/\libucosii_bsp.a(pktalloc.o)
 .debug_str     0x00002cef       0x12 ../lab7_bsp/\libucosii_bsp.a(q.o)
 .debug_str     0x00002d01       0x12 ../lab7_bsp/\libucosii_bsp.a(udp_open.o)
 .debug_str     0x00002d13       0x20 ../lab7_bsp/\libucosii_bsp.a(brdutils.o)
 .debug_str     0x00002d33       0x22 ../lab7_bsp/\libucosii_bsp.a(osportco.o)
 .debug_str     0x00002d55       0x12 ../lab7_bsp/\libucosii_bsp.a(targnios.o)
 .debug_str     0x00002d67       0x1e ../lab7_bsp/\libucosii_bsp.a(nptcp.o)
 .debug_str     0x00002d85       0x12 ../lab7_bsp/\libucosii_bsp.a(rawsock.o)
 .debug_str     0x00002d97       0x34 ../lab7_bsp/\libucosii_bsp.a(sockcall.o)
 .debug_str     0x00002dcb       0x18 ../lab7_bsp/\libucosii_bsp.a(socket.o)
 .debug_str     0x00002de3       0x12 ../lab7_bsp/\libucosii_bsp.a(socket2.o)
 .debug_str     0x00002df5       0x12 ../lab7_bsp/\libucosii_bsp.a(soselect.o)
 .debug_str     0x00002e07       0x12 ../lab7_bsp/\libucosii_bsp.a(tcp_in.o)
 .debug_str     0x00002e19       0x12 ../lab7_bsp/\libucosii_bsp.a(tcp_out.o)
 .debug_str     0x00002e2b       0x12 ../lab7_bsp/\libucosii_bsp.a(tcp_subr.o)
 .debug_str     0x00002e3d       0x12 ../lab7_bsp/\libucosii_bsp.a(tcp_timr.o)
 .debug_str     0x00002e4f       0x12 ../lab7_bsp/\libucosii_bsp.a(tcp_usr.o)
 .debug_str     0x00002e61       0x12 ../lab7_bsp/\libucosii_bsp.a(tcpport.o)
 .debug_str     0x00002e73       0x1a ../lab7_bsp/\libucosii_bsp.a(udpsock.o)
 .debug_str     0x00002e8d       0x23 ../lab7_bsp/\libucosii_bsp.a(alt_alarm_start.o)
 .debug_str     0x00002eb0       0x12 ../lab7_bsp/\libucosii_bsp.a(alt_busy_sleep.o)
 .debug_str     0x00002ec2       0x12 ../lab7_bsp/\libucosii_bsp.a(alt_close.o)
 .debug_str     0x00002ed4       0x12 ../lab7_bsp/\libucosii_bsp.a(alt_dcache_flush.o)
 .debug_str     0x00002ee6       0x12 ../lab7_bsp/\libucosii_bsp.a(alt_dev.o)
 .debug_str     0x00002ef8       0x12 ../lab7_bsp/\libucosii_bsp.a(alt_dev_llist_insert.o)
 .debug_str     0x00002f0a       0x12 ../lab7_bsp/\libucosii_bsp.a(alt_errno.o)
 .debug_str     0x00002f1c       0x12 ../lab7_bsp/\libucosii_bsp.a(alt_find_dev.o)
 .debug_str     0x00002f2e       0x18 ../lab7_bsp/\libucosii_bsp.a(alt_iic.o)
 .debug_str     0x00002f46       0x1a ../lab7_bsp/\libucosii_bsp.a(alt_iic_isr_register.o)
 .debug_str     0x00002f60       0x12 ../lab7_bsp/\libucosii_bsp.a(alt_io_redirect.o)
 .debug_str     0x00002f72       0x12 ../lab7_bsp/\libucosii_bsp.a(alt_irq_handler.o)
 .debug_str     0x00002f84       0x12 ../lab7_bsp/\libucosii_bsp.a(alt_open.o)
 .debug_str     0x00002f96       0x12 ../lab7_bsp/\libucosii_bsp.a(alt_read.o)
 .debug_str     0x00002fa8       0x12 ../lab7_bsp/\libucosii_bsp.a(alt_release_fd.o)
 .debug_str     0x00002fba       0x12 ../lab7_bsp/\libucosii_bsp.a(alt_remap_cached.o)
 .debug_str     0x00002fcc       0x12 ../lab7_bsp/\libucosii_bsp.a(alt_remap_uncached.o)
 .debug_str     0x00002fde       0x1a ../lab7_bsp/\libucosii_bsp.a(alt_tick.o)
 .debug_str     0x00002ff8       0x12 ../lab7_bsp/\libucosii_bsp.a(alt_write.o)
 .debug_str     0x0000300a       0x12 ../lab7_bsp/\libucosii_bsp.a(altera_nios2_qsys_irq.o)
 .debug_str     0x0000301c       0x20 ../lab7_bsp/\libucosii_bsp.a(os_cpu_c.o)
 .debug_str     0x0000303c       0x76 ../lab7_bsp/\libucosii_bsp.a(altera_avalon_cfi_flash_amd.o)
 .debug_str     0x000030b2       0x7d ../lab7_bsp/\libucosii_bsp.a(altera_avalon_cfi_flash_intel.o)
 .debug_str     0x0000312f       0x12 ../lab7_bsp/\libucosii_bsp.a(allports.o)
 .debug_str     0x00003141       0x1b ../lab7_bsp/\libucosii_bsp.a(timeouts.o)
 .debug_str     0x0000315c       0x12 ../lab7_bsp/\libucosii_bsp.a(tk_misc.o)
 .debug_str     0x0000316e       0x12 ../lab7_bsp/\libucosii_bsp.a(alt_iniche_fcntl.o)
 .debug_str     0x00003180       0x3d ../lab7_bsp/\libucosii_bsp.a(et_arp.o)
 .debug_str     0x000031bd       0x12 ../lab7_bsp/\libucosii_bsp.a(iface.o)
 .debug_str     0x000031cf       0x2c ../lab7_bsp/\libucosii_bsp.a(ip.o)
 .debug_str     0x000031fb       0x4e ../lab7_bsp/\libucosii_bsp.a(ip_reasm.o)
 .debug_str     0x00003249       0x12 ../lab7_bsp/\libucosii_bsp.a(ipdemux.o)
 .debug_str     0x0000325b       0x12 ../lab7_bsp/\libucosii_bsp.a(ipmc.o)
 .debug_str     0x0000326d       0x12 ../lab7_bsp/\libucosii_bsp.a(ipport.o)
 .debug_str     0x0000327f       0x12 ../lab7_bsp/\libucosii_bsp.a(ipraw.o)
 .debug_str     0x00003291       0x12 ../lab7_bsp/\libucosii_bsp.a(iproute.o)
 .debug_str     0x000032a3       0x12 ../lab7_bsp/\libucosii_bsp.a(udp.o)
 .debug_str     0x000032b5       0x12 ../lab7_bsp/\libucosii_bsp.a(igmp.o)
 .debug_str     0x000032c7       0x20 ../lab7_bsp/\libucosii_bsp.a(igmp2.o)
 .debug_str     0x000032e7       0x12 ../lab7_bsp/\libucosii_bsp.a(ipopt.o)
 .debug_str     0x000032f9       0x12 ../lab7_bsp/\libucosii_bsp.a(u_mctest.o)
 .debug_str     0x0000330b       0x12 ../lab7_bsp/\libucosii_bsp.a(dhcsetup.o)
 .debug_str     0x0000331d       0x1b ../lab7_bsp/\libucosii_bsp.a(memdev.o)
 .debug_str     0x00003338       0x12 ../lab7_bsp/\libucosii_bsp.a(tcpcksum.o)
 .debug_str     0x0000334a       0x12 ../lab7_bsp/\libucosii_bsp.a(in_pcb.o)
 .debug_str     0x0000335c       0x2b ../lab7_bsp/\libucosii_bsp.a(vfsfiles.o)
 .debug_str     0x00003387       0x12 ../lab7_bsp/\libucosii_bsp.a(vfsport.o)
 .debug_str     0x00003399       0x12 ../lab7_bsp/\libucosii_bsp.a(alt_fcntl.o)
 .debug_str     0x000033ab       0x12 ../lab7_bsp/\libucosii_bsp.a(alt_find_file.o)
 .debug_str     0x000033bd       0x12 ../lab7_bsp/\libucosii_bsp.a(alt_get_fd.o)
 .debug_str     0x000033cf       0x12 ../lab7_bsp/\libucosii_bsp.a(icmp.o)
 .debug_str     0x000033e1       0x3b d:/altera/13.0sp1/nios2eds/bin/gnu/h-i686-mingw32/bin/../lib/gcc/nios2-elf/4.1.2/../../../../nios2-elf/lib\libc.a(lib_a-atexit.o)
                                0x1bf (size before relaxing)
 .debug_str     0x0000341c       0x42 d:/altera/13.0sp1/nios2eds/bin/gnu/h-i686-mingw32/bin/../lib/gcc/nios2-elf/4.1.2/../../../../nios2-elf/lib\libc.a(lib_a-calloc.o)
                                0x510 (size before relaxing)
 .debug_str     0x0000345e       0x47 d:/altera/13.0sp1/nios2eds/bin/gnu/h-i686-mingw32/bin/../lib/gcc/nios2-elf/4.1.2/../../../../nios2-elf/lib\libc.a(lib_a-malloc.o)
                                0x51c (size before relaxing)
 .debug_str     0x000034a5       0x42 d:/altera/13.0sp1/nios2eds/bin/gnu/h-i686-mingw32/bin/../lib/gcc/nios2-elf/4.1.2/../../../../nios2-elf/lib\libc.a(lib_a-memcmp.o)
                                0x16a (size before relaxing)
 .debug_str     0x000034e7       0x46 d:/altera/13.0sp1/nios2eds/bin/gnu/h-i686-mingw32/bin/../lib/gcc/nios2-elf/4.1.2/../../../../nios2-elf/lib\libc.a(lib_a-sprintf.o)
                                0x52b (size before relaxing)
 .debug_str     0x0000352d       0x42 d:/altera/13.0sp1/nios2eds/bin/gnu/h-i686-mingw32/bin/../lib/gcc/nios2-elf/4.1.2/../../../../nios2-elf/lib\libc.a(lib_a-strcpy.o)
                                0x185 (size before relaxing)
 .debug_str     0x0000356f       0x44 d:/altera/13.0sp1/nios2eds/bin/gnu/h-i686-mingw32/bin/../lib/gcc/nios2-elf/4.1.2/../../../../nios2-elf/lib\libc.a(lib_a-strncmp.o)
                                0x16c (size before relaxing)
 .debug_str     0x000035b3       0x44 d:/altera/13.0sp1/nios2eds/bin/gnu/h-i686-mingw32/bin/../lib/gcc/nios2-elf/4.1.2/../../../../nios2-elf/lib\libc.a(lib_a-strncpy.o)
                                0x194 (size before relaxing)
 .debug_str     0x000035f7       0x4e d:/altera/13.0sp1/nios2eds/bin/gnu/h-i686-mingw32/bin/../lib/gcc/nios2-elf/4.1.2/../../../../nios2-elf/lib\libc.a(lib_a-vprintf.o)
                                0x526 (size before relaxing)
 .debug_str     0x00003645       0x51 d:/altera/13.0sp1/nios2eds/bin/gnu/h-i686-mingw32/bin/../lib/gcc/nios2-elf/4.1.2/../../../../nios2-elf/lib\libc.a(lib_a-vsprintf.o)
                                0x52e (size before relaxing)
 .debug_str     0x00003696       0x51 d:/altera/13.0sp1/nios2eds/bin/gnu/h-i686-mingw32/bin/../lib/gcc/nios2-elf/4.1.2/../../../../nios2-elf/lib\libc.a(lib_a-__atexit.o)
                                0x524 (size before relaxing)

.debug_loc      0x00000000    0x13df9
 *(.debug_loc)
 .debug_loc     0x00000000      0x103 obj/default/LCD.o
 .debug_loc     0x00000103       0x56 obj/default/SSS_DE2_115.o
 .debug_loc     0x00000159       0x81 obj/default/alt_error_handler.o
 .debug_loc     0x000001da      0x25a obj/default/dm9000a.o
 .debug_loc     0x00000434       0x58 obj/default/iniche_init.o
 .debug_loc     0x0000048c       0x81 obj/default/led.o
 .debug_loc     0x0000050d      0x103 obj/default/network_utilities.o
 .debug_loc     0x00000610      0x15b obj/default/simple_socket_server.o
 .debug_loc     0x0000076b       0x87 d:/altera/13.0sp1/nios2eds/bin/gnu/h-i686-mingw32/bin/../lib/gcc/nios2-elf/4.1.2\libgcc.a(_fixunsdfsi.o)
 .debug_loc     0x000007f2      0x47a d:/altera/13.0sp1/nios2eds/bin/gnu/h-i686-mingw32/bin/../lib/gcc/nios2-elf/4.1.2\libgcc.a(_addsub_df.o)
 .debug_loc     0x00000c6c      0x3b4 d:/altera/13.0sp1/nios2eds/bin/gnu/h-i686-mingw32/bin/../lib/gcc/nios2-elf/4.1.2\libgcc.a(_mul_df.o)
 .debug_loc     0x00001020       0x70 d:/altera/13.0sp1/nios2eds/bin/gnu/h-i686-mingw32/bin/../lib/gcc/nios2-elf/4.1.2\libgcc.a(_ge_df.o)
 .debug_loc     0x00001090       0x8b d:/altera/13.0sp1/nios2eds/bin/gnu/h-i686-mingw32/bin/../lib/gcc/nios2-elf/4.1.2\libgcc.a(_df_to_si.o)
 .debug_loc     0x0000111b       0x5b d:/altera/13.0sp1/nios2eds/bin/gnu/h-i686-mingw32/bin/../lib/gcc/nios2-elf/4.1.2\libgcc.a(_usi_to_df.o)
 .debug_loc     0x00001176       0xc4 d:/altera/13.0sp1/nios2eds/bin/gnu/h-i686-mingw32/bin/../lib/gcc/nios2-elf/4.1.2\libgcc.a(_muldi3.o)
 .debug_loc     0x0000123a       0x1e d:/altera/13.0sp1/nios2eds/bin/gnu/h-i686-mingw32/bin/../lib/gcc/nios2-elf/4.1.2\libgcc.a(_clzsi2.o)
 .debug_loc     0x00001258      0x184 d:/altera/13.0sp1/nios2eds/bin/gnu/h-i686-mingw32/bin/../lib/gcc/nios2-elf/4.1.2\libgcc.a(_pack_df.o)
 .debug_loc     0x000013dc       0xe5 d:/altera/13.0sp1/nios2eds/bin/gnu/h-i686-mingw32/bin/../lib/gcc/nios2-elf/4.1.2\libgcc.a(_unpack_df.o)
 .debug_loc     0x000014c1       0x39 d:/altera/13.0sp1/nios2eds/bin/gnu/h-i686-mingw32/bin/../lib/gcc/nios2-elf/4.1.2/../../../../nios2-elf/lib\libc.a(lib_a-atoi.o)
 .debug_loc     0x000014fa       0x3d d:/altera/13.0sp1/nios2eds/bin/gnu/h-i686-mingw32/bin/../lib/gcc/nios2-elf/4.1.2/../../../../nios2-elf/lib\libc.a(lib_a-exit.o)
 .debug_loc     0x00001537       0xf1 d:/altera/13.0sp1/nios2eds/bin/gnu/h-i686-mingw32/bin/../lib/gcc/nios2-elf/4.1.2/../../../../nios2-elf/lib\libc.a(lib_a-fprintf.o)
 .debug_loc     0x00001628      0x18e d:/altera/13.0sp1/nios2eds/bin/gnu/h-i686-mingw32/bin/../lib/gcc/nios2-elf/4.1.2/../../../../nios2-elf/lib\libc.a(lib_a-fwrite.o)
 .debug_loc     0x000017b6      0x10b d:/altera/13.0sp1/nios2eds/bin/gnu/h-i686-mingw32/bin/../lib/gcc/nios2-elf/4.1.2/../../../../nios2-elf/lib\libc.a(lib_a-getc.o)
 .debug_loc     0x000018c1       0xca d:/altera/13.0sp1/nios2eds/bin/gnu/h-i686-mingw32/bin/../lib/gcc/nios2-elf/4.1.2/../../../../nios2-elf/lib\libc.a(lib_a-memcpy.o)
 .debug_loc     0x0000198b      0x117 d:/altera/13.0sp1/nios2eds/bin/gnu/h-i686-mingw32/bin/../lib/gcc/nios2-elf/4.1.2/../../../../nios2-elf/lib\libc.a(lib_a-memmove.o)
 .debug_loc     0x00001aa2       0xa1 d:/altera/13.0sp1/nios2eds/bin/gnu/h-i686-mingw32/bin/../lib/gcc/nios2-elf/4.1.2/../../../../nios2-elf/lib\libc.a(lib_a-memset.o)
 .debug_loc     0x00001b43       0xa2 d:/altera/13.0sp1/nios2eds/bin/gnu/h-i686-mingw32/bin/../lib/gcc/nios2-elf/4.1.2/../../../../nios2-elf/lib\libc.a(lib_a-perror.o)
 .debug_loc     0x00001be5       0xcb d:/altera/13.0sp1/nios2eds/bin/gnu/h-i686-mingw32/bin/../lib/gcc/nios2-elf/4.1.2/../../../../nios2-elf/lib\libc.a(lib_a-printf.o)
 .debug_loc     0x00001cb0      0x20d d:/altera/13.0sp1/nios2eds/bin/gnu/h-i686-mingw32/bin/../lib/gcc/nios2-elf/4.1.2/../../../../nios2-elf/lib\libc.a(lib_a-putc.o)
 .debug_loc     0x00001ebd       0x44 d:/altera/13.0sp1/nios2eds/bin/gnu/h-i686-mingw32/bin/../lib/gcc/nios2-elf/4.1.2/../../../../nios2-elf/lib\libc.a(lib_a-putchar.o)
 .debug_loc     0x00001f01       0xa2 d:/altera/13.0sp1/nios2eds/bin/gnu/h-i686-mingw32/bin/../lib/gcc/nios2-elf/4.1.2/../../../../nios2-elf/lib\libc.a(lib_a-puts.o)
 .debug_loc     0x00001fa3       0x6e d:/altera/13.0sp1/nios2eds/bin/gnu/h-i686-mingw32/bin/../lib/gcc/nios2-elf/4.1.2/../../../../nios2-elf/lib\libc.a(lib_a-rget.o)
 .debug_loc     0x00002011       0xf3 d:/altera/13.0sp1/nios2eds/bin/gnu/h-i686-mingw32/bin/../lib/gcc/nios2-elf/4.1.2/../../../../nios2-elf/lib\libc.a(lib_a-strchr.o)
 .debug_loc     0x00002104       0x65 d:/altera/13.0sp1/nios2eds/bin/gnu/h-i686-mingw32/bin/../lib/gcc/nios2-elf/4.1.2/../../../../nios2-elf/lib\libc.a(lib_a-strcmp.o)
 .debug_loc     0x00002169      0x418 d:/altera/13.0sp1/nios2eds/bin/gnu/h-i686-mingw32/bin/../lib/gcc/nios2-elf/4.1.2/../../../../nios2-elf/lib\libc.a(lib_a-strerror.o)
 .debug_loc     0x00002581       0x3c d:/altera/13.0sp1/nios2eds/bin/gnu/h-i686-mingw32/bin/../lib/gcc/nios2-elf/4.1.2/../../../../nios2-elf/lib\libc.a(lib_a-strlen.o)
 .debug_loc     0x000025bd      0x346 d:/altera/13.0sp1/nios2eds/bin/gnu/h-i686-mingw32/bin/../lib/gcc/nios2-elf/4.1.2/../../../../nios2-elf/lib\libc.a(lib_a-strtol.o)
 .debug_loc     0x00002903     0x1e0d d:/altera/13.0sp1/nios2eds/bin/gnu/h-i686-mingw32/bin/../lib/gcc/nios2-elf/4.1.2/../../../../nios2-elf/lib\libc.a(lib_a-vfprintf.o)
 .debug_loc     0x00004710      0x157 d:/altera/13.0sp1/nios2eds/bin/gnu/h-i686-mingw32/bin/../lib/gcc/nios2-elf/4.1.2/../../../../nios2-elf/lib\libc.a(lib_a-wbuf.o)
 .debug_loc     0x00004867       0x7c d:/altera/13.0sp1/nios2eds/bin/gnu/h-i686-mingw32/bin/../lib/gcc/nios2-elf/4.1.2/../../../../nios2-elf/lib\libc.a(lib_a-wsetup.o)
 .debug_loc     0x000048e3      0x1cb d:/altera/13.0sp1/nios2eds/bin/gnu/h-i686-mingw32/bin/../lib/gcc/nios2-elf/4.1.2/../../../../nios2-elf/lib\libc.a(lib_a-__call_atexit.o)
 .debug_loc     0x00004aae     0x1dfa d:/altera/13.0sp1/nios2eds/bin/gnu/h-i686-mingw32/bin/../lib/gcc/nios2-elf/4.1.2/../../../../nios2-elf/lib\libc.a(lib_a-dtoa.o)
 .debug_loc     0x000068a8      0x1f6 d:/altera/13.0sp1/nios2eds/bin/gnu/h-i686-mingw32/bin/../lib/gcc/nios2-elf/4.1.2/../../../../nios2-elf/lib\libc.a(lib_a-fflush.o)
 .debug_loc     0x00006a9e      0x19f d:/altera/13.0sp1/nios2eds/bin/gnu/h-i686-mingw32/bin/../lib/gcc/nios2-elf/4.1.2/../../../../nios2-elf/lib\libc.a(lib_a-findfp.o)
 .debug_loc     0x00006c3d      0x14d d:/altera/13.0sp1/nios2eds/bin/gnu/h-i686-mingw32/bin/../lib/gcc/nios2-elf/4.1.2/../../../../nios2-elf/lib\libc.a(lib_a-fputc.o)
 .debug_loc     0x00006d8a       0xcb d:/altera/13.0sp1/nios2eds/bin/gnu/h-i686-mingw32/bin/../lib/gcc/nios2-elf/4.1.2/../../../../nios2-elf/lib\libc.a(lib_a-fputs.o)
 .debug_loc     0x00006e55      0x4a7 d:/altera/13.0sp1/nios2eds/bin/gnu/h-i686-mingw32/bin/../lib/gcc/nios2-elf/4.1.2/../../../../nios2-elf/lib\libc.a(lib_a-freer.o)
 .debug_loc     0x000072fc      0x4e4 d:/altera/13.0sp1/nios2eds/bin/gnu/h-i686-mingw32/bin/../lib/gcc/nios2-elf/4.1.2/../../../../nios2-elf/lib\libc.a(lib_a-fvwrite.o)
 .debug_loc     0x000077e0      0x1d2 d:/altera/13.0sp1/nios2eds/bin/gnu/h-i686-mingw32/bin/../lib/gcc/nios2-elf/4.1.2/../../../../nios2-elf/lib\libc.a(lib_a-fwalk.o)
 .debug_loc     0x000079b2       0xe1 d:/altera/13.0sp1/nios2eds/bin/gnu/h-i686-mingw32/bin/../lib/gcc/nios2-elf/4.1.2/../../../../nios2-elf/lib\libc.a(lib_a-locale.o)
 .debug_loc     0x00007a93      0x11c d:/altera/13.0sp1/nios2eds/bin/gnu/h-i686-mingw32/bin/../lib/gcc/nios2-elf/4.1.2/../../../../nios2-elf/lib\libc.a(lib_a-makebuf.o)
 .debug_loc     0x00007baf      0xaeb d:/altera/13.0sp1/nios2eds/bin/gnu/h-i686-mingw32/bin/../lib/gcc/nios2-elf/4.1.2/../../../../nios2-elf/lib\libc.a(lib_a-mallocr.o)
 .debug_loc     0x0000869a      0x106 d:/altera/13.0sp1/nios2eds/bin/gnu/h-i686-mingw32/bin/../lib/gcc/nios2-elf/4.1.2/../../../../nios2-elf/lib\libc.a(lib_a-memchr.o)
 .debug_loc     0x000087a0     0x14d6 d:/altera/13.0sp1/nios2eds/bin/gnu/h-i686-mingw32/bin/../lib/gcc/nios2-elf/4.1.2/../../../../nios2-elf/lib\libc.a(lib_a-mprec.o)
 .debug_loc     0x00009c76      0x8c0 d:/altera/13.0sp1/nios2eds/bin/gnu/h-i686-mingw32/bin/../lib/gcc/nios2-elf/4.1.2/../../../../nios2-elf/lib\libc.a(lib_a-reallocr.o)
 .debug_loc     0x0000a536       0xd1 d:/altera/13.0sp1/nios2eds/bin/gnu/h-i686-mingw32/bin/../lib/gcc/nios2-elf/4.1.2/../../../../nios2-elf/lib\libc.a(lib_a-refill.o)
 .debug_loc     0x0000a607       0x36 d:/altera/13.0sp1/nios2eds/bin/gnu/h-i686-mingw32/bin/../lib/gcc/nios2-elf/4.1.2/../../../../nios2-elf/lib\libc.a(lib_a-s_isinfd.o)
 .debug_loc     0x0000a63d       0x18 d:/altera/13.0sp1/nios2eds/bin/gnu/h-i686-mingw32/bin/../lib/gcc/nios2-elf/4.1.2/../../../../nios2-elf/lib\libc.a(lib_a-s_isnand.o)
 .debug_loc     0x0000a655       0x5b d:/altera/13.0sp1/nios2eds/bin/gnu/h-i686-mingw32/bin/../lib/gcc/nios2-elf/4.1.2/../../../../nios2-elf/lib\libc.a(lib_a-sbrkr.o)
 .debug_loc     0x0000a6b0      0x21f d:/altera/13.0sp1/nios2eds/bin/gnu/h-i686-mingw32/bin/../lib/gcc/nios2-elf/4.1.2/../../../../nios2-elf/lib\libc.a(lib_a-stdio.o)
 .debug_loc     0x0000a8cf       0x97 d:/altera/13.0sp1/nios2eds/bin/gnu/h-i686-mingw32/bin/../lib/gcc/nios2-elf/4.1.2/../../../../nios2-elf/lib\libc.a(lib_a-writer.o)
 .debug_loc     0x0000a966       0xe9 d:/altera/13.0sp1/nios2eds/bin/gnu/h-i686-mingw32/bin/../lib/gcc/nios2-elf/4.1.2/../../../../nios2-elf/lib\libc.a(lib_a-callocr.o)
 .debug_loc     0x0000aa4f       0x5b d:/altera/13.0sp1/nios2eds/bin/gnu/h-i686-mingw32/bin/../lib/gcc/nios2-elf/4.1.2/../../../../nios2-elf/lib\libc.a(lib_a-closer.o)
 .debug_loc     0x0000aaaa       0xe4 d:/altera/13.0sp1/nios2eds/bin/gnu/h-i686-mingw32/bin/../lib/gcc/nios2-elf/4.1.2/../../../../nios2-elf/lib\libc.a(lib_a-fclose.o)
 .debug_loc     0x0000ab8e       0x79 d:/altera/13.0sp1/nios2eds/bin/gnu/h-i686-mingw32/bin/../lib/gcc/nios2-elf/4.1.2/../../../../nios2-elf/lib\libc.a(lib_a-fstatr.o)
 .debug_loc     0x0000ac07       0x5b d:/altera/13.0sp1/nios2eds/bin/gnu/h-i686-mingw32/bin/../lib/gcc/nios2-elf/4.1.2/../../../../nios2-elf/lib\libc.a(lib_a-isattyr.o)
 .debug_loc     0x0000ac62       0x97 d:/altera/13.0sp1/nios2eds/bin/gnu/h-i686-mingw32/bin/../lib/gcc/nios2-elf/4.1.2/../../../../nios2-elf/lib\libc.a(lib_a-lseekr.o)
 .debug_loc     0x0000acf9       0x97 d:/altera/13.0sp1/nios2eds/bin/gnu/h-i686-mingw32/bin/../lib/gcc/nios2-elf/4.1.2/../../../../nios2-elf/lib\libc.a(lib_a-readr.o)
 .debug_loc     0x0000ad90      0xc12 d:/altera/13.0sp1/nios2eds/bin/gnu/h-i686-mingw32/bin/../lib/gcc/nios2-elf/4.1.2\libgcc.a(_udivdi3.o)
 .debug_loc     0x0000b9a2      0xc26 d:/altera/13.0sp1/nios2eds/bin/gnu/h-i686-mingw32/bin/../lib/gcc/nios2-elf/4.1.2\libgcc.a(_umoddi3.o)
 .debug_loc     0x0000c5c8      0x1df d:/altera/13.0sp1/nios2eds/bin/gnu/h-i686-mingw32/bin/../lib/gcc/nios2-elf/4.1.2\libgcc.a(_div_df.o)
 .debug_loc     0x0000c7a7       0x70 d:/altera/13.0sp1/nios2eds/bin/gnu/h-i686-mingw32/bin/../lib/gcc/nios2-elf/4.1.2\libgcc.a(_eq_df.o)
 .debug_loc     0x0000c817       0x70 d:/altera/13.0sp1/nios2eds/bin/gnu/h-i686-mingw32/bin/../lib/gcc/nios2-elf/4.1.2\libgcc.a(_ne_df.o)
 .debug_loc     0x0000c887       0x70 d:/altera/13.0sp1/nios2eds/bin/gnu/h-i686-mingw32/bin/../lib/gcc/nios2-elf/4.1.2\libgcc.a(_gt_df.o)
 .debug_loc     0x0000c8f7       0x70 d:/altera/13.0sp1/nios2eds/bin/gnu/h-i686-mingw32/bin/../lib/gcc/nios2-elf/4.1.2\libgcc.a(_lt_df.o)
 .debug_loc     0x0000c967       0x9a d:/altera/13.0sp1/nios2eds/bin/gnu/h-i686-mingw32/bin/../lib/gcc/nios2-elf/4.1.2\libgcc.a(_si_to_df.o)
 .debug_loc     0x0000ca01      0x1d2 d:/altera/13.0sp1/nios2eds/bin/gnu/h-i686-mingw32/bin/../lib/gcc/nios2-elf/4.1.2\libgcc.a(lib2-divmod.o)
 .debug_loc     0x0000cbd3       0x56 ../lab7_bsp/\libucosii_bsp.a(alt_exit.o)
 .debug_loc     0x0000cc29       0x56 ../lab7_bsp/\libucosii_bsp.a(alt_flash_dev.o)
 .debug_loc     0x0000cc7f       0x56 ../lab7_bsp/\libucosii_bsp.a(alt_fstat.o)
 .debug_loc     0x0000ccd5       0x2c ../lab7_bsp/\libucosii_bsp.a(alt_irq_register.o)
 .debug_loc     0x0000cd01       0x57 ../lab7_bsp/\libucosii_bsp.a(alt_isatty.o)
 .debug_loc     0x0000cd58       0x56 ../lab7_bsp/\libucosii_bsp.a(alt_lseek.o)
 .debug_loc     0x0000cdae       0x2b ../lab7_bsp/\libucosii_bsp.a(alt_main.o)
 .debug_loc     0x0000cdd9       0x2b ../lab7_bsp/\libucosii_bsp.a(alt_sbrk.o)
 .debug_loc     0x0000ce04       0x2b ../lab7_bsp/\libucosii_bsp.a(alt_usleep.o)
 .debug_loc     0x0000ce2f       0x57 ../lab7_bsp/\libucosii_bsp.a(alt_env_lock.o)
 .debug_loc     0x0000ce86       0x57 ../lab7_bsp/\libucosii_bsp.a(alt_malloc_lock.o)
 .debug_loc     0x0000cedd      0x5e2 ../lab7_bsp/\libucosii_bsp.a(os_core.o)
 .debug_loc     0x0000d4bf       0x2b ../lab7_bsp/\libucosii_bsp.a(os_dbg.o)
 .debug_loc     0x0000d4ea      0x232 ../lab7_bsp/\libucosii_bsp.a(os_flag.o)
 .debug_loc     0x0000d71c      0x12d ../lab7_bsp/\libucosii_bsp.a(os_mem.o)
 .debug_loc     0x0000d849      0x1da ../lab7_bsp/\libucosii_bsp.a(os_q.o)
 .debug_loc     0x0000da23      0x158 ../lab7_bsp/\libucosii_bsp.a(os_sem.o)
 .debug_loc     0x0000db7b      0x207 ../lab7_bsp/\libucosii_bsp.a(os_task.o)
 .debug_loc     0x0000dd82       0xd7 ../lab7_bsp/\libucosii_bsp.a(os_time.o)
 .debug_loc     0x0000de59       0x81 ../lab7_bsp/\libucosii_bsp.a(alt_sys_init.o)
 .debug_loc     0x0000deda      0x12e ../lab7_bsp/\libucosii_bsp.a(altera_avalon_cfi_flash.o)
 .debug_loc     0x0000e008      0x306 ../lab7_bsp/\libucosii_bsp.a(altera_avalon_cfi_flash_table.o)
 .debug_loc     0x0000e30e      0x1af ../lab7_bsp/\libucosii_bsp.a(altera_avalon_epcs_flash_controller.o)
 .debug_loc     0x0000e4bd       0xac ../lab7_bsp/\libucosii_bsp.a(altera_avalon_jtag_uart_fd.o)
 .debug_loc     0x0000e569       0xac ../lab7_bsp/\libucosii_bsp.a(altera_avalon_jtag_uart_init.o)
 .debug_loc     0x0000e615       0x2b ../lab7_bsp/\libucosii_bsp.a(altera_avalon_jtag_uart_ioctl.o)
 .debug_loc     0x0000e640       0x2c ../lab7_bsp/\libucosii_bsp.a(altera_avalon_jtag_uart_read.o)
 .debug_loc     0x0000e66c       0x2c ../lab7_bsp/\libucosii_bsp.a(altera_avalon_jtag_uart_write.o)
 .debug_loc     0x0000e698      0x184 ../lab7_bsp/\libucosii_bsp.a(altera_avalon_lcd_16207.o)
 .debug_loc     0x0000e81c       0x2b ../lab7_bsp/\libucosii_bsp.a(altera_avalon_lcd_16207_fd.o)
 .debug_loc     0x0000e847       0x56 ../lab7_bsp/\libucosii_bsp.a(altera_avalon_timer_sc.o)
 .debug_loc     0x0000e89d       0x81 ../lab7_bsp/\libucosii_bsp.a(altera_avalon_uart_fd.o)
 .debug_loc     0x0000e91e       0xd8 ../lab7_bsp/\libucosii_bsp.a(altera_avalon_uart_init.o)
 .debug_loc     0x0000e9f6       0x57 ../lab7_bsp/\libucosii_bsp.a(altera_avalon_uart_read.o)
 .debug_loc     0x0000ea4d       0x57 ../lab7_bsp/\libucosii_bsp.a(altera_avalon_uart_write.o)
 .debug_loc     0x0000eaa4      0x204 ../lab7_bsp/\libucosii_bsp.a(epcs_commands.o)
 .debug_loc     0x0000eca8       0x2b ../lab7_bsp/\libucosii_bsp.a(alt_iniche_close.o)
 .debug_loc     0x0000ecd3       0x2b ../lab7_bsp/\libucosii_bsp.a(alt_iniche_dev.o)
 .debug_loc     0x0000ecfe       0x2b ../lab7_bsp/\libucosii_bsp.a(alt_iniche_read.o)
 .debug_loc     0x0000ed29       0x2b ../lab7_bsp/\libucosii_bsp.a(alt_iniche_write.o)
 .debug_loc     0x0000ed54      0x102 ../lab7_bsp/\libucosii_bsp.a(ipnet.o)
 .debug_loc     0x0000ee56       0xac ../lab7_bsp/\libucosii_bsp.a(ipstart.o)
 .debug_loc     0x0000ef02      0x159 ../lab7_bsp/\libucosii_bsp.a(igmp_cmn.o)
 .debug_loc     0x0000f05b      0x1af ../lab7_bsp/\libucosii_bsp.a(bsdsock.o)
 .debug_loc     0x0000f20a       0x56 ../lab7_bsp/\libucosii_bsp.a(cksum.o)
 .debug_loc     0x0000f260      0x204 ../lab7_bsp/\libucosii_bsp.a(in_utils.o)
 .debug_loc     0x0000f464       0x81 ../lab7_bsp/\libucosii_bsp.a(netmain.o)
 .debug_loc     0x0000f4e5      0x183 ../lab7_bsp/\libucosii_bsp.a(parseip.o)
 .debug_loc     0x0000f668      0x12f ../lab7_bsp/\libucosii_bsp.a(tk_crnos.o)
 .debug_loc     0x0000f797      0x35c ../lab7_bsp/\libucosii_bsp.a(dhcpclnt.o)
 .debug_loc     0x0000faf3       0x2b ../lab7_bsp/\libucosii_bsp.a(dhcputil.o)
 .debug_loc     0x0000fb1e      0x102 ../lab7_bsp/\libucosii_bsp.a(pktalloc.o)
 .debug_loc     0x0000fc20       0x81 ../lab7_bsp/\libucosii_bsp.a(q.o)
 .debug_loc     0x0000fca1       0x56 ../lab7_bsp/\libucosii_bsp.a(udp_open.o)
 .debug_loc     0x0000fcf7      0x158 ../lab7_bsp/\libucosii_bsp.a(brdutils.o)
 .debug_loc     0x0000fe4f       0xd8 ../lab7_bsp/\libucosii_bsp.a(osportco.o)
 .debug_loc     0x0000ff27      0x183 ../lab7_bsp/\libucosii_bsp.a(targnios.o)
 .debug_loc     0x000100aa      0x306 ../lab7_bsp/\libucosii_bsp.a(nptcp.o)
 .debug_loc     0x000103b0       0x82 ../lab7_bsp/\libucosii_bsp.a(rawsock.o)
 .debug_loc     0x00010432      0x332 ../lab7_bsp/\libucosii_bsp.a(sockcall.o)
 .debug_loc     0x00010764      0x2b1 ../lab7_bsp/\libucosii_bsp.a(socket.o)
 .debug_loc     0x00010a15      0x3dd ../lab7_bsp/\libucosii_bsp.a(socket2.o)
 .debug_loc     0x00010df2      0x184 ../lab7_bsp/\libucosii_bsp.a(soselect.o)
 .debug_loc     0x00010f76      0x12e ../lab7_bsp/\libucosii_bsp.a(tcp_in.o)
 .debug_loc     0x000110a4       0x82 ../lab7_bsp/\libucosii_bsp.a(tcp_out.o)
 .debug_loc     0x00011126      0x183 ../lab7_bsp/\libucosii_bsp.a(tcp_subr.o)
 .debug_loc     0x000112a9       0x81 ../lab7_bsp/\libucosii_bsp.a(tcp_timr.o)
 .debug_loc     0x0001132a       0xac ../lab7_bsp/\libucosii_bsp.a(tcp_usr.o)
 .debug_loc     0x000113d6       0x2b ../lab7_bsp/\libucosii_bsp.a(tcpport.o)
 .debug_loc     0x00011401      0x102 ../lab7_bsp/\libucosii_bsp.a(udpsock.o)
 .debug_loc     0x00011503       0x2b ../lab7_bsp/\libucosii_bsp.a(alt_alarm_start.o)
 .debug_loc     0x0001152e       0x2b ../lab7_bsp/\libucosii_bsp.a(alt_busy_sleep.o)
 .debug_loc     0x00011559       0x56 ../lab7_bsp/\libucosii_bsp.a(alt_close.o)
 .debug_loc     0x000115af       0x2b ../lab7_bsp/\libucosii_bsp.a(alt_dcache_flush.o)
 .debug_loc     0x000115da       0x2b ../lab7_bsp/\libucosii_bsp.a(alt_dev.o)
 .debug_loc     0x00011605       0x56 ../lab7_bsp/\libucosii_bsp.a(alt_dev_llist_insert.o)
 .debug_loc     0x0001165b       0x2b ../lab7_bsp/\libucosii_bsp.a(alt_do_ctors.o)
 .debug_loc     0x00011686       0x2b ../lab7_bsp/\libucosii_bsp.a(alt_do_dtors.o)
 .debug_loc     0x000116b1       0x2b ../lab7_bsp/\libucosii_bsp.a(alt_find_dev.o)
 .debug_loc     0x000116dc       0xac ../lab7_bsp/\libucosii_bsp.a(alt_iic.o)
 .debug_loc     0x00011788       0x2b ../lab7_bsp/\libucosii_bsp.a(alt_iic_isr_register.o)
 .debug_loc     0x000117b3       0x56 ../lab7_bsp/\libucosii_bsp.a(alt_io_redirect.o)
 .debug_loc     0x00011809       0x2b ../lab7_bsp/\libucosii_bsp.a(alt_irq_handler.o)
 .debug_loc     0x00011834       0x81 ../lab7_bsp/\libucosii_bsp.a(alt_open.o)
 .debug_loc     0x000118b5       0x56 ../lab7_bsp/\libucosii_bsp.a(alt_read.o)
 .debug_loc     0x0001190b       0x2b ../lab7_bsp/\libucosii_bsp.a(alt_release_fd.o)
 .debug_loc     0x00011936       0x2b ../lab7_bsp/\libucosii_bsp.a(alt_remap_cached.o)
 .debug_loc     0x00011961       0x2b ../lab7_bsp/\libucosii_bsp.a(alt_remap_uncached.o)
 .debug_loc     0x0001198c       0x56 ../lab7_bsp/\libucosii_bsp.a(alt_tick.o)
 .debug_loc     0x000119e2       0x56 ../lab7_bsp/\libucosii_bsp.a(alt_write.o)
 .debug_loc     0x00011a38       0x2b ../lab7_bsp/\libucosii_bsp.a(altera_nios2_qsys_irq.o)
 .debug_loc     0x00011a63      0x1ae ../lab7_bsp/\libucosii_bsp.a(os_cpu_c.o)
 .debug_loc     0x00011c11       0xac ../lab7_bsp/\libucosii_bsp.a(altera_avalon_cfi_flash_amd.o)
 .debug_loc     0x00011cbd       0xac ../lab7_bsp/\libucosii_bsp.a(altera_avalon_cfi_flash_intel.o)
 .debug_loc     0x00011d69       0x2b ../lab7_bsp/\libucosii_bsp.a(altera_avalon_spi.o)
 .debug_loc     0x00011d94      0x12d ../lab7_bsp/\libucosii_bsp.a(allports.o)
 .debug_loc     0x00011ec1       0xac ../lab7_bsp/\libucosii_bsp.a(timeouts.o)
 .debug_loc     0x00011f6d       0x56 ../lab7_bsp/\libucosii_bsp.a(tk_misc.o)
 .debug_loc     0x00011fc3       0x2b ../lab7_bsp/\libucosii_bsp.a(alt_iniche_fcntl.o)
 .debug_loc     0x00011fee      0x204 ../lab7_bsp/\libucosii_bsp.a(et_arp.o)
 .debug_loc     0x000121f2       0xac ../lab7_bsp/\libucosii_bsp.a(iface.o)
 .debug_loc     0x0001229e      0x207 ../lab7_bsp/\libucosii_bsp.a(ip.o)
 .debug_loc     0x000124a5      0x2b2 ../lab7_bsp/\libucosii_bsp.a(ip_reasm.o)
 .debug_loc     0x00012757       0x81 ../lab7_bsp/\libucosii_bsp.a(ipdemux.o)
 .debug_loc     0x000127d8       0x81 ../lab7_bsp/\libucosii_bsp.a(ipmc.o)
 .debug_loc     0x00012859       0x81 ../lab7_bsp/\libucosii_bsp.a(ipport.o)
 .debug_loc     0x000128da      0x102 ../lab7_bsp/\libucosii_bsp.a(ipraw.o)
 .debug_loc     0x000129dc       0x81 ../lab7_bsp/\libucosii_bsp.a(iproute.o)
 .debug_loc     0x00012a5d      0x12f ../lab7_bsp/\libucosii_bsp.a(udp.o)
 .debug_loc     0x00012b8c       0x2b ../lab7_bsp/\libucosii_bsp.a(igmp.o)
 .debug_loc     0x00012bb7       0xd7 ../lab7_bsp/\libucosii_bsp.a(igmp2.o)
 .debug_loc     0x00012c8e       0xac ../lab7_bsp/\libucosii_bsp.a(ipopt.o)
 .debug_loc     0x00012d3a       0x57 ../lab7_bsp/\libucosii_bsp.a(u_mctest.o)
 .debug_loc     0x00012d91       0x56 ../lab7_bsp/\libucosii_bsp.a(dhcsetup.o)
 .debug_loc     0x00012de7      0x183 ../lab7_bsp/\libucosii_bsp.a(memdev.o)
 .debug_loc     0x00012f6a       0x2b ../lab7_bsp/\libucosii_bsp.a(tcpcksum.o)
 .debug_loc     0x00012f95      0x158 ../lab7_bsp/\libucosii_bsp.a(in_pcb.o)
 .debug_loc     0x000130ed      0x4b4 ../lab7_bsp/\libucosii_bsp.a(vfsfiles.o)
 .debug_loc     0x000135a1       0x2b ../lab7_bsp/\libucosii_bsp.a(vfsport.o)
 .debug_loc     0x000135cc       0x56 ../lab7_bsp/\libucosii_bsp.a(alt_fcntl.o)
 .debug_loc     0x00013622       0x2b ../lab7_bsp/\libucosii_bsp.a(alt_find_file.o)
 .debug_loc     0x0001364d       0x2b ../lab7_bsp/\libucosii_bsp.a(alt_get_fd.o)
 .debug_loc     0x00013678       0xad ../lab7_bsp/\libucosii_bsp.a(icmp.o)
 .debug_loc     0x00013725       0x1e d:/altera/13.0sp1/nios2eds/bin/gnu/h-i686-mingw32/bin/../lib/gcc/nios2-elf/4.1.2/../../../../nios2-elf/lib\libc.a(lib_a-atexit.o)
 .debug_loc     0x00013743       0x3c d:/altera/13.0sp1/nios2eds/bin/gnu/h-i686-mingw32/bin/../lib/gcc/nios2-elf/4.1.2/../../../../nios2-elf/lib\libc.a(lib_a-calloc.o)
 .debug_loc     0x0001377f       0x3c d:/altera/13.0sp1/nios2eds/bin/gnu/h-i686-mingw32/bin/../lib/gcc/nios2-elf/4.1.2/../../../../nios2-elf/lib\libc.a(lib_a-malloc.o)
 .debug_loc     0x000137bb      0x114 d:/altera/13.0sp1/nios2eds/bin/gnu/h-i686-mingw32/bin/../lib/gcc/nios2-elf/4.1.2/../../../../nios2-elf/lib\libc.a(lib_a-memcmp.o)
 .debug_loc     0x000138cf       0xc0 d:/altera/13.0sp1/nios2eds/bin/gnu/h-i686-mingw32/bin/../lib/gcc/nios2-elf/4.1.2/../../../../nios2-elf/lib\libc.a(lib_a-sprintf.o)
 .debug_loc     0x0001398f       0x8b d:/altera/13.0sp1/nios2eds/bin/gnu/h-i686-mingw32/bin/../lib/gcc/nios2-elf/4.1.2/../../../../nios2-elf/lib\libc.a(lib_a-strcpy.o)
 .debug_loc     0x00013a1a       0x78 d:/altera/13.0sp1/nios2eds/bin/gnu/h-i686-mingw32/bin/../lib/gcc/nios2-elf/4.1.2/../../../../nios2-elf/lib\libc.a(lib_a-strncmp.o)
 .debug_loc     0x00013a92       0xeb d:/altera/13.0sp1/nios2eds/bin/gnu/h-i686-mingw32/bin/../lib/gcc/nios2-elf/4.1.2/../../../../nios2-elf/lib\libc.a(lib_a-strncpy.o)
 .debug_loc     0x00013b7d       0x8b d:/altera/13.0sp1/nios2eds/bin/gnu/h-i686-mingw32/bin/../lib/gcc/nios2-elf/4.1.2/../../../../nios2-elf/lib\libc.a(lib_a-vprintf.o)
 .debug_loc     0x00013c08       0xd1 d:/altera/13.0sp1/nios2eds/bin/gnu/h-i686-mingw32/bin/../lib/gcc/nios2-elf/4.1.2/../../../../nios2-elf/lib\libc.a(lib_a-vsprintf.o)
 .debug_loc     0x00013cd9      0x120 d:/altera/13.0sp1/nios2eds/bin/gnu/h-i686-mingw32/bin/../lib/gcc/nios2-elf/4.1.2/../../../../nios2-elf/lib\libc.a(lib_a-__atexit.o)

.debug_macinfo
 *(.debug_macinfo)

.debug_weaknames
 *(.debug_weaknames)

.debug_funcnames
 *(.debug_funcnames)

.debug_typenames
 *(.debug_typenames)

.debug_varnames
 *(.debug_varnames)

.debug_alt_sim_info
                0x00000000       0x50
 *(.debug_alt_sim_info)
 .debug_alt_sim_info
                0x00000000       0x20 ../lab7_bsp//obj/HAL/src/crt0.o
 .debug_alt_sim_info
                0x00000020       0x30 ../lab7_bsp/\libucosii_bsp.a(alt_busy_sleep.o)
                0x01000000                __alt_data_end = 0x1000000
                0x01000000                PROVIDE (__alt_stack_pointer, __alt_data_end)
                0x00857d3c                PROVIDE (__alt_stack_limit, __alt_stack_base)
                0x00857d3c                PROVIDE (__alt_heap_start, end)
                0x01000000                PROVIDE (__alt_heap_limit, 0x1000000)
OUTPUT(lab7.elf elf32-littlenios2)

.debug_ranges   0x00000000      0x9a0
 .debug_ranges  0x00000000       0x30 d:/altera/13.0sp1/nios2eds/bin/gnu/h-i686-mingw32/bin/../lib/gcc/nios2-elf/4.1.2\libgcc.a(_addsub_df.o)
 .debug_ranges  0x00000030       0x88 d:/altera/13.0sp1/nios2eds/bin/gnu/h-i686-mingw32/bin/../lib/gcc/nios2-elf/4.1.2\libgcc.a(_mul_df.o)
 .debug_ranges  0x000000b8       0x18 d:/altera/13.0sp1/nios2eds/bin/gnu/h-i686-mingw32/bin/../lib/gcc/nios2-elf/4.1.2\libgcc.a(_usi_to_df.o)
 .debug_ranges  0x000000d0       0x68 d:/altera/13.0sp1/nios2eds/bin/gnu/h-i686-mingw32/bin/../lib/gcc/nios2-elf/4.1.2\libgcc.a(_muldi3.o)
 .debug_ranges  0x00000138       0x28 d:/altera/13.0sp1/nios2eds/bin/gnu/h-i686-mingw32/bin/../lib/gcc/nios2-elf/4.1.2\libgcc.a(_clzsi2.o)
 .debug_ranges  0x00000160       0x28 d:/altera/13.0sp1/nios2eds/bin/gnu/h-i686-mingw32/bin/../lib/gcc/nios2-elf/4.1.2\libgcc.a(_pack_df.o)
 .debug_ranges  0x00000188      0x168 d:/altera/13.0sp1/nios2eds/bin/gnu/h-i686-mingw32/bin/../lib/gcc/nios2-elf/4.1.2/../../../../nios2-elf/lib\libc.a(lib_a-vfprintf.o)
 .debug_ranges  0x000002f0       0x18 d:/altera/13.0sp1/nios2eds/bin/gnu/h-i686-mingw32/bin/../lib/gcc/nios2-elf/4.1.2/../../../../nios2-elf/lib\libc.a(lib_a-__call_atexit.o)
 .debug_ranges  0x00000308       0x20 d:/altera/13.0sp1/nios2eds/bin/gnu/h-i686-mingw32/bin/../lib/gcc/nios2-elf/4.1.2/../../../../nios2-elf/lib\libc.a(lib_a-fflush.o)
 .debug_ranges  0x00000328       0x28 d:/altera/13.0sp1/nios2eds/bin/gnu/h-i686-mingw32/bin/../lib/gcc/nios2-elf/4.1.2/../../../../nios2-elf/lib\libc.a(lib_a-fvwrite.o)
 .debug_ranges  0x00000350       0xa0 d:/altera/13.0sp1/nios2eds/bin/gnu/h-i686-mingw32/bin/../lib/gcc/nios2-elf/4.1.2/../../../../nios2-elf/lib\libc.a(lib_a-fwalk.o)
 .debug_ranges  0x000003f0       0x70 d:/altera/13.0sp1/nios2eds/bin/gnu/h-i686-mingw32/bin/../lib/gcc/nios2-elf/4.1.2/../../../../nios2-elf/lib\libc.a(lib_a-mallocr.o)
 .debug_ranges  0x00000460      0x110 d:/altera/13.0sp1/nios2eds/bin/gnu/h-i686-mingw32/bin/../lib/gcc/nios2-elf/4.1.2/../../../../nios2-elf/lib\libc.a(lib_a-reallocr.o)
 .debug_ranges  0x00000570       0x38 d:/altera/13.0sp1/nios2eds/bin/gnu/h-i686-mingw32/bin/../lib/gcc/nios2-elf/4.1.2/../../../../nios2-elf/lib\libc.a(lib_a-callocr.o)
 .debug_ranges  0x000005a8      0x188 d:/altera/13.0sp1/nios2eds/bin/gnu/h-i686-mingw32/bin/../lib/gcc/nios2-elf/4.1.2\libgcc.a(_udivdi3.o)
 .debug_ranges  0x00000730      0x198 d:/altera/13.0sp1/nios2eds/bin/gnu/h-i686-mingw32/bin/../lib/gcc/nios2-elf/4.1.2\libgcc.a(_umoddi3.o)
 .debug_ranges  0x000008c8       0x50 d:/altera/13.0sp1/nios2eds/bin/gnu/h-i686-mingw32/bin/../lib/gcc/nios2-elf/4.1.2\libgcc.a(_div_df.o)
 .debug_ranges  0x00000918       0x18 ../lab7_bsp/\libucosii_bsp.a(altera_avalon_jtag_uart_init.o)
 .debug_ranges  0x00000930       0x18 ../lab7_bsp/\libucosii_bsp.a(altera_avalon_uart_init.o)
 .debug_ranges  0x00000948       0x28 ../lab7_bsp/\libucosii_bsp.a(alt_irq_entry.o)
 .debug_ranges  0x00000970       0x30 ../lab7_bsp/\libucosii_bsp.a(alt_exception_entry.o)
